GAS LISTING C:\Users\Uzair\AppData\Local\Temp\ccbqUkhV.s 			page 1


   1              		.file	"app.c"
   2              		.option nopic
   3              		.attribute arch, "rv32i2p0_m2p0_a2p0_c2p0"
   4              		.attribute unaligned_access, 0
   5              		.attribute stack_align, 16
   6              		.text
   7              	.Ltext0:
   8              		.cfi_sections	.debug_frame
   9              		.globl	__ltsf2
  10              		.globl	__divsf3
  11              		.globl	__addsf3
  12              		.globl	__fixunssfsi
  13              		.section	.text.startup.main,"ax",@progbits
  14              		.align	1
  15              		.globl	main
  17              	main:
  18              	.LFB5:
  19              		.file 1 "app.c"
   1:app.c         **** /*!
   2:app.c         ****     \file  main.c
   3:app.c         ****     \brief USB CDC ACM device
   4:app.c         **** 
   5:app.c         ****     \version 2019-6-5, V1.0.0, demo for GD32VF103
   6:app.c         **** */
   7:app.c         **** 
   8:app.c         **** /*
   9:app.c         ****     Copyright (c) 2019, GigaDevice Semiconductor Inc.
  10:app.c         **** 
  11:app.c         ****     Redistribution and use in source and binary forms, with or without modification, 
  12:app.c         **** are permitted provided that the following conditions are met:
  13:app.c         **** 
  14:app.c         ****     1. Redistributions of source code must retain the above copyright notice, this 
  15:app.c         ****        list of conditions and the following disclaimer.
  16:app.c         ****     2. Redistributions in binary form must reproduce the above copyright notice, 
  17:app.c         ****        this list of conditions and the following disclaimer in the documentation 
  18:app.c         ****        and/or other materials provided with the distribution.
  19:app.c         ****     3. Neither the name of the copyright holder nor the names of its contributors 
  20:app.c         ****        may be used to endorse or promote products derived from this software without 
  21:app.c         ****        specific prior written permission.
  22:app.c         **** 
  23:app.c         ****     THIS SOFTWARE IS PROVIDED BY THE COPYRIGHT HOLDERS AND CONTRIBUTORS "AS IS" 
  24:app.c         **** AND ANY EXPRESS OR IMPLIED WARRANTIES, INCLUDING, BUT NOT LIMITED TO, THE IMPLIED 
  25:app.c         **** WARRANTIES OF MERCHANTABILITY AND FITNESS FOR A PARTICULAR PURPOSE ARE DISCLAIMED. 
  26:app.c         **** IN NO EVENT SHALL THE COPYRIGHT HOLDER OR CONTRIBUTORS BE LIABLE FOR ANY DIRECT, 
  27:app.c         **** INDIRECT, INCIDENTAL, SPECIAL, EXEMPLARY, OR CONSEQUENTIAL DAMAGES (INCLUDING, BUT 
  28:app.c         **** NOT LIMITED TO, PROCUREMENT OF SUBSTITUTE GOODS OR SERVICES; LOSS OF USE, DATA, OR 
  29:app.c         **** PROFITS; OR BUSINESS INTERRUPTION) HOWEVER CAUSED AND ON ANY THEORY OF LIABILITY, 
  30:app.c         **** WHETHER IN CONTRACT, STRICT LIABILITY, OR TORT (INCLUDING NEGLIGENCE OR OTHERWISE) 
  31:app.c         **** ARISING IN ANY WAY OUT OF THE USE OF THIS SOFTWARE, EVEN IF ADVISED OF THE POSSIBILITY 
  32:app.c         **** OF SUCH DAMAGE.
  33:app.c         **** */
  34:app.c         **** 
  35:app.c         **** 
  36:app.c         **** #include "gd32vf103.h"
  37:app.c         **** #include "lcd.h"
  38:app.c         **** #include "delay.h"
  39:app.c         **** #include "gd32v_mpu6500_if.h"
GAS LISTING C:\Users\Uzair\AppData\Local\Temp\ccbqUkhV.s 			page 2


  40:app.c         **** 
  41:app.c         **** 
  42:app.c         **** #define GRAPH_HEIGHT    30
  43:app.c         **** 
  44:app.c         **** 
  45:app.c         **** int main(void)
  46:app.c         **** {
  20              		.loc 1 46 1
  21              		.cfi_startproc
  47:app.c         ****     /* The related data structure for the IMU, contains a vector of x, y, z floats*/
  48:app.c         ****     mpu_vector_t vec, vec_temp;
  22              		.loc 1 48 5
  49:app.c         ****     /* for lcd */
  50:app.c         ****     uint16_t line_color;
  23              		.loc 1 50 5
  51:app.c         **** 
  52:app.c         ****     /* Initialize pins for I2C */
  53:app.c         ****     rcu_periph_clock_enable(RCU_GPIOB);
  24              		.loc 1 53 5
  46:app.c         ****     /* The related data structure for the IMU, contains a vector of x, y, z floats*/
  25              		.loc 1 46 1 is_stmt 0
  26 0000 1D71     		addi	sp,sp,-96
  27              	.LCFI0:
  28              		.cfi_def_cfa_offset 96
  29              		.loc 1 53 5
  30 0002 13053060 		li	a0,1539
  46:app.c         ****     /* The related data structure for the IMU, contains a vector of x, y, z floats*/
  31              		.loc 1 46 1
  32 0006 86CE     		sw	ra,92(sp)
  33 0008 A6CA     		sw	s1,84(sp)
  34 000a CAC8     		sw	s2,80(sp)
  35 000c CEC6     		sw	s3,76(sp)
  36 000e D2C4     		sw	s4,72(sp)
  37 0010 D6C2     		sw	s5,68(sp)
  38 0012 DAC0     		sw	s6,64(sp)
  39 0014 5EDE     		sw	s7,60(sp)
  40 0016 62DC     		sw	s8,56(sp)
  41 0018 A2CC     		sw	s0,88(sp)
  42              		.cfi_offset 1, -4
  43              		.cfi_offset 9, -12
  44              		.cfi_offset 18, -16
  45              		.cfi_offset 19, -20
  46              		.cfi_offset 20, -24
  47              		.cfi_offset 21, -28
  48              		.cfi_offset 22, -32
  49              		.cfi_offset 23, -36
  50              		.cfi_offset 24, -40
  51              		.cfi_offset 8, -8
  52              		.loc 1 53 5
  53 001a 97000000 		call	rcu_periph_clock_enable
  53      E7800000 
  54              	.LVL0:
  54:app.c         ****     rcu_periph_clock_enable(RCU_I2C0);
  55              		.loc 1 54 5 is_stmt 1
  56 0022 13055071 		li	a0,1813
  57 0026 97000000 		call	rcu_periph_clock_enable
  57      E7800000 
GAS LISTING C:\Users\Uzair\AppData\Local\Temp\ccbqUkhV.s 			page 3


  58              	.LVL1:
  55:app.c         ****     gpio_init(GPIOB, GPIO_MODE_AF_OD, GPIO_OSPEED_50MHZ, GPIO_PIN_6 | GPIO_PIN_7);
  59              		.loc 1 55 5
  60 002e 37150140 		li	a0,1073811456
  61 0032 9306000C 		li	a3,192
  62 0036 0D46     		li	a2,3
  63 0038 F145     		li	a1,28
  64 003a 130505C0 		addi	a0,a0,-1024
  65 003e 97000000 		call	gpio_init
  65      E7800000 
  66              	.LVL2:
  56:app.c         ****     /* Initialize the IMU (Notice that MPU6500 is referenced, this is due to the fact that ICM-2060
  57:app.c         ****        ICM-20600 is mostly register compatible with MPU6500, if MPU6500 is used only thing that nee
  58:app.c         ****        to change is MPU6500_WHO_AM_I_ID from 0x11 to 0x70. */
  59:app.c         ****     mpu6500_install(I2C0);
  67              		.loc 1 59 5
  68 0046 37550040 		li	a0,1073762304
  69 004a 13050540 		addi	a0,a0,1024
  70 004e 97000000 		call	mpu6500_install
  70      E7800000 
  71              	.LVL3:
  60:app.c         ****     
  61:app.c         ****     /* Initialize LCD */
  62:app.c         ****     Lcd_SetType(LCD_INVERTED);
  72              		.loc 1 62 5
  73 0056 0545     		li	a0,1
  74 0058 97000000 		call	Lcd_SetType
  74      E7800000 
  75              	.LVL4:
  63:app.c         ****     Lcd_Init();
  76              		.loc 1 63 5
  77 0060 97000000 		call	Lcd_Init
  77      E7800000 
  78              	.LVL5:
  64:app.c         ****     LCD_Clear(BLACK);
  79              		.loc 1 64 5
  80 0068 0145     		li	a0,0
  81 006a 97000000 		call	LCD_Clear
  81      E7800000 
  82              	.LVL6:
  65:app.c         ****     
  66:app.c         ****     mpu6500_getAccel(&vec_temp);
  83              		.loc 1 66 5
  84 0072 4810     		addi	a0,sp,36
  67:app.c         ****     
  68:app.c         ****     while(1){
  69:app.c         ****         /* Get accelleration data (Note: Blocking read) puts a force vector with 1G = 4096 into x, 
  70:app.c         ****         mpu6500_getAccel(&vec);
  71:app.c         **** 
  72:app.c         ****         /* Do some fancy math to make a nice display */
  73:app.c         **** 
  74:app.c         ****         /* Green if pointing up, red if down */
  75:app.c         ****         line_color = (vec.z < 0) ? RED : GREEN;
  76:app.c         ****         /* Draw a unit circle (1G) */
  77:app.c         ****         Draw_Circle(160/2, 80/2, 28, BLUE);
  78:app.c         ****         /* Erase last line */
  79:app.c         ****         LCD_DrawLine(160/2, 80/2, (160/2)+(vec_temp.y)/(4096/28), (80/2)+(vec_temp.x/(4096/28)),BLA
GAS LISTING C:\Users\Uzair\AppData\Local\Temp\ccbqUkhV.s 			page 4


  85              		.loc 1 79 85 is_stmt 0
  86 0074 B7090000 		lui	s3,%hi(.LC0)
  66:app.c         ****     
  87              		.loc 1 66 5
  88 0078 97000000 		call	mpu6500_getAccel
  88      E7800000 
  89              	.LVL7:
  90              		.loc 1 79 73
  91 0080 370A0000 		lui	s4,%hi(.LC1)
  92              		.loc 1 79 85
  93 0084 83A40900 		lw	s1,%lo(.LC0)(s3)
  94              		.loc 1 79 42
  95 0088 37090000 		lui	s2,%hi(.LC2)
  96              		.loc 1 79 73
  97 008c 032C0A00 		lw	s8,%lo(.LC1)(s4)
  98              		.loc 1 79 42
  99 0090 032B0900 		lw	s6,%lo(.LC2)(s2)
 100              		.loc 1 79 55
 101 0094 A68B     		mv	s7,s1
  80:app.c         ****         /* Draw new line, scaled to the unit circle */
  81:app.c         ****         LCD_DrawLine(160/2, 80/2, (160/2)+(vec.y)/(4096/28), (80/2)+(vec.x/(4096/28)),line_color);
 102              		.loc 1 81 75
 103 0096 A68A     		mv	s5,s1
 104              	.L3:
  68:app.c         ****         /* Get accelleration data (Note: Blocking read) puts a force vector with 1G = 4096 into x, 
 105              		.loc 1 68 5 is_stmt 1
  70:app.c         **** 
 106              		.loc 1 70 9
 107 0098 2808     		addi	a0,sp,24
 108 009a 97000000 		call	mpu6500_getAccel
 108      E7800000 
 109              	.LVL8:
  75:app.c         ****         /* Draw a unit circle (1G) */
 110              		.loc 1 75 9
  75:app.c         ****         /* Draw a unit circle (1G) */
 111              		.loc 1 75 20 is_stmt 0
 112 00a2 0255     		lw	a0,32(sp)
 113 00a4 93050000 		mv	a1,zero
 114 00a8 1304007E 		li	s0,2016
 115 00ac 97000000 		call	__ltsf2
 115      E7800000 
 116              	.LVL9:
 117 00b4 63550500 		bge	a0,zero,.L2
 118 00b8 4164     		li	s0,65536
 119 00ba 13040480 		addi	s0,s0,-2048
 120              	.L2:
 121              	.LVL10:
  77:app.c         ****         /* Erase last line */
 122              		.loc 1 77 9 is_stmt 1 discriminator 4
 123 00be FD46     		li	a3,31
 124 00c0 7146     		li	a2,28
 125 00c2 93058002 		li	a1,40
 126 00c6 13050005 		li	a0,80
 127 00ca 97000000 		call	Draw_Circle
 127      E7800000 
 128              	.LVL11:
  79:app.c         ****         /* Draw new line, scaled to the unit circle */
GAS LISTING C:\Users\Uzair\AppData\Local\Temp\ccbqUkhV.s 			page 5


 129              		.loc 1 79 9 discriminator 4
  79:app.c         ****         /* Draw new line, scaled to the unit circle */
 130              		.loc 1 79 85 is_stmt 0 discriminator 4
 131 00d2 1255     		lw	a0,36(sp)
 132 00d4 A685     		mv	a1,s1
 133 00d6 97000000 		call	__divsf3
 133      E7800000 
 134              	.LVL12:
  79:app.c         ****         /* Draw new line, scaled to the unit circle */
 135              		.loc 1 79 73 discriminator 4
 136 00de E285     		mv	a1,s8
 137 00e0 97000000 		call	__addsf3
 137      E7800000 
 138              	.LVL13:
  79:app.c         ****         /* Draw new line, scaled to the unit circle */
 139              		.loc 1 79 9 discriminator 4
 140 00e8 97000000 		call	__fixunssfsi
 140      E7800000 
 141              	.LVL14:
 142 00f0 2AC6     		sw	a0,12(sp)
  79:app.c         ****         /* Draw new line, scaled to the unit circle */
 143              		.loc 1 79 55 discriminator 4
 144 00f2 2255     		lw	a0,40(sp)
 145 00f4 DE85     		mv	a1,s7
 146 00f6 97000000 		call	__divsf3
 146      E7800000 
 147              	.LVL15:
  79:app.c         ****         /* Draw new line, scaled to the unit circle */
 148              		.loc 1 79 42 discriminator 4
 149 00fe DA85     		mv	a1,s6
 150 0100 97000000 		call	__addsf3
 150      E7800000 
 151              	.LVL16:
  79:app.c         ****         /* Draw new line, scaled to the unit circle */
 152              		.loc 1 79 9 discriminator 4
 153 0108 97000000 		call	__fixunssfsi
 153      E7800000 
 154              	.LVL17:
 155 0110 B246     		lw	a3,12(sp)
 156 0112 2A86     		mv	a2,a0
 157 0114 0147     		li	a4,0
 158 0116 93058002 		li	a1,40
 159 011a 13050005 		li	a0,80
 160 011e 97000000 		call	LCD_DrawLine
 160      E7800000 
 161              	.LVL18:
 162              		.loc 1 81 9 is_stmt 1 discriminator 4
 163              		.loc 1 81 75 is_stmt 0 discriminator 4
 164 0126 6245     		lw	a0,24(sp)
 165 0128 D685     		mv	a1,s5
 166 012a 97000000 		call	__divsf3
 166      E7800000 
 167              	.LVL19:
 168              		.loc 1 81 68 discriminator 4
 169 0132 83250A00 		lw	a1,%lo(.LC1)(s4)
 170 0136 97000000 		call	__addsf3
 170      E7800000 
GAS LISTING C:\Users\Uzair\AppData\Local\Temp\ccbqUkhV.s 			page 6


 171              	.LVL20:
 172              		.loc 1 81 9 discriminator 4
 173 013e 97000000 		call	__fixunssfsi
 173      E7800000 
 174              	.LVL21:
 175              		.loc 1 81 50 discriminator 4
 176 0146 83A50900 		lw	a1,%lo(.LC0)(s3)
 177              		.loc 1 81 9 discriminator 4
 178 014a 2AC6     		sw	a0,12(sp)
 179              		.loc 1 81 50 discriminator 4
 180 014c 7245     		lw	a0,28(sp)
 181 014e 97000000 		call	__divsf3
 181      E7800000 
 182              	.LVL22:
 183              		.loc 1 81 42 discriminator 4
 184 0156 83250900 		lw	a1,%lo(.LC2)(s2)
 185 015a 97000000 		call	__addsf3
 185      E7800000 
 186              	.LVL23:
 187              		.loc 1 81 9 discriminator 4
 188 0162 97000000 		call	__fixunssfsi
 188      E7800000 
 189              	.LVL24:
 190 016a B246     		lw	a3,12(sp)
 191 016c 2287     		mv	a4,s0
 192 016e 2A86     		mv	a2,a0
 193 0170 93058002 		li	a1,40
 194 0174 13050005 		li	a0,80
 195 0178 97000000 		call	LCD_DrawLine
 195      E7800000 
 196              	.LVL25:
  82:app.c         ****         /* Store the last vector so it can be erased */
  83:app.c         ****         vec_temp = vec;
 197              		.loc 1 83 9 is_stmt 1 discriminator 4
 198              		.loc 1 83 18 is_stmt 0 discriminator 4
 199 0180 3146     		li	a2,12
 200 0182 2C08     		addi	a1,sp,24
 201 0184 4810     		addi	a0,sp,36
 202 0186 97000000 		call	memcpy
 202      E7800000 
 203              	.LVL26:
  84:app.c         ****         /* Wait for LCD to finish drawing */
  85:app.c         ****         LCD_Wait_On_Queue();
 204              		.loc 1 85 9 is_stmt 1 discriminator 4
 205 018e 97000000 		call	LCD_Wait_On_Queue
 205      E7800000 
 206              	.LVL27:
  70:app.c         **** 
 207              		.loc 1 70 9 is_stmt 0 discriminator 4
 208 0196 09B7     		j	.L3
 209              		.cfi_endproc
 210              	.LFE5:
 212              		.section	.rodata.main.cst4,"aM",@progbits,4
 213              		.align	2
 214              	.LC0:
 215 0000 00001243 		.word	1125253120
 216              	.LC1:
GAS LISTING C:\Users\Uzair\AppData\Local\Temp\ccbqUkhV.s 			page 7


 217 0004 00002042 		.word	1109393408
 218              	.LC2:
 219 0008 0000A042 		.word	1117782016
 220              		.text
 221              	.Letext0:
 222              		.file 2 "c:\\kth\\he1043\\toolchain-gd32v-v202-win\\toolchain-gd32v-v202-win\\compiler\\riscv64-un
 223              		.file 3 "c:\\kth\\he1043\\toolchain-gd32v-v202-win\\toolchain-gd32v-v202-win\\compiler\\riscv64-un
 224              		.file 4 "c:\\kth\\he1043\\toolchain-gd32v-v202-win\\toolchain-gd32v-v202-win\\compiler\\lib\\gcc\\
 225              		.file 5 "c:\\kth\\he1043\\toolchain-gd32v-v202-win\\toolchain-gd32v-v202-win\\compiler\\riscv64-un
 226              		.file 6 "c:\\kth\\he1043\\toolchain-gd32v-v202-win\\toolchain-gd32v-v202-win\\compiler\\riscv64-un
 227              		.file 7 "c:\\kth\\he1043\\toolchain-gd32v-v202-win\\toolchain-gd32v-v202-win\\compiler\\riscv64-un
 228              		.file 8 "./../../firmware/GD32VF103_standard_peripheral/system_gd32vf103.h"
 229              		.file 9 "c:\\kth\\he1043\\toolchain-gd32v-v202-win\\toolchain-gd32v-v202-win\\compiler\\riscv64-un
 230              		.file 10 "lcd.h"
 231              		.file 11 "lib/mpu6500/include/mpu6500_driver.h"
 232              		.file 12 "./../../firmware/GD32VF103_standard_peripheral/Include/gd32vf103_rcu.h"
 233              		.file 13 "./../../firmware/GD32VF103_standard_peripheral/Include/gd32vf103_gpio.h"
 234              		.file 14 "lib/mpu6500/include/gd32v_mpu6500_if.h"
 235              		.file 15 "<built-in>"
GAS LISTING C:\Users\Uzair\AppData\Local\Temp\ccbqUkhV.s 			page 8

