GAS LISTING C:\Users\Uzair\AppData\Local\Temp\ccENtFnC.s 			page 1


   1              		.file	"cdc_acm_core.c"
   2              		.option nopic
   3              		.attribute arch, "rv32i2p0_m2p0_a2p0_c2p0"
   4              		.attribute unaligned_access, 0
   5              		.attribute stack_align, 16
   6              		.text
   7              	.Ltext0:
   8              		.cfi_sections	.debug_frame
   9              		.comm	usb_data_buffer,64,4
  10              		.comm	usb_cmd_buffer,8,4
  11              		.globl	packet_sent
  12              		.globl	packet_receive
  13              		.globl	receive_length
  14              		.globl	rx_custom_cb
  15              		.globl	linecoding
  16              		.globl	device_descriptor
  17              		.globl	configuration_descriptor
  18              		.globl	usbd_language_id_desc
  19              		.globl	usbd_strings
  20              		.section	.text.cdc_acm_init,"ax",@progbits
  21              		.align	1
  22              		.globl	cdc_acm_init
  24              	cdc_acm_init:
  25              	.LFB3:
  26              		.file 1 "cdc_acm_core.c"
   1:cdc_acm_core.c **** /*!
   2:cdc_acm_core.c ****     \file  cdc_acm_core.c
   3:cdc_acm_core.c ****     \brief CDC ACM driver
   4:cdc_acm_core.c **** 
   5:cdc_acm_core.c ****     \version 2019-6-5, V1.0.0, demo for GD32VF103
   6:cdc_acm_core.c **** */
   7:cdc_acm_core.c **** 
   8:cdc_acm_core.c **** /*
   9:cdc_acm_core.c ****     Copyright (c) 2019, GigaDevice Semiconductor Inc.
  10:cdc_acm_core.c **** 
  11:cdc_acm_core.c ****     Redistribution and use in source and binary forms, with or without modification, 
  12:cdc_acm_core.c **** are permitted provided that the following conditions are met:
  13:cdc_acm_core.c **** 
  14:cdc_acm_core.c ****     1. Redistributions of source code must retain the above copyright notice, this 
  15:cdc_acm_core.c ****        list of conditions and the following disclaimer.
  16:cdc_acm_core.c ****     2. Redistributions in binary form must reproduce the above copyright notice, 
  17:cdc_acm_core.c ****        this list of conditions and the following disclaimer in the documentation 
  18:cdc_acm_core.c ****        and/or other materials provided with the distribution.
  19:cdc_acm_core.c ****     3. Neither the name of the copyright holder nor the names of its contributors 
  20:cdc_acm_core.c ****        may be used to endorse or promote products derived from this software without 
  21:cdc_acm_core.c ****        specific prior written permission.
  22:cdc_acm_core.c **** 
  23:cdc_acm_core.c ****     THIS SOFTWARE IS PROVIDED BY THE COPYRIGHT HOLDERS AND CONTRIBUTORS "AS IS" 
  24:cdc_acm_core.c **** AND ANY EXPRESS OR IMPLIED WARRANTIES, INCLUDING, BUT NOT LIMITED TO, THE IMPLIED 
  25:cdc_acm_core.c **** WARRANTIES OF MERCHANTABILITY AND FITNESS FOR A PARTICULAR PURPOSE ARE DISCLAIMED. 
  26:cdc_acm_core.c **** IN NO EVENT SHALL THE COPYRIGHT HOLDER OR CONTRIBUTORS BE LIABLE FOR ANY DIRECT, 
  27:cdc_acm_core.c **** INDIRECT, INCIDENTAL, SPECIAL, EXEMPLARY, OR CONSEQUENTIAL DAMAGES (INCLUDING, BUT 
  28:cdc_acm_core.c **** NOT LIMITED TO, PROCUREMENT OF SUBSTITUTE GOODS OR SERVICES; LOSS OF USE, DATA, OR 
  29:cdc_acm_core.c **** PROFITS; OR BUSINESS INTERRUPTION) HOWEVER CAUSED AND ON ANY THEORY OF LIABILITY, 
  30:cdc_acm_core.c **** WHETHER IN CONTRACT, STRICT LIABILITY, OR TORT (INCLUDING NEGLIGENCE OR OTHERWISE) 
  31:cdc_acm_core.c **** ARISING IN ANY WAY OUT OF THE USE OF THIS SOFTWARE, EVEN IF ADVISED OF THE POSSIBILITY 
  32:cdc_acm_core.c **** OF SUCH DAMAGE.
GAS LISTING C:\Users\Uzair\AppData\Local\Temp\ccENtFnC.s 			page 2


  33:cdc_acm_core.c **** */
  34:cdc_acm_core.c **** 
  35:cdc_acm_core.c **** #include "cdc_acm_core.h"
  36:cdc_acm_core.c **** 
  37:cdc_acm_core.c **** #include "riscv_encoding.h"
  38:cdc_acm_core.c **** 
  39:cdc_acm_core.c **** #define USBD_VID                          0x28e9
  40:cdc_acm_core.c **** #define USBD_PID                          0x018a
  41:cdc_acm_core.c **** 
  42:cdc_acm_core.c **** static uint32_t cdc_cmd = 0xFFU;
  43:cdc_acm_core.c **** 
  44:cdc_acm_core.c **** static uint32_t usb_serial_connected = 0;
  45:cdc_acm_core.c **** 
  46:cdc_acm_core.c **** 
  47:cdc_acm_core.c **** uint8_t usb_data_buffer[CDC_ACM_DATA_PACKET_SIZE];
  48:cdc_acm_core.c **** uint8_t usb_cmd_buffer[CDC_ACM_CMD_PACKET_SIZE];
  49:cdc_acm_core.c **** 
  50:cdc_acm_core.c **** __IO uint8_t packet_sent = 1U;
  51:cdc_acm_core.c **** __IO uint8_t packet_receive = 1U;
  52:cdc_acm_core.c **** __IO uint32_t  receive_length = 0U;
  53:cdc_acm_core.c **** 
  54:cdc_acm_core.c **** //usbd_int_cb_struct *usbd_int_fops = NULL;
  55:cdc_acm_core.c **** 
  56:cdc_acm_core.c **** 
  57:cdc_acm_core.c **** usb_rx_custom_cb rx_custom_cb = (usb_rx_custom_cb)NULL;
  58:cdc_acm_core.c **** 
  59:cdc_acm_core.c **** typedef struct
  60:cdc_acm_core.c **** {
  61:cdc_acm_core.c ****     uint32_t dwDTERate;   /* data terminal rate */
  62:cdc_acm_core.c ****     uint8_t  bCharFormat; /* stop bits */
  63:cdc_acm_core.c ****     uint8_t  bParityType; /* parity */
  64:cdc_acm_core.c ****     uint8_t  bDataBits;   /* data bits */
  65:cdc_acm_core.c **** }line_coding_struct;
  66:cdc_acm_core.c **** 
  67:cdc_acm_core.c **** line_coding_struct linecoding =
  68:cdc_acm_core.c **** {
  69:cdc_acm_core.c ****     115200, /* baud rate     */
  70:cdc_acm_core.c ****     0x00,   /* stop bits - 1 */
  71:cdc_acm_core.c ****     0x00,   /* parity - none */
  72:cdc_acm_core.c ****     0x08    /* num of bits 8 */
  73:cdc_acm_core.c **** };
  74:cdc_acm_core.c **** 
  75:cdc_acm_core.c **** /* note:it should use the C99 standard when compiling the below codes */
  76:cdc_acm_core.c **** /* USB standard device descriptor */
  77:cdc_acm_core.c **** const usb_desc_dev device_descriptor =
  78:cdc_acm_core.c **** {
  79:cdc_acm_core.c ****     .header = 
  80:cdc_acm_core.c ****      {
  81:cdc_acm_core.c ****          .bLength = USB_DEV_DESC_LEN, 
  82:cdc_acm_core.c ****          .bDescriptorType = USB_DESCTYPE_DEV
  83:cdc_acm_core.c ****      },
  84:cdc_acm_core.c ****     .bcdUSB = 0x0200,
  85:cdc_acm_core.c ****     .bDeviceClass = 0x02,  // Communications and CDC Control
  86:cdc_acm_core.c ****     .bDeviceSubClass = 0x00,
  87:cdc_acm_core.c ****     .bDeviceProtocol = 0x00,
  88:cdc_acm_core.c ****     .bMaxPacketSize0 = USB_FS_EP0_MAX_LEN,
  89:cdc_acm_core.c ****     .idVendor = USBD_VID,
GAS LISTING C:\Users\Uzair\AppData\Local\Temp\ccENtFnC.s 			page 3


  90:cdc_acm_core.c ****     .idProduct = USBD_PID,
  91:cdc_acm_core.c ****     .bcdDevice = 0x0100,
  92:cdc_acm_core.c ****     .iManufacturer = STR_IDX_MFC,
  93:cdc_acm_core.c ****     .iProduct = STR_IDX_PRODUCT,
  94:cdc_acm_core.c ****     .iSerialNumber = STR_IDX_SERIAL,
  95:cdc_acm_core.c ****     .bNumberConfigurations = USBD_CFG_MAX_NUM
  96:cdc_acm_core.c **** };
  97:cdc_acm_core.c **** 
  98:cdc_acm_core.c **** /* USB device configuration descriptor */
  99:cdc_acm_core.c **** usb_descriptor_configuration_set_struct configuration_descriptor = 
 100:cdc_acm_core.c **** {
 101:cdc_acm_core.c ****     .config = 
 102:cdc_acm_core.c ****     {
 103:cdc_acm_core.c ****         .header = 
 104:cdc_acm_core.c ****          {
 105:cdc_acm_core.c ****             .bLength = USB_CFG_DESC_LEN,
 106:cdc_acm_core.c ****             .bDescriptorType = USB_DESCTYPE_CONFIG
 107:cdc_acm_core.c ****          },
 108:cdc_acm_core.c ****         .wTotalLength = USB_CDC_ACM_CONFIG_DESC_SIZE,
 109:cdc_acm_core.c ****         .bNumInterfaces = 0x02,
 110:cdc_acm_core.c ****         .bConfigurationValue = 0x01,
 111:cdc_acm_core.c ****         .iConfiguration = 0x00,
 112:cdc_acm_core.c ****         .bmAttributes = 0x80,
 113:cdc_acm_core.c ****         .bMaxPower = 0x32
 114:cdc_acm_core.c ****     },
 115:cdc_acm_core.c **** 
 116:cdc_acm_core.c ****     .cdc_loopback_interface = 
 117:cdc_acm_core.c ****     {
 118:cdc_acm_core.c ****         .header = 
 119:cdc_acm_core.c ****          {
 120:cdc_acm_core.c ****              .bLength = USB_ITF_DESC_LEN,
 121:cdc_acm_core.c ****              .bDescriptorType = USB_DESCTYPE_ITF 
 122:cdc_acm_core.c ****          },
 123:cdc_acm_core.c ****         .bInterfaceNumber = 0x00,
 124:cdc_acm_core.c ****         .bAlternateSetting = 0x00,
 125:cdc_acm_core.c ****         .bNumEndpoints = 0x01,
 126:cdc_acm_core.c ****         .bInterfaceClass = 0x02,     // Communications Interface Class
 127:cdc_acm_core.c ****         .bInterfaceSubClass = 0x02,  // Abstract Control Model
 128:cdc_acm_core.c ****         .bInterfaceProtocol = 0x00,  // No class specific protocol required
 129:cdc_acm_core.c ****         .iInterface = 0x00
 130:cdc_acm_core.c ****     },
 131:cdc_acm_core.c **** 
 132:cdc_acm_core.c ****     .cdc_loopback_header = 
 133:cdc_acm_core.c ****     {
 134:cdc_acm_core.c ****         .header =
 135:cdc_acm_core.c ****          {
 136:cdc_acm_core.c ****             .bLength = sizeof(usb_descriptor_header_function_struct), 
 137:cdc_acm_core.c ****             .bDescriptorType = USB_DESCTYPE_CS_INTERFACE
 138:cdc_acm_core.c ****          },
 139:cdc_acm_core.c ****         .bDescriptorSubtype = 0x00,
 140:cdc_acm_core.c ****         .bcdCDC = 0x0110
 141:cdc_acm_core.c ****     },
 142:cdc_acm_core.c **** 
 143:cdc_acm_core.c ****     .cdc_loopback_call_managment = 
 144:cdc_acm_core.c ****     {
 145:cdc_acm_core.c ****         .header = 
 146:cdc_acm_core.c ****          {
GAS LISTING C:\Users\Uzair\AppData\Local\Temp\ccENtFnC.s 			page 4


 147:cdc_acm_core.c ****             .bLength = sizeof(usb_descriptor_call_managment_function_struct), 
 148:cdc_acm_core.c ****             .bDescriptorType = USB_DESCTYPE_CS_INTERFACE
 149:cdc_acm_core.c ****          },
 150:cdc_acm_core.c ****         .bDescriptorSubtype = 0x01,
 151:cdc_acm_core.c ****         .bmCapabilities = 0x00,
 152:cdc_acm_core.c ****         .bDataInterface = 0x01
 153:cdc_acm_core.c ****     },
 154:cdc_acm_core.c **** 
 155:cdc_acm_core.c ****     .cdc_loopback_acm = 
 156:cdc_acm_core.c ****     {
 157:cdc_acm_core.c ****         .header = 
 158:cdc_acm_core.c ****          {
 159:cdc_acm_core.c ****             .bLength = sizeof(usb_descriptor_acm_function_struct), 
 160:cdc_acm_core.c ****             .bDescriptorType = USB_DESCTYPE_CS_INTERFACE
 161:cdc_acm_core.c ****          },
 162:cdc_acm_core.c ****         .bDescriptorSubtype = 0x02,
 163:cdc_acm_core.c ****         .bmCapabilities = 0x02,
 164:cdc_acm_core.c ****     },
 165:cdc_acm_core.c **** 
 166:cdc_acm_core.c ****     .cdc_loopback_union = 
 167:cdc_acm_core.c ****     {
 168:cdc_acm_core.c ****         .header = 
 169:cdc_acm_core.c ****          {
 170:cdc_acm_core.c ****             .bLength = sizeof(usb_descriptor_union_function_struct), 
 171:cdc_acm_core.c ****             .bDescriptorType = USB_DESCTYPE_CS_INTERFACE
 172:cdc_acm_core.c ****          },
 173:cdc_acm_core.c ****         .bDescriptorSubtype = 0x06,
 174:cdc_acm_core.c ****         .bMasterInterface = 0x00,
 175:cdc_acm_core.c ****         .bSlaveInterface0 = 0x01,
 176:cdc_acm_core.c ****     },
 177:cdc_acm_core.c **** 
 178:cdc_acm_core.c ****     .cdc_loopback_cmd_endpoint = 
 179:cdc_acm_core.c ****     {
 180:cdc_acm_core.c ****         .header = 
 181:cdc_acm_core.c ****          {
 182:cdc_acm_core.c ****             .bLength = USB_EP_DESC_LEN, 
 183:cdc_acm_core.c ****             .bDescriptorType = USB_DESCTYPE_EP
 184:cdc_acm_core.c ****          },
 185:cdc_acm_core.c ****         .bEndpointAddress = CDC_ACM_CMD_EP,
 186:cdc_acm_core.c ****         .bmAttributes = 0x03,
 187:cdc_acm_core.c ****         .wMaxPacketSize = CDC_ACM_CMD_PACKET_SIZE,
 188:cdc_acm_core.c ****         .bInterval = 0x0A
 189:cdc_acm_core.c ****     },
 190:cdc_acm_core.c **** 
 191:cdc_acm_core.c ****     .cdc_loopback_data_interface = 
 192:cdc_acm_core.c ****     {
 193:cdc_acm_core.c ****         .header = 
 194:cdc_acm_core.c ****          {
 195:cdc_acm_core.c ****             .bLength = USB_ITF_DESC_LEN,
 196:cdc_acm_core.c ****             .bDescriptorType = USB_DESCTYPE_ITF
 197:cdc_acm_core.c ****          },
 198:cdc_acm_core.c ****         .bInterfaceNumber = 0x01,
 199:cdc_acm_core.c ****         .bAlternateSetting = 0x00,
 200:cdc_acm_core.c ****         .bNumEndpoints = 0x02,
 201:cdc_acm_core.c ****         .bInterfaceClass = 0x0A,     // Data Interface Class
 202:cdc_acm_core.c ****         .bInterfaceSubClass = 0x00,  // unused
 203:cdc_acm_core.c ****         .bInterfaceProtocol = 0x00,  // No class specific protocol required
GAS LISTING C:\Users\Uzair\AppData\Local\Temp\ccENtFnC.s 			page 5


 204:cdc_acm_core.c ****         .iInterface = 0x00
 205:cdc_acm_core.c ****     },
 206:cdc_acm_core.c **** 
 207:cdc_acm_core.c ****     .cdc_loopback_out_endpoint = 
 208:cdc_acm_core.c ****     {
 209:cdc_acm_core.c ****         .header = 
 210:cdc_acm_core.c ****          {
 211:cdc_acm_core.c ****              .bLength = USB_EP_DESC_LEN, 
 212:cdc_acm_core.c ****              .bDescriptorType = USB_DESCTYPE_EP 
 213:cdc_acm_core.c ****          },
 214:cdc_acm_core.c ****         .bEndpointAddress = CDC_ACM_DATA_OUT_EP,
 215:cdc_acm_core.c ****         .bmAttributes = 0x02,
 216:cdc_acm_core.c ****         .wMaxPacketSize = CDC_ACM_DATA_PACKET_SIZE,
 217:cdc_acm_core.c ****         .bInterval = 0x00
 218:cdc_acm_core.c ****     },
 219:cdc_acm_core.c **** 
 220:cdc_acm_core.c ****     .cdc_loopback_in_endpoint = 
 221:cdc_acm_core.c ****     {
 222:cdc_acm_core.c ****         .header = 
 223:cdc_acm_core.c ****          {
 224:cdc_acm_core.c ****              .bLength = USB_EP_DESC_LEN, 
 225:cdc_acm_core.c ****              .bDescriptorType = USB_DESCTYPE_EP 
 226:cdc_acm_core.c ****          },
 227:cdc_acm_core.c ****         .bEndpointAddress = CDC_ACM_DATA_IN_EP,
 228:cdc_acm_core.c ****         .bmAttributes = 0x02,
 229:cdc_acm_core.c ****         .wMaxPacketSize = CDC_ACM_DATA_PACKET_SIZE,
 230:cdc_acm_core.c ****         .bInterval = 0x00
 231:cdc_acm_core.c ****     }
 232:cdc_acm_core.c **** };
 233:cdc_acm_core.c **** 
 234:cdc_acm_core.c **** /* USB language ID Descriptor */
 235:cdc_acm_core.c **** const usb_desc_LANGID usbd_language_id_desc = 
 236:cdc_acm_core.c **** {
 237:cdc_acm_core.c ****     .header = 
 238:cdc_acm_core.c ****      {
 239:cdc_acm_core.c ****          .bLength = sizeof(usb_desc_LANGID), 
 240:cdc_acm_core.c ****          .bDescriptorType = USB_DESCTYPE_STR
 241:cdc_acm_core.c ****      },
 242:cdc_acm_core.c ****     .wLANGID = ENG_LANGID
 243:cdc_acm_core.c **** };
 244:cdc_acm_core.c **** 
 245:cdc_acm_core.c **** void* const usbd_strings[] = 
 246:cdc_acm_core.c **** {
 247:cdc_acm_core.c ****     [STR_IDX_LANGID] = (uint8_t *)&usbd_language_id_desc,
 248:cdc_acm_core.c ****     [STR_IDX_MFC] = USBD_STRING_DESC("GigaDevice"),
 249:cdc_acm_core.c ****     [STR_IDX_PRODUCT] = USBD_STRING_DESC("GD32 USB CDC ACM in FS Mode"),
 250:cdc_acm_core.c ****     [STR_IDX_SERIAL] = USBD_STRING_DESC("GD32XXX-3.0.0-7z8x9yer")
 251:cdc_acm_core.c **** };
 252:cdc_acm_core.c **** 
 253:cdc_acm_core.c **** /*!
 254:cdc_acm_core.c ****     \brief      initialize the CDC ACM device
 255:cdc_acm_core.c ****     \param[in]  pudev: pointer to USB device instance
 256:cdc_acm_core.c ****     \param[in]  config_index: configuration index
 257:cdc_acm_core.c ****     \param[out] none
 258:cdc_acm_core.c ****     \retval     USB device operation status
 259:cdc_acm_core.c **** */
 260:cdc_acm_core.c **** uint8_t cdc_acm_init (usb_dev *pudev, uint8_t config_index)
GAS LISTING C:\Users\Uzair\AppData\Local\Temp\ccENtFnC.s 			page 6


 261:cdc_acm_core.c **** {
  27              		.loc 1 261 1
  28              		.cfi_startproc
  29              	.LVL0:
 262:cdc_acm_core.c ****     /* initialize the data Tx/Rx endpoint */
 263:cdc_acm_core.c ****     usbd_ep_setup(pudev, &(configuration_descriptor.cdc_loopback_in_endpoint));
  30              		.loc 1 263 5
 261:cdc_acm_core.c ****     /* initialize the data Tx/Rx endpoint */
  31              		.loc 1 261 1 is_stmt 0
  32 0000 4111     		addi	sp,sp,-16
  33              	.LCFI0:
  34              		.cfi_def_cfa_offset 16
  35 0002 22C4     		sw	s0,8(sp)
  36              		.cfi_offset 8, -8
  37              		.loc 1 263 5
  38 0004 37040000 		lui	s0,%hi(.LANCHOR0)
  39 0008 13040400 		addi	s0,s0,%lo(.LANCHOR0)
  40 000c 9305C403 		addi	a1,s0,60
  41              	.LVL1:
 261:cdc_acm_core.c ****     /* initialize the data Tx/Rx endpoint */
  42              		.loc 1 261 1
  43 0010 06C6     		sw	ra,12(sp)
  44 0012 26C2     		sw	s1,4(sp)
  45              		.cfi_offset 1, -4
  46              		.cfi_offset 9, -12
 261:cdc_acm_core.c ****     /* initialize the data Tx/Rx endpoint */
  47              		.loc 1 261 1
  48 0014 AA84     		mv	s1,a0
  49              		.loc 1 263 5
  50 0016 97000000 		call	usbd_ep_setup
  50      E7800000 
  51              	.LVL2:
 264:cdc_acm_core.c ****     usbd_ep_setup(pudev, &(configuration_descriptor.cdc_loopback_out_endpoint));
  52              		.loc 1 264 5 is_stmt 1
  53 001e 93055403 		addi	a1,s0,53
  54 0022 2685     		mv	a0,s1
  55 0024 97000000 		call	usbd_ep_setup
  55      E7800000 
  56              	.LVL3:
 265:cdc_acm_core.c **** 
 266:cdc_acm_core.c ****     /* initialize the command Tx endpoint */
 267:cdc_acm_core.c ****     usbd_ep_setup(pudev, &(configuration_descriptor.cdc_loopback_cmd_endpoint));
  57              		.loc 1 267 5
  58 002c 93055402 		addi	a1,s0,37
  59 0030 2685     		mv	a0,s1
  60 0032 97000000 		call	usbd_ep_setup
  60      E7800000 
  61              	.LVL4:
 268:cdc_acm_core.c **** 
 269:cdc_acm_core.c ****     return USBD_OK;
  62              		.loc 1 269 5
 270:cdc_acm_core.c **** }
  63              		.loc 1 270 1 is_stmt 0
  64 003a B240     		lw	ra,12(sp)
  65              		.cfi_restore 1
  66 003c 2244     		lw	s0,8(sp)
  67              		.cfi_restore 8
GAS LISTING C:\Users\Uzair\AppData\Local\Temp\ccENtFnC.s 			page 7


  68 003e 9244     		lw	s1,4(sp)
  69              		.cfi_restore 9
  70              	.LVL5:
  71 0040 0145     		li	a0,0
  72 0042 4101     		addi	sp,sp,16
  73              	.LCFI1:
  74              		.cfi_def_cfa_offset 0
  75 0044 8280     		jr	ra
  76              		.cfi_endproc
  77              	.LFE3:
  79              		.section	.text.cdc_acm_deinit,"ax",@progbits
  80              		.align	1
  81              		.globl	cdc_acm_deinit
  83              	cdc_acm_deinit:
  84              	.LFB4:
 271:cdc_acm_core.c **** 
 272:cdc_acm_core.c **** /*!
 273:cdc_acm_core.c ****     \brief      de-initialize the CDC ACM device
 274:cdc_acm_core.c ****     \param[in]  pudev: pointer to USB device instance
 275:cdc_acm_core.c ****     \param[in]  config_index: configuration index
 276:cdc_acm_core.c ****     \param[out] none
 277:cdc_acm_core.c ****     \retval     USB device operation status
 278:cdc_acm_core.c **** */
 279:cdc_acm_core.c **** uint8_t cdc_acm_deinit (usb_dev *pudev, uint8_t config_index)
 280:cdc_acm_core.c **** {
  85              		.loc 1 280 1 is_stmt 1
  86              		.cfi_startproc
  87              	.LVL6:
 281:cdc_acm_core.c ****     /* deinitialize the data Tx/Rx endpoint */
 282:cdc_acm_core.c ****     usbd_ep_clear(pudev, CDC_ACM_DATA_IN_EP);
  88              		.loc 1 282 5
 280:cdc_acm_core.c ****     /* deinitialize the data Tx/Rx endpoint */
  89              		.loc 1 280 1 is_stmt 0
  90 0000 4111     		addi	sp,sp,-16
  91              	.LCFI2:
  92              		.cfi_def_cfa_offset 16
  93              		.loc 1 282 5
  94 0002 93051008 		li	a1,129
  95              	.LVL7:
 280:cdc_acm_core.c ****     /* deinitialize the data Tx/Rx endpoint */
  96              		.loc 1 280 1
  97 0006 06C6     		sw	ra,12(sp)
  98 0008 22C4     		sw	s0,8(sp)
  99              		.cfi_offset 1, -4
 100              		.cfi_offset 8, -8
 280:cdc_acm_core.c ****     /* deinitialize the data Tx/Rx endpoint */
 101              		.loc 1 280 1
 102 000a 2A84     		mv	s0,a0
 103              		.loc 1 282 5
 104 000c 97000000 		call	usbd_ep_clear
 104      E7800000 
 105              	.LVL8:
 283:cdc_acm_core.c ****     usbd_ep_clear(pudev, CDC_ACM_DATA_OUT_EP);
 106              		.loc 1 283 5 is_stmt 1
 107 0014 8D45     		li	a1,3
 108 0016 2285     		mv	a0,s0
 109 0018 97000000 		call	usbd_ep_clear
GAS LISTING C:\Users\Uzair\AppData\Local\Temp\ccENtFnC.s 			page 8


 109      E7800000 
 110              	.LVL9:
 284:cdc_acm_core.c **** 
 285:cdc_acm_core.c ****     /* deinitialize the command Tx endpoint */
 286:cdc_acm_core.c ****     usbd_ep_clear(pudev, CDC_ACM_CMD_EP);
 111              		.loc 1 286 5
 112 0020 2285     		mv	a0,s0
 113 0022 93052008 		li	a1,130
 114 0026 97000000 		call	usbd_ep_clear
 114      E7800000 
 115              	.LVL10:
 287:cdc_acm_core.c **** 
 288:cdc_acm_core.c ****     return USBD_OK;
 116              		.loc 1 288 5
 289:cdc_acm_core.c **** }
 117              		.loc 1 289 1 is_stmt 0
 118 002e B240     		lw	ra,12(sp)
 119              		.cfi_restore 1
 120 0030 2244     		lw	s0,8(sp)
 121              		.cfi_restore 8
 122              	.LVL11:
 123 0032 0145     		li	a0,0
 124 0034 4101     		addi	sp,sp,16
 125              	.LCFI3:
 126              		.cfi_def_cfa_offset 0
 127 0036 8280     		jr	ra
 128              		.cfi_endproc
 129              	.LFE4:
 131              		.section	.text.cdc_acm_data_out_handler,"ax",@progbits
 132              		.align	1
 133              		.globl	cdc_acm_data_out_handler
 135              	cdc_acm_data_out_handler:
 136              	.LFB5:
 290:cdc_acm_core.c **** 
 291:cdc_acm_core.c **** /*!
 292:cdc_acm_core.c ****     \brief      handle CDC ACM data
 293:cdc_acm_core.c ****     \param[in]  pudev: pointer to USB device instance
 294:cdc_acm_core.c ****     \param[in]  rx_tx: data transfer direction:
 295:cdc_acm_core.c ****       \arg        USBD_TX
 296:cdc_acm_core.c ****       \arg        USBD_RX
 297:cdc_acm_core.c ****     \param[in]  ep_id: endpoint identifier
 298:cdc_acm_core.c ****     \param[out] none
 299:cdc_acm_core.c ****     \retval     USB device operation status
 300:cdc_acm_core.c **** */
 301:cdc_acm_core.c **** uint8_t cdc_acm_data_out_handler (usb_dev *pudev, uint8_t ep_id)
 302:cdc_acm_core.c **** {
 137              		.loc 1 302 1 is_stmt 1
 138              		.cfi_startproc
 139              	.LVL12:
 303:cdc_acm_core.c ****     if ((EP0_OUT & 0x7F) == ep_id) 
 140              		.loc 1 303 5
 302:cdc_acm_core.c ****     if ((EP0_OUT & 0x7F) == ep_id) 
 141              		.loc 1 302 1 is_stmt 0
 142 0000 4111     		addi	sp,sp,-16
 143              	.LCFI4:
 144              		.cfi_def_cfa_offset 16
 145 0002 06C6     		sw	ra,12(sp)
GAS LISTING C:\Users\Uzair\AppData\Local\Temp\ccENtFnC.s 			page 9


 146              		.cfi_offset 1, -4
 147              		.loc 1 303 8
 148 0004 91E9     		bne	a1,zero,.L6
 304:cdc_acm_core.c ****     {
 305:cdc_acm_core.c ****         cdc_acm_EP0_RxReady (pudev);
 149              		.loc 1 305 9 is_stmt 1
 150 0006 97000000 		call	cdc_acm_EP0_RxReady
 150      E7800000 
 151              	.LVL13:
 306:cdc_acm_core.c ****         /*if(rx_custom_cb != NULL){
 307:cdc_acm_core.c ****             rx_custom_cb();
 308:cdc_acm_core.c ****         }*/
 309:cdc_acm_core.c ****     } 
 310:cdc_acm_core.c ****     else if ((CDC_ACM_DATA_OUT_EP & 0x7F) == ep_id) 
 311:cdc_acm_core.c ****     {
 312:cdc_acm_core.c ****         packet_receive = 1;
 313:cdc_acm_core.c ****         receive_length = usbd_rxcount_get(pudev, CDC_ACM_DATA_OUT_EP);
 314:cdc_acm_core.c ****         if(rx_custom_cb != NULL){
 315:cdc_acm_core.c ****             rx_custom_cb();
 316:cdc_acm_core.c ****         }
 317:cdc_acm_core.c **** 
 318:cdc_acm_core.c ****         return USBD_OK;
 319:cdc_acm_core.c ****     }
 320:cdc_acm_core.c ****     return USBD_FAIL;
 152              		.loc 1 320 12 is_stmt 0
 153 000e 8947     		li	a5,2
 154              	.L7:
 321:cdc_acm_core.c **** }
 155              		.loc 1 321 1
 156 0010 B240     		lw	ra,12(sp)
 157              		.cfi_remember_state
 158              		.cfi_restore 1
 159 0012 3E85     		mv	a0,a5
 160 0014 4101     		addi	sp,sp,16
 161              	.LCFI5:
 162              		.cfi_def_cfa_offset 0
 163 0016 8280     		jr	ra
 164              	.LVL14:
 165              	.L6:
 166              	.LCFI6:
 167              		.cfi_restore_state
 310:cdc_acm_core.c ****     {
 168              		.loc 1 310 10 is_stmt 1
 310:cdc_acm_core.c ****     {
 169              		.loc 1 310 13 is_stmt 0
 170 0018 8D46     		li	a3,3
 320:cdc_acm_core.c **** }
 171              		.loc 1 320 12
 172 001a 8947     		li	a5,2
 310:cdc_acm_core.c ****     {
 173              		.loc 1 310 13
 174 001c E39AD5FE 		bne	a1,a3,.L7
 175              	.LVL15:
 176              	.LBB5:
 177              	.LBB6:
 312:cdc_acm_core.c ****         receive_length = usbd_rxcount_get(pudev, CDC_ACM_DATA_OUT_EP);
 178              		.loc 1 312 9 is_stmt 1
GAS LISTING C:\Users\Uzair\AppData\Local\Temp\ccENtFnC.s 			page 10


 312:cdc_acm_core.c ****         receive_length = usbd_rxcount_get(pudev, CDC_ACM_DATA_OUT_EP);
 179              		.loc 1 312 24 is_stmt 0
 180 0020 B7070000 		lui	a5,%hi(.LANCHOR1)
 181 0024 0547     		li	a4,1
 182 0026 2380E700 		sb	a4,%lo(.LANCHOR1)(a5)
 313:cdc_acm_core.c ****         if(rx_custom_cb != NULL){
 183              		.loc 1 313 9 is_stmt 1
 313:cdc_acm_core.c ****         if(rx_custom_cb != NULL){
 184              		.loc 1 313 26 is_stmt 0
 185 002a 97000000 		call	usbd_rxcount_get
 185      E7800000 
 186              	.LVL16:
 313:cdc_acm_core.c ****         if(rx_custom_cb != NULL){
 187              		.loc 1 313 24
 188 0032 B7070000 		lui	a5,%hi(.LANCHOR2)
 189 0036 23A0A700 		sw	a0,%lo(.LANCHOR2)(a5)
 314:cdc_acm_core.c ****             rx_custom_cb();
 190              		.loc 1 314 9 is_stmt 1
 314:cdc_acm_core.c ****             rx_custom_cb();
 191              		.loc 1 314 25 is_stmt 0
 192 003a B7070000 		lui	a5,%hi(.LANCHOR3)
 193 003e 03A70700 		lw	a4,%lo(.LANCHOR3)(a5)
 314:cdc_acm_core.c ****             rx_custom_cb();
 194              		.loc 1 314 11
 195 0042 8147     		li	a5,0
 196 0044 71D7     		beq	a4,zero,.L7
 315:cdc_acm_core.c ****         }
 197              		.loc 1 315 13 is_stmt 1
 198 0046 0297     		jalr	a4
 199              	.LVL17:
 200 0048 8147     		li	a5,0
 201 004a D9B7     		j	.L7
 202              	.LBE6:
 203              	.LBE5:
 204              		.cfi_endproc
 205              	.LFE5:
 207              		.section	.text.cdc_acm_data_in_handler,"ax",@progbits
 208              		.align	1
 209              		.globl	cdc_acm_data_in_handler
 211              	cdc_acm_data_in_handler:
 212              	.LFB6:
 322:cdc_acm_core.c **** 
 323:cdc_acm_core.c **** uint8_t cdc_acm_data_in_handler (usb_dev *pudev, uint8_t ep_id)
 324:cdc_acm_core.c **** {
 213              		.loc 1 324 1
 214              		.cfi_startproc
 215              	.LVL18:
 325:cdc_acm_core.c ****     if ((CDC_ACM_DATA_IN_EP & 0x7F) == ep_id) 
 216              		.loc 1 325 5
 217              		.loc 1 325 8 is_stmt 0
 218 0000 0547     		li	a4,1
 219 0002 639DE502 		bne	a1,a4,.L14
 220              	.LVL19:
 221              	.LBB10:
 222              	.LBB11:
 326:cdc_acm_core.c ****     {
 327:cdc_acm_core.c ****         usb_transc *transc = &pudev->dev.transc_in[EP_ID(ep_id)];
GAS LISTING C:\Users\Uzair\AppData\Local\Temp\ccENtFnC.s 			page 11


 223              		.loc 1 327 9 is_stmt 1
 328:cdc_acm_core.c **** 
 329:cdc_acm_core.c ****         if ((transc->xfer_len % transc->max_len == 0) && (transc->xfer_len != 0)) {
 224              		.loc 1 329 9
 225              		.loc 1 329 20 is_stmt 0
 226 0006 0327050F 		lw	a4,240(a0)
 227              		.loc 1 329 39
 228 000a 8357850E 		lhu	a5,232(a0)
 229              		.loc 1 329 31
 230 000e B377F702 		remu	a5,a4,a5
 231              		.loc 1 329 12
 232 0012 91EF     		bne	a5,zero,.L13
 233              		.loc 1 329 55
 234 0014 09CF     		beq	a4,zero,.L13
 330:cdc_acm_core.c ****             usbd_ep_send (pudev, ep_id, NULL, 0U);
 235              		.loc 1 330 13 is_stmt 1
 236              	.LBE11:
 237              	.LBE10:
 324:cdc_acm_core.c ****     if ((CDC_ACM_DATA_IN_EP & 0x7F) == ep_id) 
 238              		.loc 1 324 1 is_stmt 0
 239 0016 4111     		addi	sp,sp,-16
 240              	.LCFI7:
 241              		.cfi_def_cfa_offset 16
 242              	.LBB16:
 243              	.LBB12:
 244              		.loc 1 330 13
 245 0018 8146     		li	a3,0
 246 001a 0146     		li	a2,0
 247              	.LBE12:
 248              	.LBE16:
 324:cdc_acm_core.c ****     if ((CDC_ACM_DATA_IN_EP & 0x7F) == ep_id) 
 249              		.loc 1 324 1
 250 001c 06C6     		sw	ra,12(sp)
 251              		.cfi_offset 1, -4
 252              	.LBB17:
 253              	.LBB13:
 254              		.loc 1 330 13
 255 001e 97000000 		call	usbd_ep_send
 255      E7800000 
 256              	.LVL20:
 257              	.LBE13:
 258              	.LBE17:
 331:cdc_acm_core.c ****         } else {
 332:cdc_acm_core.c ****             packet_sent = 1;
 333:cdc_acm_core.c ****         }
 334:cdc_acm_core.c ****         return USBD_OK;
 335:cdc_acm_core.c ****     } 
 336:cdc_acm_core.c ****     return USBD_FAIL;
 337:cdc_acm_core.c **** }
 259              		.loc 1 337 1
 260 0026 B240     		lw	ra,12(sp)
 261              		.cfi_restore 1
 262              	.LBB18:
 263              	.LBB14:
 330:cdc_acm_core.c ****         } else {
 264              		.loc 1 330 13
 265 0028 0145     		li	a0,0
GAS LISTING C:\Users\Uzair\AppData\Local\Temp\ccENtFnC.s 			page 12


 266              	.LBE14:
 267              	.LBE18:
 268              		.loc 1 337 1
 269 002a 4101     		addi	sp,sp,16
 270              	.LCFI8:
 271              		.cfi_def_cfa_offset 0
 272 002c 8280     		jr	ra
 273              	.LVL21:
 274              	.L13:
 275              	.LBB19:
 276              	.LBB15:
 332:cdc_acm_core.c ****         }
 277              		.loc 1 332 13 is_stmt 1
 332:cdc_acm_core.c ****         }
 278              		.loc 1 332 25 is_stmt 0
 279 002e B7070000 		lui	a5,%hi(.LANCHOR4)
 280 0032 0547     		li	a4,1
 281 0034 2380E700 		sb	a4,%lo(.LANCHOR4)(a5)
 282 0038 0145     		li	a0,0
 283              	.LVL22:
 284 003a 8280     		ret
 285              	.LVL23:
 286              	.L14:
 287              	.LBE15:
 288              	.LBE19:
 336:cdc_acm_core.c **** }
 289              		.loc 1 336 12
 290 003c 0945     		li	a0,2
 291              	.LVL24:
 292              		.loc 1 337 1
 293 003e 8280     		ret
 294              		.cfi_endproc
 295              	.LFE6:
 297              		.section	.text.cdc_acm_req_handler,"ax",@progbits
 298              		.align	1
 299              		.globl	cdc_acm_req_handler
 301              	cdc_acm_req_handler:
 302              	.LFB7:
 338:cdc_acm_core.c **** 
 339:cdc_acm_core.c **** 
 340:cdc_acm_core.c **** /*!
 341:cdc_acm_core.c ****     \brief      handle the CDC ACM class-specific requests
 342:cdc_acm_core.c ****     \param[in]  pudev: pointer to USB device instance
 343:cdc_acm_core.c ****     \param[in]  req: device class-specific request
 344:cdc_acm_core.c ****     \param[out] none
 345:cdc_acm_core.c ****     \retval     USB device operation status
 346:cdc_acm_core.c **** */
 347:cdc_acm_core.c **** uint8_t cdc_acm_req_handler (usb_dev *pudev, usb_req *req)
 348:cdc_acm_core.c **** {
 303              		.loc 1 348 1 is_stmt 1
 304              		.cfi_startproc
 305              	.LVL25:
 349:cdc_acm_core.c ****     switch (req->bRequest) 
 306              		.loc 1 349 5
 307              		.loc 1 349 16 is_stmt 0
 308 0000 83C71500 		lbu	a5,1(a1)
 309              		.loc 1 349 5
GAS LISTING C:\Users\Uzair\AppData\Local\Temp\ccENtFnC.s 			page 13


 310 0004 13071002 		li	a4,33
 311 0008 6386E702 		beq	a5,a4,.L23
 312 000c 13072002 		li	a4,34
 313 0010 638FE706 		beq	a5,a4,.L24
 314 0014 13070002 		li	a4,32
 315 0018 639CE700 		bne	a5,a4,.L25
 350:cdc_acm_core.c ****     {
 351:cdc_acm_core.c ****         case SEND_ENCAPSULATED_COMMAND:
 352:cdc_acm_core.c ****             break;
 353:cdc_acm_core.c ****         case GET_ENCAPSULATED_RESPONSE:
 354:cdc_acm_core.c ****             break;
 355:cdc_acm_core.c ****         case SET_COMM_FEATURE:
 356:cdc_acm_core.c ****             break;
 357:cdc_acm_core.c ****         case GET_COMM_FEATURE:
 358:cdc_acm_core.c ****             break;
 359:cdc_acm_core.c ****         case CLEAR_COMM_FEATURE:
 360:cdc_acm_core.c ****             break;
 361:cdc_acm_core.c ****         case SET_LINE_CODING:
 362:cdc_acm_core.c ****             /* set the value of the current command to be processed */
 363:cdc_acm_core.c ****             cdc_cmd = req->bRequest;
 316              		.loc 1 363 13 is_stmt 1
 317              		.loc 1 363 21 is_stmt 0
 318 001c 37070000 		lui	a4,%hi(.LANCHOR5)
 319 0020 2320F700 		sw	a5,%lo(.LANCHOR5)(a4)
 364:cdc_acm_core.c ****             /* enable EP0 prepare to receive command data packet */
 365:cdc_acm_core.c ****             pudev->dev.transc_out[0].xfer_buf = usb_cmd_buffer;
 320              		.loc 1 365 13 is_stmt 1
 321              		.loc 1 365 47 is_stmt 0
 322 0024 B7070000 		lui	a5,%hi(usb_cmd_buffer)
 323 0028 93870700 		addi	a5,a5,%lo(usb_cmd_buffer)
 324 002c 232AF526 		sw	a5,628(a0)
 366:cdc_acm_core.c ****            break;
 325              		.loc 1 366 12 is_stmt 1
 326              	.L25:
 367:cdc_acm_core.c ****         case GET_LINE_CODING:
 368:cdc_acm_core.c ****             usb_cmd_buffer[0] = (uint8_t)(linecoding.dwDTERate);
 369:cdc_acm_core.c ****             usb_cmd_buffer[1] = (uint8_t)(linecoding.dwDTERate >> 8);
 370:cdc_acm_core.c ****             usb_cmd_buffer[2] = (uint8_t)(linecoding.dwDTERate >> 16);
 371:cdc_acm_core.c ****             usb_cmd_buffer[3] = (uint8_t)(linecoding.dwDTERate >> 24);
 372:cdc_acm_core.c ****             usb_cmd_buffer[4] = linecoding.bCharFormat;
 373:cdc_acm_core.c ****             usb_cmd_buffer[5] = linecoding.bParityType;
 374:cdc_acm_core.c ****             usb_cmd_buffer[6] = linecoding.bDataBits;
 375:cdc_acm_core.c ****             /* send the request data to the host */
 376:cdc_acm_core.c ****             pudev->dev.transc_in[0].xfer_buf = usb_cmd_buffer;
 377:cdc_acm_core.c ****             pudev->dev.transc_in[0].remain_len = req->wLength;
 378:cdc_acm_core.c ****             break;
 379:cdc_acm_core.c ****         case SET_CONTROL_LINE_STATE:
 380:cdc_acm_core.c ****             usb_serial_connected = req->wValue;
 381:cdc_acm_core.c ****             break;
 382:cdc_acm_core.c ****         case SEND_BREAK:
 383:cdc_acm_core.c ****             //dbg_set_temporary_breakpoint(read_csr(mepc), 0);
 384:cdc_acm_core.c ****             //dbg_break();
 385:cdc_acm_core.c ****             break;
 386:cdc_acm_core.c ****         default:
 387:cdc_acm_core.c ****             break;
 388:cdc_acm_core.c ****     }
 389:cdc_acm_core.c **** 
GAS LISTING C:\Users\Uzair\AppData\Local\Temp\ccENtFnC.s 			page 14


 390:cdc_acm_core.c ****     return USBD_OK;
 327              		.loc 1 390 5
 391:cdc_acm_core.c **** }
 328              		.loc 1 391 1 is_stmt 0
 329 0030 0145     		li	a0,0
 330              	.LVL26:
 331 0032 8280     		ret
 332              	.LVL27:
 333              	.L23:
 334              	.LBB22:
 335              	.LBB23:
 368:cdc_acm_core.c ****             usb_cmd_buffer[1] = (uint8_t)(linecoding.dwDTERate >> 8);
 336              		.loc 1 368 13 is_stmt 1
 368:cdc_acm_core.c ****             usb_cmd_buffer[1] = (uint8_t)(linecoding.dwDTERate >> 8);
 337              		.loc 1 368 53 is_stmt 0
 338 0034 37070000 		lui	a4,%hi(.LANCHOR6)
 339 0038 13070700 		addi	a4,a4,%lo(.LANCHOR6)
 340 003c 1443     		lw	a3,0(a4)
 368:cdc_acm_core.c ****             usb_cmd_buffer[1] = (uint8_t)(linecoding.dwDTERate >> 8);
 341              		.loc 1 368 31
 342 003e B7070000 		lui	a5,%hi(usb_cmd_buffer)
 343 0042 93870700 		addi	a5,a5,%lo(usb_cmd_buffer)
 369:cdc_acm_core.c ****             usb_cmd_buffer[2] = (uint8_t)(linecoding.dwDTERate >> 16);
 344              		.loc 1 369 64
 345 0046 13D68600 		srli	a2,a3,8
 368:cdc_acm_core.c ****             usb_cmd_buffer[1] = (uint8_t)(linecoding.dwDTERate >> 8);
 346              		.loc 1 368 33
 347 004a 2380D700 		sb	a3,0(a5)
 369:cdc_acm_core.c ****             usb_cmd_buffer[2] = (uint8_t)(linecoding.dwDTERate >> 16);
 348              		.loc 1 369 13 is_stmt 1
 369:cdc_acm_core.c ****             usb_cmd_buffer[2] = (uint8_t)(linecoding.dwDTERate >> 16);
 349              		.loc 1 369 33 is_stmt 0
 350 004e A380C700 		sb	a2,1(a5)
 370:cdc_acm_core.c ****             usb_cmd_buffer[3] = (uint8_t)(linecoding.dwDTERate >> 24);
 351              		.loc 1 370 13 is_stmt 1
 370:cdc_acm_core.c ****             usb_cmd_buffer[3] = (uint8_t)(linecoding.dwDTERate >> 24);
 352              		.loc 1 370 64 is_stmt 0
 353 0052 13D60601 		srli	a2,a3,16
 371:cdc_acm_core.c ****             usb_cmd_buffer[4] = linecoding.bCharFormat;
 354              		.loc 1 371 64
 355 0056 E182     		srli	a3,a3,24
 371:cdc_acm_core.c ****             usb_cmd_buffer[4] = linecoding.bCharFormat;
 356              		.loc 1 371 33
 357 0058 A381D700 		sb	a3,3(a5)
 372:cdc_acm_core.c ****             usb_cmd_buffer[5] = linecoding.bParityType;
 358              		.loc 1 372 31
 359 005c 83464700 		lbu	a3,4(a4)
 370:cdc_acm_core.c ****             usb_cmd_buffer[3] = (uint8_t)(linecoding.dwDTERate >> 24);
 360              		.loc 1 370 33
 361 0060 2381C700 		sb	a2,2(a5)
 371:cdc_acm_core.c ****             usb_cmd_buffer[4] = linecoding.bCharFormat;
 362              		.loc 1 371 13 is_stmt 1
 372:cdc_acm_core.c ****             usb_cmd_buffer[5] = linecoding.bParityType;
 363              		.loc 1 372 13
 376:cdc_acm_core.c ****             pudev->dev.transc_in[0].remain_len = req->wLength;
 364              		.loc 1 376 46 is_stmt 0
 365 0064 2328F50C 		sw	a5,208(a0)
GAS LISTING C:\Users\Uzair\AppData\Local\Temp\ccENtFnC.s 			page 15


 372:cdc_acm_core.c ****             usb_cmd_buffer[5] = linecoding.bParityType;
 366              		.loc 1 372 31
 367 0068 2382D700 		sb	a3,4(a5)
 373:cdc_acm_core.c ****             usb_cmd_buffer[6] = linecoding.bDataBits;
 368              		.loc 1 373 13 is_stmt 1
 373:cdc_acm_core.c ****             usb_cmd_buffer[6] = linecoding.bDataBits;
 369              		.loc 1 373 31 is_stmt 0
 370 006c 83465700 		lbu	a3,5(a4)
 374:cdc_acm_core.c ****             /* send the request data to the host */
 371              		.loc 1 374 31
 372 0070 03476700 		lbu	a4,6(a4)
 373:cdc_acm_core.c ****             usb_cmd_buffer[6] = linecoding.bDataBits;
 373              		.loc 1 373 31
 374 0074 A382D700 		sb	a3,5(a5)
 374:cdc_acm_core.c ****             /* send the request data to the host */
 375              		.loc 1 374 13 is_stmt 1
 374:cdc_acm_core.c ****             /* send the request data to the host */
 376              		.loc 1 374 31 is_stmt 0
 377 0078 2383E700 		sb	a4,6(a5)
 376:cdc_acm_core.c ****             pudev->dev.transc_in[0].remain_len = req->wLength;
 378              		.loc 1 376 13 is_stmt 1
 377:cdc_acm_core.c ****             break;
 379              		.loc 1 377 13
 377:cdc_acm_core.c ****             break;
 380              		.loc 1 377 53 is_stmt 0
 381 007c 83C77500 		lbu	a5,7(a1)
 382 0080 03C76500 		lbu	a4,6(a1)
 383 0084 A207     		slli	a5,a5,8
 384 0086 D98F     		or	a5,a5,a4
 385 0088 232EF50C 		sw	a5,220(a0)
 378:cdc_acm_core.c ****         case SET_CONTROL_LINE_STATE:
 386              		.loc 1 378 13 is_stmt 1
 387 008c 55B7     		j	.L25
 388              	.LVL28:
 389              	.L24:
 390              	.LBE23:
 391              	.LBE22:
 380:cdc_acm_core.c ****             break;
 392              		.loc 1 380 13
 380:cdc_acm_core.c ****             break;
 393              		.loc 1 380 39 is_stmt 0
 394 008e 83C73500 		lbu	a5,3(a1)
 395 0092 03C72500 		lbu	a4,2(a1)
 396 0096 A207     		slli	a5,a5,8
 397 0098 D98F     		or	a5,a5,a4
 398 009a 37070000 		lui	a4,%hi(.LANCHOR7)
 399 009e 2320F700 		sw	a5,%lo(.LANCHOR7)(a4)
 381:cdc_acm_core.c ****         case SEND_BREAK:
 400              		.loc 1 381 13 is_stmt 1
 401 00a2 79B7     		j	.L25
 402              		.cfi_endproc
 403              	.LFE7:
 405              		.section	.text.cdc_acm_data_receive,"ax",@progbits
 406              		.align	1
 407              		.globl	cdc_acm_data_receive
 409              	cdc_acm_data_receive:
 410              	.LFB8:
GAS LISTING C:\Users\Uzair\AppData\Local\Temp\ccENtFnC.s 			page 16


 392:cdc_acm_core.c **** 
 393:cdc_acm_core.c **** /*!
 394:cdc_acm_core.c ****     \brief      receive CDC ACM data
 395:cdc_acm_core.c ****     \param[in]  pudev: pointer to USB device instance
 396:cdc_acm_core.c ****     \param[out] none
 397:cdc_acm_core.c ****     \retval     USB device operation status
 398:cdc_acm_core.c **** */
 399:cdc_acm_core.c **** void cdc_acm_data_receive(usb_dev *pudev)
 400:cdc_acm_core.c **** {
 411              		.loc 1 400 1
 412              		.cfi_startproc
 413              	.LVL29:
 401:cdc_acm_core.c ****     packet_receive = 0;
 414              		.loc 1 401 5
 402:cdc_acm_core.c **** 
 403:cdc_acm_core.c ****     usbd_ep_recev(pudev, CDC_ACM_DATA_OUT_EP, (uint8_t*)(usb_data_buffer), CDC_ACM_DATA_PACKET_SIZE
 415              		.loc 1 403 5 is_stmt 0
 416 0000 37060000 		lui	a2,%hi(usb_data_buffer)
 401:cdc_acm_core.c ****     packet_receive = 0;
 417              		.loc 1 401 20
 418 0004 B7070000 		lui	a5,%hi(.LANCHOR1)
 419              		.loc 1 403 5
 420 0008 93060004 		li	a3,64
 421 000c 13060600 		addi	a2,a2,%lo(usb_data_buffer)
 422 0010 8D45     		li	a1,3
 401:cdc_acm_core.c ****     packet_receive = 0;
 423              		.loc 1 401 20
 424 0012 23800700 		sb	zero,%lo(.LANCHOR1)(a5)
 425              		.loc 1 403 5 is_stmt 1
 426 0016 17030000 		tail	usbd_ep_recev
 426      67000300 
 427              	.LVL30:
 428              		.cfi_endproc
 429              	.LFE8:
 431              		.section	.text.cdc_acm_data_send,"ax",@progbits
 432              		.align	1
 433              		.globl	cdc_acm_data_send
 435              	cdc_acm_data_send:
 436              	.LFB9:
 404:cdc_acm_core.c **** }
 405:cdc_acm_core.c **** 
 406:cdc_acm_core.c **** /*!
 407:cdc_acm_core.c ****     \brief      send CDC ACM data
 408:cdc_acm_core.c ****     \param[in]  pudev: pointer to USB device instance
 409:cdc_acm_core.c ****     \param[out] none
 410:cdc_acm_core.c ****     \retval     USB device operation status
 411:cdc_acm_core.c **** */
 412:cdc_acm_core.c **** void cdc_acm_data_send (usb_dev *pudev, uint32_t data_len)
 413:cdc_acm_core.c **** {
 437              		.loc 1 413 1
 438              		.cfi_startproc
 439              	.LVL31:
 414:cdc_acm_core.c ****     /* limit the transfer data length */
 415:cdc_acm_core.c ****     if (data_len <= CDC_ACM_DATA_PACKET_SIZE) {
 440              		.loc 1 415 5
 441              		.loc 1 415 8 is_stmt 0
 442 0000 93070004 		li	a5,64
GAS LISTING C:\Users\Uzair\AppData\Local\Temp\ccENtFnC.s 			page 17


 443 0004 63E3B702 		bgtu	a1,a5,.L27
 416:cdc_acm_core.c ****         packet_sent = 0;
 444              		.loc 1 416 9 is_stmt 1
 417:cdc_acm_core.c ****         usbd_ep_send(pudev, CDC_ACM_DATA_IN_EP, (uint8_t*)(usb_data_buffer), data_len);
 445              		.loc 1 417 9 is_stmt 0
 446 0008 93960501 		slli	a3,a1,16
 447 000c 37060000 		lui	a2,%hi(usb_data_buffer)
 416:cdc_acm_core.c ****         packet_sent = 0;
 448              		.loc 1 416 21
 449 0010 B7070000 		lui	a5,%hi(.LANCHOR4)
 450              		.loc 1 417 9
 451 0014 C182     		srli	a3,a3,16
 452 0016 13060600 		addi	a2,a2,%lo(usb_data_buffer)
 453 001a 93051008 		li	a1,129
 454              	.LVL32:
 416:cdc_acm_core.c ****         packet_sent = 0;
 455              		.loc 1 416 21
 456 001e 23800700 		sb	zero,%lo(.LANCHOR4)(a5)
 457              		.loc 1 417 9 is_stmt 1
 458 0022 17030000 		tail	usbd_ep_send
 458      67000300 
 459              	.LVL33:
 460              	.L27:
 418:cdc_acm_core.c ****     }
 419:cdc_acm_core.c **** }
 461              		.loc 1 419 1 is_stmt 0
 462 002a 8280     		ret
 463              		.cfi_endproc
 464              	.LFE9:
 466              		.section	.text.cdc_acm_EP0_RxReady,"ax",@progbits
 467              		.align	1
 468              		.globl	cdc_acm_EP0_RxReady
 470              	cdc_acm_EP0_RxReady:
 471              	.LFB10:
 420:cdc_acm_core.c **** 
 421:cdc_acm_core.c **** /*!
 422:cdc_acm_core.c ****     \brief      command data received on control endpoint
 423:cdc_acm_core.c ****     \param[in]  pudev: pointer to USB device instance
 424:cdc_acm_core.c ****     \param[out] none
 425:cdc_acm_core.c ****     \retval     USB device operation status
 426:cdc_acm_core.c **** */
 427:cdc_acm_core.c **** uint8_t cdc_acm_EP0_RxReady (usb_dev *pudev)
 428:cdc_acm_core.c **** {
 472              		.loc 1 428 1 is_stmt 1
 473              		.cfi_startproc
 474              	.LVL34:
 429:cdc_acm_core.c ****     if (NO_CMD != cdc_cmd) {
 475              		.loc 1 429 5
 476              		.loc 1 429 16 is_stmt 0
 477 0000 B7050000 		lui	a1,%hi(.LANCHOR5)
 478 0004 93850500 		addi	a1,a1,%lo(.LANCHOR5)
 479              		.loc 1 429 8
 480 0008 9C41     		lw	a5,0(a1)
 481 000a 1305F00F 		li	a0,255
 482              	.LVL35:
 483 000e 6386A704 		beq	a5,a0,.L30
 484              	.LVL36:
GAS LISTING C:\Users\Uzair\AppData\Local\Temp\ccENtFnC.s 			page 18


 485              	.LBB26:
 486              	.LBB27:
 430:cdc_acm_core.c ****         /* process the command data */
 431:cdc_acm_core.c ****         linecoding.dwDTERate = (uint32_t)(usb_cmd_buffer[0] | 
 487              		.loc 1 431 9 is_stmt 1
 488              		.loc 1 431 30 is_stmt 0
 489 0012 B7070000 		lui	a5,%hi(usb_cmd_buffer)
 490 0016 03C61700 		lbu	a2,%lo(usb_cmd_buffer+1)(a5)
 491 001a 83C60700 		lbu	a3,%lo(usb_cmd_buffer)(a5)
 492 001e 37070000 		lui	a4,%hi(.LANCHOR6)
 493 0022 2206     		slli	a2,a2,8
 494 0024 558E     		or	a2,a2,a3
 495 0026 83C62700 		lbu	a3,%lo(usb_cmd_buffer+2)(a5)
 496 002a 13070700 		addi	a4,a4,%lo(.LANCHOR6)
 432:cdc_acm_core.c ****                                          (usb_cmd_buffer[1] << 8) |
 433:cdc_acm_core.c ****                                          (usb_cmd_buffer[2] << 16) |
 434:cdc_acm_core.c ****                                          (usb_cmd_buffer[3] << 24));
 435:cdc_acm_core.c **** 
 436:cdc_acm_core.c ****         linecoding.bCharFormat = usb_cmd_buffer[4];
 437:cdc_acm_core.c ****         linecoding.bParityType = usb_cmd_buffer[5];
 438:cdc_acm_core.c ****         linecoding.bDataBits = usb_cmd_buffer[6];
 439:cdc_acm_core.c **** 
 440:cdc_acm_core.c ****         cdc_cmd = NO_CMD;
 497              		.loc 1 440 17
 498 002e 88C1     		sw	a0,0(a1)
 431:cdc_acm_core.c ****                                          (usb_cmd_buffer[1] << 8) |
 499              		.loc 1 431 30
 500 0030 C206     		slli	a3,a3,16
 501 0032 558E     		or	a2,a3,a2
 502 0034 83C63700 		lbu	a3,%lo(usb_cmd_buffer+3)(a5)
 436:cdc_acm_core.c ****         linecoding.bParityType = usb_cmd_buffer[5];
 503              		.loc 1 436 48
 504 0038 93870700 		addi	a5,a5,%lo(usb_cmd_buffer)
 431:cdc_acm_core.c ****                                          (usb_cmd_buffer[1] << 8) |
 505              		.loc 1 431 30
 506 003c E206     		slli	a3,a3,24
 507 003e D18E     		or	a3,a3,a2
 508 0040 14C3     		sw	a3,0(a4)
 436:cdc_acm_core.c ****         linecoding.bParityType = usb_cmd_buffer[5];
 509              		.loc 1 436 9 is_stmt 1
 436:cdc_acm_core.c ****         linecoding.bParityType = usb_cmd_buffer[5];
 510              		.loc 1 436 32 is_stmt 0
 511 0042 83C64700 		lbu	a3,4(a5)
 512 0046 2302D700 		sb	a3,4(a4)
 437:cdc_acm_core.c ****         linecoding.bDataBits = usb_cmd_buffer[6];
 513              		.loc 1 437 9 is_stmt 1
 437:cdc_acm_core.c ****         linecoding.bDataBits = usb_cmd_buffer[6];
 514              		.loc 1 437 32 is_stmt 0
 515 004a 83C65700 		lbu	a3,5(a5)
 438:cdc_acm_core.c **** 
 516              		.loc 1 438 30
 517 004e 83C76700 		lbu	a5,6(a5)
 437:cdc_acm_core.c ****         linecoding.bDataBits = usb_cmd_buffer[6];
 518              		.loc 1 437 32
 519 0052 A302D700 		sb	a3,5(a4)
 438:cdc_acm_core.c **** 
 520              		.loc 1 438 9 is_stmt 1
GAS LISTING C:\Users\Uzair\AppData\Local\Temp\ccENtFnC.s 			page 19


 438:cdc_acm_core.c **** 
 521              		.loc 1 438 30 is_stmt 0
 522 0056 2303F700 		sb	a5,6(a4)
 523              		.loc 1 440 9 is_stmt 1
 524              	.LVL37:
 525              	.L30:
 526              	.LBE27:
 527              	.LBE26:
 441:cdc_acm_core.c ****     }
 442:cdc_acm_core.c **** 
 443:cdc_acm_core.c ****     return USBD_OK;
 528              		.loc 1 443 5
 444:cdc_acm_core.c **** }
 529              		.loc 1 444 1 is_stmt 0
 530 005a 0145     		li	a0,0
 531 005c 8280     		ret
 532              		.cfi_endproc
 533              	.LFE10:
 535              		.section	.text.cdc_acm_set_custom_cb,"ax",@progbits
 536              		.align	1
 537              		.globl	cdc_acm_set_custom_cb
 539              	cdc_acm_set_custom_cb:
 540              	.LFB11:
 445:cdc_acm_core.c **** 
 446:cdc_acm_core.c **** void cdc_acm_set_custom_cb(usb_rx_custom_cb cb){
 541              		.loc 1 446 48 is_stmt 1
 542              		.cfi_startproc
 543              	.LVL38:
 447:cdc_acm_core.c ****     rx_custom_cb = cb;
 544              		.loc 1 447 5
 545              		.loc 1 447 18 is_stmt 0
 546 0000 B7070000 		lui	a5,%hi(.LANCHOR3)
 547 0004 23A0A700 		sw	a0,%lo(.LANCHOR3)(a5)
 448:cdc_acm_core.c **** }
 548              		.loc 1 448 1
 549 0008 8280     		ret
 550              		.cfi_endproc
 551              	.LFE11:
 553              		.section	.text.cdc_acm_get_line_state,"ax",@progbits
 554              		.align	1
 555              		.globl	cdc_acm_get_line_state
 557              	cdc_acm_get_line_state:
 558              	.LFB12:
 449:cdc_acm_core.c **** 
 450:cdc_acm_core.c **** uint32_t cdc_acm_get_line_state(void){
 559              		.loc 1 450 38 is_stmt 1
 560              		.cfi_startproc
 451:cdc_acm_core.c ****     return usb_serial_connected;
 561              		.loc 1 451 5
 452:cdc_acm_core.c **** }
 562              		.loc 1 452 1 is_stmt 0
 563 0000 B7070000 		lui	a5,%hi(.LANCHOR7)
 564 0004 03A50700 		lw	a0,%lo(.LANCHOR7)(a5)
 565 0008 8280     		ret
 566              		.cfi_endproc
 567              	.LFE12:
 569              		.globl	usbd_cdc_cb
GAS LISTING C:\Users\Uzair\AppData\Local\Temp\ccENtFnC.s 			page 20


 570              		.section	.data.configuration_descriptor,"aw"
 571              		.align	2
 572              		.set	.LANCHOR0,. + 0
 575              	configuration_descriptor:
 576 0000 09       		.byte	9
 577 0001 02       		.byte	2
 578 0002 4300     		.half	67
 579 0004 02       		.byte	2
 580 0005 01       		.byte	1
 581 0006 00       		.byte	0
 582 0007 80       		.byte	-128
 583 0008 32       		.byte	50
 584 0009 09       		.byte	9
 585 000a 04       		.byte	4
 586 000b 00       		.byte	0
 587 000c 00       		.byte	0
 588 000d 01       		.byte	1
 589 000e 02       		.byte	2
 590 000f 02       		.byte	2
 591 0010 00       		.byte	0
 592 0011 00       		.byte	0
 593 0012 05       		.byte	5
 594 0013 24       		.byte	36
 595 0014 00       		.byte	0
 596 0015 1001     		.2byte	272
 597 0017 05       		.byte	5
 598 0018 24       		.byte	36
 599 0019 01       		.byte	1
 600 001a 00       		.byte	0
 601 001b 01       		.byte	1
 602 001c 04       		.byte	4
 603 001d 24       		.byte	36
 604 001e 02       		.byte	2
 605 001f 02       		.byte	2
 606 0020 05       		.byte	5
 607 0021 24       		.byte	36
 608 0022 06       		.byte	6
 609 0023 00       		.byte	0
 610 0024 01       		.byte	1
 611 0025 07       		.byte	7
 612 0026 05       		.byte	5
 613 0027 82       		.byte	-126
 614 0028 03       		.byte	3
 615 0029 0800     		.2byte	8
 616 002b 0A       		.byte	10
 617 002c 09       		.byte	9
 618 002d 04       		.byte	4
 619 002e 01       		.byte	1
 620 002f 00       		.byte	0
 621 0030 02       		.byte	2
 622 0031 0A       		.byte	10
 623 0032 00       		.byte	0
 624 0033 00       		.byte	0
 625 0034 00       		.byte	0
 626 0035 07       		.byte	7
 627 0036 05       		.byte	5
 628 0037 03       		.byte	3
GAS LISTING C:\Users\Uzair\AppData\Local\Temp\ccENtFnC.s 			page 21


 629 0038 02       		.byte	2
 630 0039 4000     		.2byte	64
 631 003b 00       		.byte	0
 632 003c 07       		.byte	7
 633 003d 05       		.byte	5
 634 003e 81       		.byte	-127
 635 003f 02       		.byte	2
 636 0040 4000     		.half	64
 637 0042 00       		.byte	0
 638              		.section	.data.usbd_cdc_cb,"aw"
 639              		.align	2
 642              	usbd_cdc_cb:
 643 0000 FF       		.byte	-1
 644 0001 00       		.byte	0
 645 0002 0000     		.zero	2
 646 0004 00000000 		.word	cdc_acm_init
 647 0008 00000000 		.word	cdc_acm_deinit
 648 000c 00000000 		.word	cdc_acm_req_handler
 649 0010 00000000 		.word	cdc_acm_data_in_handler
 650 0014 00000000 		.word	cdc_acm_data_out_handler
 651 0018 00000000 		.zero	12
 651      00000000 
 651      00000000 
 652              		.section	.rodata.__compound_literal.0,"a"
 653              		.align	2
 656              	__compound_literal.0:
 657 0000 16       		.byte	22
 658 0001 03       		.byte	3
 659 0002 4700     		.string	"G"
 660 0004 6900     		.string	"i"
 661 0006 6700     		.string	"g"
 662 0008 6100     		.string	"a"
 663 000a 4400     		.string	"D"
 664 000c 6500     		.string	"e"
 665 000e 7600     		.string	"v"
 666 0010 6900     		.string	"i"
 667 0012 6300     		.string	"c"
 668 0014 6500     		.string	"e"
 669 0016 00       		.string	""
 670 0017 00       		.string	""
 671              		.section	.rodata.__compound_literal.1,"a"
 672              		.align	2
 675              	__compound_literal.1:
 676 0000 38       		.byte	56
 677 0001 03       		.byte	3
 678 0002 4700     		.string	"G"
 679 0004 4400     		.string	"D"
 680 0006 3300     		.string	"3"
 681 0008 3200     		.string	"2"
 682 000a 2000     		.string	" "
 683 000c 5500     		.string	"U"
 684 000e 5300     		.string	"S"
 685 0010 4200     		.string	"B"
 686 0012 2000     		.string	" "
 687 0014 4300     		.string	"C"
 688 0016 4400     		.string	"D"
 689 0018 4300     		.string	"C"
GAS LISTING C:\Users\Uzair\AppData\Local\Temp\ccENtFnC.s 			page 22


 690 001a 2000     		.string	" "
 691 001c 4100     		.string	"A"
 692 001e 4300     		.string	"C"
 693 0020 4D00     		.string	"M"
 694 0022 2000     		.string	" "
 695 0024 6900     		.string	"i"
 696 0026 6E00     		.string	"n"
 697 0028 2000     		.string	" "
 698 002a 4600     		.string	"F"
 699 002c 5300     		.string	"S"
 700 002e 2000     		.string	" "
 701 0030 4D00     		.string	"M"
 702 0032 6F00     		.string	"o"
 703 0034 6400     		.string	"d"
 704 0036 6500     		.string	"e"
 705 0038 00       		.string	""
 706 0039 00       		.string	""
 707              		.section	.rodata.__compound_literal.2,"a"
 708              		.align	2
 711              	__compound_literal.2:
 712 0000 2E       		.byte	46
 713 0001 03       		.byte	3
 714 0002 4700     		.string	"G"
 715 0004 4400     		.string	"D"
 716 0006 3300     		.string	"3"
 717 0008 3200     		.string	"2"
 718 000a 5800     		.string	"X"
 719 000c 5800     		.string	"X"
 720 000e 5800     		.string	"X"
 721 0010 2D00     		.string	"-"
 722 0012 3300     		.string	"3"
 723 0014 2E00     		.string	"."
 724 0016 3000     		.string	"0"
 725 0018 2E00     		.string	"."
 726 001a 3000     		.string	"0"
 727 001c 2D00     		.string	"-"
 728 001e 3700     		.string	"7"
 729 0020 7A00     		.string	"z"
 730 0022 3800     		.string	"8"
 731 0024 7800     		.string	"x"
 732 0026 3900     		.string	"9"
 733 0028 7900     		.string	"y"
 734 002a 6500     		.string	"e"
 735 002c 7200     		.string	"r"
 736 002e 00       		.string	""
 737 002f 00       		.string	""
 738              		.section	.rodata.device_descriptor,"a"
 739              		.align	2
 742              	device_descriptor:
 743 0000 12       		.byte	18
 744 0001 01       		.byte	1
 745 0002 0002     		.half	512
 746 0004 02       		.byte	2
 747 0005 00       		.byte	0
 748 0006 00       		.byte	0
 749 0007 40       		.byte	64
 750 0008 E928     		.half	10473
GAS LISTING C:\Users\Uzair\AppData\Local\Temp\ccENtFnC.s 			page 23


 751 000a 8A01     		.half	394
 752 000c 0001     		.half	256
 753 000e 01       		.byte	1
 754 000f 02       		.byte	2
 755 0010 03       		.byte	3
 756 0011 01       		.byte	1
 757              		.section	.rodata.usbd_strings,"a"
 758              		.align	2
 761              	usbd_strings:
 762 0000 00000000 		.word	usbd_language_id_desc
 763 0004 00000000 		.word	__compound_literal.0
 764 0008 00000000 		.word	__compound_literal.1
 765 000c 00000000 		.word	__compound_literal.2
 766              		.section	.sbss.receive_length,"aw",@nobits
 767              		.align	2
 768              		.set	.LANCHOR2,. + 0
 771              	receive_length:
 772 0000 00000000 		.zero	4
 773              		.section	.sbss.rx_custom_cb,"aw",@nobits
 774              		.align	2
 775              		.set	.LANCHOR3,. + 0
 778              	rx_custom_cb:
 779 0000 00000000 		.zero	4
 780              		.section	.sbss.usb_serial_connected,"aw",@nobits
 781              		.align	2
 782              		.set	.LANCHOR7,. + 0
 785              	usb_serial_connected:
 786 0000 00000000 		.zero	4
 787              		.section	.sdata.cdc_cmd,"aw"
 788              		.align	2
 789              		.set	.LANCHOR5,. + 0
 792              	cdc_cmd:
 793 0000 FF000000 		.word	255
 794              		.section	.sdata.linecoding,"aw"
 795              		.align	2
 796              		.set	.LANCHOR6,. + 0
 799              	linecoding:
 800 0000 00C20100 		.word	115200
 801 0004 00       		.byte	0
 802 0005 00       		.byte	0
 803 0006 08       		.byte	8
 804 0007 00       		.zero	1
 805              		.section	.sdata.packet_receive,"aw"
 806              		.set	.LANCHOR1,. + 0
 809              	packet_receive:
 810 0000 01       		.byte	1
 811              		.section	.sdata.packet_sent,"aw"
 812              		.set	.LANCHOR4,. + 0
 815              	packet_sent:
 816 0000 01       		.byte	1
 817              		.section	.sdata2.usbd_language_id_desc,"a"
 818              		.align	2
 821              	usbd_language_id_desc:
 822 0000 04       		.byte	4
 823 0001 03       		.byte	3
 824 0002 0904     		.half	1033
 825              		.text
GAS LISTING C:\Users\Uzair\AppData\Local\Temp\ccENtFnC.s 			page 24


 826              	.Letext0:
 827              		.file 2 "c:\\kth\\he1043\\toolchain-gd32v-v202-win\\toolchain-gd32v-v202-win\\compiler\\riscv64-un
 828              		.file 3 "c:\\kth\\he1043\\toolchain-gd32v-v202-win\\toolchain-gd32v-v202-win\\compiler\\riscv64-un
 829              		.file 4 "c:\\kth\\he1043\\toolchain-gd32v-v202-win\\toolchain-gd32v-v202-win\\compiler\\lib\\gcc\\
 830              		.file 5 "drv_usb_regs.h"
 831              		.file 6 "./../../firmware/GD32VF103_standard_peripheral/system_gd32vf103.h"
 832              		.file 7 "usb_ch9_std.h"
 833              		.file 8 "drv_usb_core.h"
 834              		.file 9 "drv_usb_dev.h"
 835              		.file 10 "c:\\kth\\he1043\\toolchain-gd32v-v202-win\\toolchain-gd32v-v202-win\\compiler\\riscv64-u
 836              		.file 11 "c:\\kth\\he1043\\toolchain-gd32v-v202-win\\toolchain-gd32v-v202-win\\compiler\\riscv64-u
 837              		.file 12 "c:\\kth\\he1043\\toolchain-gd32v-v202-win\\toolchain-gd32v-v202-win\\compiler\\riscv64-u
 838              		.file 13 "usbd_enum.h"
 839              		.file 14 "cdc_acm_core.h"
 840              		.file 15 "usbd_core.h"
GAS LISTING C:\Users\Uzair\AppData\Local\Temp\ccENtFnC.s 			page 25

