GAS LISTING C:\Users\Uzair\AppData\Local\Temp\cct7wlYq.s 			page 1


   1              		.file	"drv_usbd_int.c"
   2              		.option nopic
   3              		.attribute arch, "rv32i2p0_m2p0_a2p0_c2p0"
   4              		.attribute unaligned_access, 0
   5              		.attribute stack_align, 16
   6              		.text
   7              	.Ltext0:
   8              		.cfi_sections	.debug_frame
   9              		.globl	setupc_flag
  10              		.section	.text.usbd_isr,"ax",@progbits
  11              		.align	1
  12              		.globl	usbd_isr
  14              	usbd_isr:
  15              	.LFB3:
  16              		.file 1 "drv_usbd_int.c"
   1:drv_usbd_int.c **** /*!
   2:drv_usbd_int.c ****     \file  drv_usbd_int.c
   3:drv_usbd_int.c ****     \brief USB device mode interrupt routines
   4:drv_usbd_int.c **** 
   5:drv_usbd_int.c ****     \version 2019-6-5, V1.0.0, firmware for GD32 USBFS&USBHS
   6:drv_usbd_int.c **** */
   7:drv_usbd_int.c **** 
   8:drv_usbd_int.c **** /*
   9:drv_usbd_int.c ****     Copyright (c) 2019, GigaDevice Semiconductor Inc.
  10:drv_usbd_int.c **** 
  11:drv_usbd_int.c ****     Redistribution and use in source and binary forms, with or without modification, 
  12:drv_usbd_int.c **** are permitted provided that the following conditions are met:
  13:drv_usbd_int.c **** 
  14:drv_usbd_int.c ****     1. Redistributions of source code must retain the above copyright notice, this 
  15:drv_usbd_int.c ****        list of conditions and the following disclaimer.
  16:drv_usbd_int.c ****     2. Redistributions in binary form must reproduce the above copyright notice, 
  17:drv_usbd_int.c ****        this list of conditions and the following disclaimer in the documentation 
  18:drv_usbd_int.c ****        and/or other materials provided with the distribution.
  19:drv_usbd_int.c ****     3. Neither the name of the copyright holder nor the names of its contributors 
  20:drv_usbd_int.c ****        may be used to endorse or promote products derived from this software without 
  21:drv_usbd_int.c ****        specific prior written permission.
  22:drv_usbd_int.c **** 
  23:drv_usbd_int.c ****     THIS SOFTWARE IS PROVIDED BY THE COPYRIGHT HOLDERS AND CONTRIBUTORS "AS IS" 
  24:drv_usbd_int.c **** AND ANY EXPRESS OR IMPLIED WARRANTIES, INCLUDING, BUT NOT LIMITED TO, THE IMPLIED 
  25:drv_usbd_int.c **** WARRANTIES OF MERCHANTABILITY AND FITNESS FOR A PARTICULAR PURPOSE ARE DISCLAIMED. 
  26:drv_usbd_int.c **** IN NO EVENT SHALL THE COPYRIGHT HOLDER OR CONTRIBUTORS BE LIABLE FOR ANY DIRECT, 
  27:drv_usbd_int.c **** INDIRECT, INCIDENTAL, SPECIAL, EXEMPLARY, OR CONSEQUENTIAL DAMAGES (INCLUDING, BUT 
  28:drv_usbd_int.c **** NOT LIMITED TO, PROCUREMENT OF SUBSTITUTE GOODS OR SERVICES; LOSS OF USE, DATA, OR 
  29:drv_usbd_int.c **** PROFITS; OR BUSINESS INTERRUPTION) HOWEVER CAUSED AND ON ANY THEORY OF LIABILITY, 
  30:drv_usbd_int.c **** WHETHER IN CONTRACT, STRICT LIABILITY, OR TORT (INCLUDING NEGLIGENCE OR OTHERWISE) 
  31:drv_usbd_int.c **** ARISING IN ANY WAY OUT OF THE USE OF THIS SOFTWARE, EVEN IF ADVISED OF THE POSSIBILITY 
  32:drv_usbd_int.c **** OF SUCH DAMAGE.
  33:drv_usbd_int.c **** */
  34:drv_usbd_int.c **** 
  35:drv_usbd_int.c **** #include "usbd_conf.h"
  36:drv_usbd_int.c **** #include "drv_usbd_int.h"
  37:drv_usbd_int.c **** #include "usbd_transc.h"
  38:drv_usbd_int.c **** 
  39:drv_usbd_int.c **** static uint32_t usbd_int_epout                 (usb_core_driver *udev);
  40:drv_usbd_int.c **** static uint32_t usbd_int_epin                  (usb_core_driver *udev);
  41:drv_usbd_int.c **** static uint32_t usbd_int_rxfifo                (usb_core_driver *udev);
  42:drv_usbd_int.c **** static uint32_t usbd_int_reset                 (usb_core_driver *udev);
GAS LISTING C:\Users\Uzair\AppData\Local\Temp\cct7wlYq.s 			page 2


  43:drv_usbd_int.c **** static uint32_t usbd_int_enumfinish            (usb_core_driver *udev);
  44:drv_usbd_int.c **** static uint32_t usbd_int_suspend               (usb_core_driver *udev);
  45:drv_usbd_int.c **** 
  46:drv_usbd_int.c **** static uint32_t usbd_emptytxfifo_write         (usb_core_driver *udev, uint32_t ep_num);
  47:drv_usbd_int.c **** 
  48:drv_usbd_int.c **** static const uint8_t USB_SPEED[4] = {
  49:drv_usbd_int.c ****     [DSTAT_EM_HS_PHY_30MHZ_60MHZ] = USB_SPEED_HIGH,
  50:drv_usbd_int.c ****     [DSTAT_EM_FS_PHY_30MHZ_60MHZ] = USB_SPEED_FULL,
  51:drv_usbd_int.c ****     [DSTAT_EM_FS_PHY_48MHZ] = USB_SPEED_FULL,
  52:drv_usbd_int.c ****     [DSTAT_EM_LS_PHY_6MHZ] = USB_SPEED_LOW
  53:drv_usbd_int.c **** };
  54:drv_usbd_int.c **** 
  55:drv_usbd_int.c **** __IO uint8_t setupc_flag = 0U;
  56:drv_usbd_int.c **** 
  57:drv_usbd_int.c **** #ifdef USB_OTG_HS_DEDICATED_EP1_ENABLED
  58:drv_usbd_int.c **** 
  59:drv_usbd_int.c **** /*!
  60:drv_usbd_int.c ****     \brief      USB dedicated OUT endpoint 1 interrupt service routine handler
  61:drv_usbd_int.c ****     \param[in]  udev: pointer to usb device instance
  62:drv_usbd_int.c ****     \param[out] none
  63:drv_usbd_int.c ****     \retval     operation status
  64:drv_usbd_int.c **** */
  65:drv_usbd_int.c **** uint32_t USBD_OTG_EP1OUT_ISR_Handler (usb_core_driver *udev)
  66:drv_usbd_int.c **** {
  67:drv_usbd_int.c ****     uint32_t oepintr = 0U;
  68:drv_usbd_int.c ****     uint32_t oeplen = 0U;
  69:drv_usbd_int.c **** 
  70:drv_usbd_int.c ****     oepintr = udev->regs.er_out[1]->DOEPINTF;
  71:drv_usbd_int.c ****     oepintr &= udev->regs.dr->DOEP1INTEN;
  72:drv_usbd_int.c **** 
  73:drv_usbd_int.c ****     /* Transfer complete */
  74:drv_usbd_int.c ****     if (oepintr & DOEPINTF_TF)
  75:drv_usbd_int.c ****     {
  76:drv_usbd_int.c ****         /* Clear the bit in DOEPINTn for this interrupt */
  77:drv_usbd_int.c ****         udev->regs.er_out[1]->DOEPINTF = DOEPINTF_TF;
  78:drv_usbd_int.c **** 
  79:drv_usbd_int.c ****         if (USB_USE_DMA == udev->bp.transfer_mode)
  80:drv_usbd_int.c ****         {
  81:drv_usbd_int.c ****             oeplen = udev->regs.er_out[1]->DOEPLEN;
  82:drv_usbd_int.c **** 
  83:drv_usbd_int.c ****             /* ToDo : handle more than one single MPS size packet */
  84:drv_usbd_int.c ****             udev->dev.transc_out[1].xfer_count = udev->dev.transc_out[1].usb_transc - \
  85:drv_usbd_int.c ****                                     oeplen & DEPLEN_TLEN;
  86:drv_usbd_int.c ****         }
  87:drv_usbd_int.c **** 
  88:drv_usbd_int.c ****         /* RX COMPLETE */
  89:drv_usbd_int.c ****         USBD_DCD_INT_fops->DataOutStage(udev, 1);
  90:drv_usbd_int.c ****     }
  91:drv_usbd_int.c **** 
  92:drv_usbd_int.c ****     return 1;
  93:drv_usbd_int.c **** }
  94:drv_usbd_int.c **** 
  95:drv_usbd_int.c **** /*!
  96:drv_usbd_int.c ****     \brief      USB dedicated IN endpoint 1 interrupt service routine handler
  97:drv_usbd_int.c ****     \param[in]  udev: pointer to usb device instance
  98:drv_usbd_int.c ****     \param[out] none
  99:drv_usbd_int.c ****     \retval     operation status
GAS LISTING C:\Users\Uzair\AppData\Local\Temp\cct7wlYq.s 			page 3


 100:drv_usbd_int.c **** */
 101:drv_usbd_int.c **** uint32_t USBD_OTG_EP1IN_ISR_Handler (usb_core_driver *udev)
 102:drv_usbd_int.c **** {
 103:drv_usbd_int.c ****     uint32_t inten, intr, emptyen;
 104:drv_usbd_int.c **** 
 105:drv_usbd_int.c ****     inten = udev->regs.dr->DIEP1INTEN;
 106:drv_usbd_int.c ****     emptyen = udev->regs.dr->DIEPFEINTEN;
 107:drv_usbd_int.c **** 
 108:drv_usbd_int.c ****     inten |= ((emptyen >> 1 ) & 0x1) << 7;
 109:drv_usbd_int.c **** 
 110:drv_usbd_int.c ****     intr = udev->regs.er_in[1]->DIEPINTF & inten;
 111:drv_usbd_int.c **** 
 112:drv_usbd_int.c ****     if (intr & DIEPINTF_TF)
 113:drv_usbd_int.c ****     {
 114:drv_usbd_int.c ****         udev->regs.dr->DIEPFEINTEN &= ~(0x1 << 1);
 115:drv_usbd_int.c **** 
 116:drv_usbd_int.c ****         udev->regs.er_in[1]->DIEPINTF = DIEPINTF_TF;
 117:drv_usbd_int.c **** 
 118:drv_usbd_int.c ****         /* TX COMPLETE */
 119:drv_usbd_int.c ****         USBD_DCD_INT_fops->DataInStage(udev, 1);
 120:drv_usbd_int.c ****     }
 121:drv_usbd_int.c **** 
 122:drv_usbd_int.c ****     if (intr & DIEPINTF_TXFE)
 123:drv_usbd_int.c ****     {
 124:drv_usbd_int.c ****         DCD_WriteEmptyTxFifo(udev, 1);
 125:drv_usbd_int.c **** 
 126:drv_usbd_int.c ****         udev->regs.er_in[1]->DIEPINTF = DIEPINTF_TXFE;
 127:drv_usbd_int.c ****     }
 128:drv_usbd_int.c **** 
 129:drv_usbd_int.c ****     return 1;
 130:drv_usbd_int.c **** }
 131:drv_usbd_int.c **** 
 132:drv_usbd_int.c **** #endif
 133:drv_usbd_int.c **** 
 134:drv_usbd_int.c **** 
 135:drv_usbd_int.c **** /*!
 136:drv_usbd_int.c ****     \brief      USB device-mode interrupts global service routine handler
 137:drv_usbd_int.c ****     \param[in]  udev: pointer to usb device instance
 138:drv_usbd_int.c ****     \param[out] none
 139:drv_usbd_int.c ****     \retval     none
 140:drv_usbd_int.c **** */
 141:drv_usbd_int.c **** void usbd_isr (usb_core_driver *udev)
 142:drv_usbd_int.c **** {
  17              		.loc 1 142 1
  18              		.cfi_startproc
  19              	.LVL0:
 143:drv_usbd_int.c ****     if (HOST_MODE != (udev->regs.gr->GINTF & GINTF_COPM)) {
  20              		.loc 1 143 5
  21              		.loc 1 143 33 is_stmt 0
  22 0000 1C45     		lw	a5,8(a0)
  23              		.loc 1 143 36
  24 0002 D84B     		lw	a4,20(a5)
  25              		.loc 1 143 44
  26 0004 058B     		andi	a4,a4,1
  27              		.loc 1 143 8
  28 0006 631C0712 		bne	a4,zero,.L64
  29              	.LBB5:
GAS LISTING C:\Users\Uzair\AppData\Local\Temp\cct7wlYq.s 			page 4


 144:drv_usbd_int.c ****         uint32_t intr = udev->regs.gr->GINTF & udev->regs.gr->GINTEN;
  30              		.loc 1 144 9 is_stmt 1
  31              	.LBE5:
 142:drv_usbd_int.c ****     if (HOST_MODE != (udev->regs.gr->GINTF & GINTF_COPM)) {
  32              		.loc 1 142 1 is_stmt 0
  33 000a 4111     		addi	sp,sp,-16
  34              	.LCFI0:
  35              		.cfi_def_cfa_offset 16
  36 000c 26C2     		sw	s1,4(sp)
  37              		.cfi_offset 9, -12
  38              	.LBB8:
  39              		.loc 1 144 38
  40 000e C44B     		lw	s1,20(a5)
  41              		.loc 1 144 61
  42 0010 9C4F     		lw	a5,24(a5)
  43              	.LBE8:
 142:drv_usbd_int.c ****     if (HOST_MODE != (udev->regs.gr->GINTF & GINTF_COPM)) {
  44              		.loc 1 142 1
  45 0012 06C6     		sw	ra,12(sp)
  46 0014 22C4     		sw	s0,8(sp)
  47 0016 4AC0     		sw	s2,0(sp)
  48              		.cfi_offset 1, -4
  49              		.cfi_offset 8, -8
  50              		.cfi_offset 18, -16
  51              	.LBB9:
  52              		.loc 1 144 18
  53 0018 FD8C     		and	s1,s1,a5
  54              	.LVL1:
 145:drv_usbd_int.c **** 
 146:drv_usbd_int.c ****         /* there are no interrupts, avoid spurious interrupt */
 147:drv_usbd_int.c ****         if (!intr) {
  55              		.loc 1 147 9 is_stmt 1
  56              		.loc 1 147 12 is_stmt 0
  57 001a 638C0410 		beq	s1,zero,.L1
 148:drv_usbd_int.c ****             return;
 149:drv_usbd_int.c ****         }
 150:drv_usbd_int.c **** 
 151:drv_usbd_int.c ****         /* OUT endpoints interrupts */
 152:drv_usbd_int.c ****         if (intr & GINTF_OEPIF) {
  58              		.loc 1 152 12
  59 001e 9397C400 		slli	a5,s1,12
  60 0022 2A84     		mv	s0,a0
  61              		.loc 1 152 9 is_stmt 1
  62              		.loc 1 152 12 is_stmt 0
  63 0024 63D60700 		bge	a5,zero,.L5
 153:drv_usbd_int.c ****             usbd_int_epout (udev);
  64              		.loc 1 153 13 is_stmt 1
  65 0028 97000000 		call	usbd_int_epout
  65      E7800000 
  66              	.LVL2:
  67              	.L5:
 154:drv_usbd_int.c ****         }
 155:drv_usbd_int.c **** 
 156:drv_usbd_int.c ****         /* IN endpoints interrupts */
 157:drv_usbd_int.c ****         if (intr & GINTF_IEPIF) {
  68              		.loc 1 157 9
  69              		.loc 1 157 12 is_stmt 0
GAS LISTING C:\Users\Uzair\AppData\Local\Temp\cct7wlYq.s 			page 5


  70 0030 9397D400 		slli	a5,s1,13
  71 0034 63D70700 		bge	a5,zero,.L6
 158:drv_usbd_int.c ****             usbd_int_epin (udev);
  72              		.loc 1 158 13 is_stmt 1
  73 0038 2285     		mv	a0,s0
  74 003a 97000000 		call	usbd_int_epin
  74      E7800000 
  75              	.LVL3:
  76              	.L6:
 159:drv_usbd_int.c ****         }
 160:drv_usbd_int.c **** 
 161:drv_usbd_int.c ****         /* suspend interrupt */
 162:drv_usbd_int.c ****         if (intr & GINTF_SP) {
  77              		.loc 1 162 9
  78              		.loc 1 162 18 is_stmt 0
  79 0042 8567     		li	a5,4096
  80 0044 93870780 		addi	a5,a5,-2048
  81 0048 33F7F400 		and	a4,s1,a5
  82              		.loc 1 162 12
  83 004c 19C3     		beq	a4,zero,.L7
 163:drv_usbd_int.c ****             usbd_int_suspend (udev);
  84              		.loc 1 163 13 is_stmt 1
  85              	.LVL4:
  86              	.LBB6:
  87              	.LBB7:
 164:drv_usbd_int.c ****         }
 165:drv_usbd_int.c **** 
 166:drv_usbd_int.c ****         /* wakeup interrupt */
 167:drv_usbd_int.c ****         if (intr & GINTF_WKUPIF) {
 168:drv_usbd_int.c ****             /* inform upper layer by the resume event */
 169:drv_usbd_int.c ****             udev->dev.cur_status = udev->dev.backup_status;
 170:drv_usbd_int.c **** 
 171:drv_usbd_int.c ****             /* clear interrupt */
 172:drv_usbd_int.c ****             udev->regs.gr->GINTF = GINTF_WKUPIF;
 173:drv_usbd_int.c ****         }
 174:drv_usbd_int.c **** 
 175:drv_usbd_int.c ****         /* wakeup interrupt */
 176:drv_usbd_int.c ****         if (intr & GINTF_MFIF) {
 177:drv_usbd_int.c **** 
 178:drv_usbd_int.c ****             /* clear interrupt */
 179:drv_usbd_int.c ****             udev->regs.gr->GINTF = GINTF_MFIF;
 180:drv_usbd_int.c ****         }
 181:drv_usbd_int.c **** 
 182:drv_usbd_int.c ****         /* start of frame interrupt */
 183:drv_usbd_int.c ****         if (intr & GINTF_SOF) {
 184:drv_usbd_int.c ****             if (udev->dev.class_core->SOF) {
 185:drv_usbd_int.c ****                 udev->dev.class_core->SOF(udev); 
 186:drv_usbd_int.c ****             }
 187:drv_usbd_int.c **** 
 188:drv_usbd_int.c ****             if (0U != setupc_flag) {
 189:drv_usbd_int.c ****                 setupc_flag ++;
 190:drv_usbd_int.c **** 
 191:drv_usbd_int.c ****                 if (setupc_flag >= 3U) {
 192:drv_usbd_int.c ****                     usbd_setup_transc (udev);
 193:drv_usbd_int.c **** 
 194:drv_usbd_int.c ****                     setupc_flag = 0U;
 195:drv_usbd_int.c ****                 }
GAS LISTING C:\Users\Uzair\AppData\Local\Temp\cct7wlYq.s 			page 6


 196:drv_usbd_int.c ****             }
 197:drv_usbd_int.c **** 
 198:drv_usbd_int.c ****             /* clear interrupt */
 199:drv_usbd_int.c ****             udev->regs.gr->GINTF = GINTF_SOF;
 200:drv_usbd_int.c ****         }
 201:drv_usbd_int.c **** 
 202:drv_usbd_int.c ****         /* receive FIFO not empty interrupt */
 203:drv_usbd_int.c ****         if (intr & GINTF_RXFNEIF) {
 204:drv_usbd_int.c ****             usbd_int_rxfifo (udev);
 205:drv_usbd_int.c ****         }
 206:drv_usbd_int.c **** 
 207:drv_usbd_int.c ****         /* USB reset interrupt */
 208:drv_usbd_int.c ****         if (intr & GINTF_RST) {
 209:drv_usbd_int.c ****             usbd_int_reset (udev);
 210:drv_usbd_int.c ****         }
 211:drv_usbd_int.c **** 
 212:drv_usbd_int.c ****         /* enumeration has been done interrupt */
 213:drv_usbd_int.c ****         if (intr & GINTF_ENUMFIF) {
 214:drv_usbd_int.c ****             usbd_int_enumfinish (udev);
 215:drv_usbd_int.c ****         }
 216:drv_usbd_int.c **** 
 217:drv_usbd_int.c ****         /* incomplete synchronization IN transfer interrupt*/
 218:drv_usbd_int.c ****         if (intr & GINTF_ISOINCIF) {
 219:drv_usbd_int.c ****             if (NULL != udev->dev.class_core->incomplete_isoc_in) {
 220:drv_usbd_int.c ****                 udev->dev.class_core->incomplete_isoc_in(udev);
 221:drv_usbd_int.c ****             }
 222:drv_usbd_int.c **** 
 223:drv_usbd_int.c ****             /* Clear interrupt */
 224:drv_usbd_int.c ****             udev->regs.gr->GINTF = GINTF_ISOINCIF;
 225:drv_usbd_int.c ****         }
 226:drv_usbd_int.c **** 
 227:drv_usbd_int.c ****         /* incomplete synchronization OUT transfer interrupt*/
 228:drv_usbd_int.c ****         if (intr & GINTF_ISOONCIF) {
 229:drv_usbd_int.c ****             if (NULL != udev->dev.class_core->incomplete_isoc_out) {
 230:drv_usbd_int.c ****                 udev->dev.class_core->incomplete_isoc_out(udev);
 231:drv_usbd_int.c ****             }
 232:drv_usbd_int.c **** 
 233:drv_usbd_int.c ****             /* clear interrupt */
 234:drv_usbd_int.c ****             udev->regs.gr->GINTF = GINTF_ISOONCIF;
 235:drv_usbd_int.c ****         }
 236:drv_usbd_int.c **** 
 237:drv_usbd_int.c **** #ifdef VBUS_SENSING_ENABLED
 238:drv_usbd_int.c **** 
 239:drv_usbd_int.c ****         /* Session request interrupt */
 240:drv_usbd_int.c ****         if (intr & GINTF_SESIF) {
 241:drv_usbd_int.c ****             udev->regs.gr->GINTF = GINTF_SESIF;
 242:drv_usbd_int.c ****         }
 243:drv_usbd_int.c **** 
 244:drv_usbd_int.c ****         /* OTG mode interrupt */
 245:drv_usbd_int.c ****         if (intr & GINTF_OTGIF) {
 246:drv_usbd_int.c ****             if(udev->regs.gr->GOTGINTF & GOTGINTF_SESEND) {
 247:drv_usbd_int.c **** 
 248:drv_usbd_int.c ****             }
 249:drv_usbd_int.c **** 
 250:drv_usbd_int.c ****             /* Clear OTG interrupt */
 251:drv_usbd_int.c ****             udev->regs.gr->GINTF = GINTF_OTGIF;
 252:drv_usbd_int.c ****         }
GAS LISTING C:\Users\Uzair\AppData\Local\Temp\cct7wlYq.s 			page 7


 253:drv_usbd_int.c **** #endif
 254:drv_usbd_int.c ****     }
 255:drv_usbd_int.c **** }
 256:drv_usbd_int.c **** 
 257:drv_usbd_int.c **** /*!
 258:drv_usbd_int.c ****     \brief      indicates that an OUT endpoint has a pending interrupt
 259:drv_usbd_int.c ****     \param[in]  udev: pointer to usb device instance
 260:drv_usbd_int.c ****     \param[out] none
 261:drv_usbd_int.c ****     \retval     operation status
 262:drv_usbd_int.c **** */
 263:drv_usbd_int.c **** static uint32_t usbd_int_epout (usb_core_driver *udev)
 264:drv_usbd_int.c **** {
 265:drv_usbd_int.c ****     uint32_t epintnum = 0U;
 266:drv_usbd_int.c ****     uint32_t ep_num = 0U;
 267:drv_usbd_int.c **** 
 268:drv_usbd_int.c ****     for (epintnum = usb_oepintnum_read (udev); epintnum; epintnum >>= 1, ep_num++) {
 269:drv_usbd_int.c ****         if (epintnum & 0x1) {
 270:drv_usbd_int.c ****             __IO uint32_t oepintr = usb_oepintr_read (udev, ep_num);
 271:drv_usbd_int.c **** 
 272:drv_usbd_int.c ****             /* transfer complete interrupt */
 273:drv_usbd_int.c ****             if (oepintr & DOEPINTF_TF) {
 274:drv_usbd_int.c ****                 /* clear the bit in DOEPINTF for this interrupt */
 275:drv_usbd_int.c ****                 udev->regs.er_out[ep_num]->DOEPINTF = DOEPINTF_TF;
 276:drv_usbd_int.c **** 
 277:drv_usbd_int.c ****                 if (USB_USE_DMA == udev->bp.transfer_mode) {
 278:drv_usbd_int.c ****                     __IO uint32_t eplen = udev->regs.er_out[ep_num]->DOEPLEN;
 279:drv_usbd_int.c **** 
 280:drv_usbd_int.c ****                     udev->dev.transc_out[ep_num].xfer_count = udev->dev.transc_out[ep_num].max_len 
 281:drv_usbd_int.c ****                                                                 (eplen & DEPLEN_TLEN);
 282:drv_usbd_int.c ****                 }
 283:drv_usbd_int.c **** 
 284:drv_usbd_int.c ****                 /* inform upper layer: data ready */
 285:drv_usbd_int.c ****                 usbd_out_transc (udev, ep_num);
 286:drv_usbd_int.c **** 
 287:drv_usbd_int.c ****                 if (USB_USE_DMA == udev->bp.transfer_mode) {
 288:drv_usbd_int.c ****                     if ((0U == ep_num) && (USB_CTL_STATUS_OUT == udev->dev.control.ctl_state)) {
 289:drv_usbd_int.c ****                         usb_ctlep_startout (udev);
 290:drv_usbd_int.c ****                     }
 291:drv_usbd_int.c ****                 }
 292:drv_usbd_int.c ****             }
 293:drv_usbd_int.c **** 
 294:drv_usbd_int.c ****             /* setup phase finished interrupt (control endpoints) */
 295:drv_usbd_int.c ****             if (oepintr & DOEPINTF_STPF) {
 296:drv_usbd_int.c ****                 /* inform the upper layer that a setup packet is available */
 297:drv_usbd_int.c ****                 if ((0U == ep_num) && (0U != setupc_flag)) {
 298:drv_usbd_int.c ****                     usbd_setup_transc (udev);
 299:drv_usbd_int.c **** 
 300:drv_usbd_int.c ****                     setupc_flag = 0U;
 301:drv_usbd_int.c **** 
 302:drv_usbd_int.c ****                     udev->regs.er_out[ep_num]->DOEPINTF = DOEPINTF_STPF;
 303:drv_usbd_int.c ****                 }
 304:drv_usbd_int.c ****             }
 305:drv_usbd_int.c ****         }
 306:drv_usbd_int.c ****     }
 307:drv_usbd_int.c **** 
 308:drv_usbd_int.c ****     return 1;
 309:drv_usbd_int.c **** }
GAS LISTING C:\Users\Uzair\AppData\Local\Temp\cct7wlYq.s 			page 8


 310:drv_usbd_int.c **** 
 311:drv_usbd_int.c **** /*!
 312:drv_usbd_int.c ****     \brief      indicates that an IN endpoint has a pending interrupt
 313:drv_usbd_int.c ****     \param[in]  udev: pointer to usb device instance
 314:drv_usbd_int.c ****     \param[out] none
 315:drv_usbd_int.c ****     \retval     operation status
 316:drv_usbd_int.c **** */
 317:drv_usbd_int.c **** static uint32_t usbd_int_epin (usb_core_driver *udev)
 318:drv_usbd_int.c **** {
 319:drv_usbd_int.c ****     uint32_t epintnum = 0U;
 320:drv_usbd_int.c ****     uint32_t ep_num = 0U;
 321:drv_usbd_int.c **** 
 322:drv_usbd_int.c ****     for (epintnum = usb_iepintnum_read (udev); epintnum; epintnum >>= 1, ep_num++) {
 323:drv_usbd_int.c ****         if (epintnum & 0x1U) {
 324:drv_usbd_int.c ****             __IO uint32_t iepintr = usb_iepintr_read (udev, ep_num);
 325:drv_usbd_int.c **** 
 326:drv_usbd_int.c ****             if (iepintr & DIEPINTF_TF) {
 327:drv_usbd_int.c ****                 udev->regs.er_in[ep_num]->DIEPINTF = DIEPINTF_TF;
 328:drv_usbd_int.c **** 
 329:drv_usbd_int.c ****                 /* data transmittion is completed */
 330:drv_usbd_int.c ****                 usbd_in_transc (udev, ep_num);
 331:drv_usbd_int.c **** 
 332:drv_usbd_int.c ****                 if (USB_USE_DMA == udev->bp.transfer_mode) {
 333:drv_usbd_int.c ****                     if ((0U == ep_num) && (USB_CTL_STATUS_IN == udev->dev.control.ctl_state)) {
 334:drv_usbd_int.c ****                         usb_ctlep_startout (udev);
 335:drv_usbd_int.c ****                     }
 336:drv_usbd_int.c ****                 }
 337:drv_usbd_int.c ****             }
 338:drv_usbd_int.c **** 
 339:drv_usbd_int.c ****             if (iepintr & DIEPINTF_TXFE) {
 340:drv_usbd_int.c ****                 usbd_emptytxfifo_write (udev, ep_num);
 341:drv_usbd_int.c **** 
 342:drv_usbd_int.c ****                 udev->regs.er_in[ep_num]->DIEPINTF = DIEPINTF_TXFE;
 343:drv_usbd_int.c ****             }
 344:drv_usbd_int.c ****         }
 345:drv_usbd_int.c ****     }
 346:drv_usbd_int.c **** 
 347:drv_usbd_int.c ****     return 1;
 348:drv_usbd_int.c **** }
 349:drv_usbd_int.c **** 
 350:drv_usbd_int.c **** /*!
 351:drv_usbd_int.c ****     \brief      handle the RX status queue level interrupt
 352:drv_usbd_int.c ****     \param[in]  udev: pointer to usb device instance
 353:drv_usbd_int.c ****     \param[out] none
 354:drv_usbd_int.c ****     \retval     operation status
 355:drv_usbd_int.c **** */
 356:drv_usbd_int.c **** static uint32_t usbd_int_rxfifo (usb_core_driver *udev)
 357:drv_usbd_int.c **** {
 358:drv_usbd_int.c ****     usb_transc *transc = NULL;
 359:drv_usbd_int.c **** 
 360:drv_usbd_int.c ****     uint8_t data_PID = 0;
 361:drv_usbd_int.c ****     uint32_t bcount = 0;
 362:drv_usbd_int.c **** 
 363:drv_usbd_int.c ****     __IO uint32_t devrxstat = 0;
 364:drv_usbd_int.c **** 
 365:drv_usbd_int.c ****     /* disable the Rx status queue non-empty interrupt */
 366:drv_usbd_int.c ****     udev->regs.gr->GINTEN &= ~GINTEN_RXFNEIE;
GAS LISTING C:\Users\Uzair\AppData\Local\Temp\cct7wlYq.s 			page 9


 367:drv_usbd_int.c **** 
 368:drv_usbd_int.c ****     /* get the status from the top of the FIFO */
 369:drv_usbd_int.c ****     devrxstat = udev->regs.gr->GRSTATP;
 370:drv_usbd_int.c **** 
 371:drv_usbd_int.c ****     transc = &udev->dev.transc_out[devrxstat & GRSTATRP_EPNUM];
 372:drv_usbd_int.c **** 
 373:drv_usbd_int.c ****     bcount = (devrxstat & GRSTATRP_BCOUNT) >> 4;
 374:drv_usbd_int.c ****     data_PID = (devrxstat & GRSTATRP_DPID) >> 15;
 375:drv_usbd_int.c **** 
 376:drv_usbd_int.c ****     switch ((devrxstat & GRSTATRP_RPCKST) >> 17) {
 377:drv_usbd_int.c ****         case RSTAT_GOUT_NAK:
 378:drv_usbd_int.c ****             break;
 379:drv_usbd_int.c **** 
 380:drv_usbd_int.c ****         case RSTAT_DATA_UPDT:
 381:drv_usbd_int.c ****             if (bcount > 0) {
 382:drv_usbd_int.c ****                 usb_rxfifo_read (&udev->regs, transc->xfer_buf, bcount);
 383:drv_usbd_int.c **** 
 384:drv_usbd_int.c ****                 transc->xfer_buf += bcount;
 385:drv_usbd_int.c ****                 transc->xfer_count += bcount;
 386:drv_usbd_int.c ****             }
 387:drv_usbd_int.c ****             break;
 388:drv_usbd_int.c **** 
 389:drv_usbd_int.c ****         case RSTAT_XFER_COMP:
 390:drv_usbd_int.c ****             /* trigger the OUT enpoint interrupt */
 391:drv_usbd_int.c ****             break;
 392:drv_usbd_int.c **** 
 393:drv_usbd_int.c ****         case RSTAT_SETUP_COMP:
 394:drv_usbd_int.c ****             /* trigger the OUT enpoint interrupt */
 395:drv_usbd_int.c ****             break;
 396:drv_usbd_int.c **** 
 397:drv_usbd_int.c ****         case RSTAT_SETUP_UPDT:
 398:drv_usbd_int.c ****             if ((transc->ep_addr.num == 0) && (bcount == 8) && (data_PID == DPID_DATA0)) {
 399:drv_usbd_int.c ****                 /* copy the setup packet received in FIFO into the setup buffer in RAM */
 400:drv_usbd_int.c ****                 usb_rxfifo_read (&udev->regs, (uint8_t *)&udev->dev.control.req, bcount);
 401:drv_usbd_int.c **** 
 402:drv_usbd_int.c ****                 transc->xfer_count += bcount;
 403:drv_usbd_int.c **** 
 404:drv_usbd_int.c ****                 setupc_flag = 1;
 405:drv_usbd_int.c ****             }
 406:drv_usbd_int.c ****             break;
 407:drv_usbd_int.c **** 
 408:drv_usbd_int.c ****         default:
 409:drv_usbd_int.c ****             break;
 410:drv_usbd_int.c ****     }
 411:drv_usbd_int.c **** 
 412:drv_usbd_int.c ****     /* enable the Rx status queue level interrupt */
 413:drv_usbd_int.c ****     udev->regs.gr->GINTEN |= GINTEN_RXFNEIE;
 414:drv_usbd_int.c **** 
 415:drv_usbd_int.c ****     return 1;
 416:drv_usbd_int.c **** }
 417:drv_usbd_int.c **** 
 418:drv_usbd_int.c **** /*!
 419:drv_usbd_int.c ****     \brief      handle USB reset interrupt
 420:drv_usbd_int.c ****     \param[in]  udev: pointer to usb device instance
 421:drv_usbd_int.c ****     \param[out] none
 422:drv_usbd_int.c ****     \retval     status
 423:drv_usbd_int.c **** */
GAS LISTING C:\Users\Uzair\AppData\Local\Temp\cct7wlYq.s 			page 10


 424:drv_usbd_int.c **** static uint32_t usbd_int_reset (usb_core_driver *udev)
 425:drv_usbd_int.c **** {
 426:drv_usbd_int.c ****     uint32_t i;
 427:drv_usbd_int.c **** 
 428:drv_usbd_int.c ****     /* clear the remote wakeup signaling */
 429:drv_usbd_int.c ****     udev->regs.dr->DCTL &= ~DCTL_RWKUP;
 430:drv_usbd_int.c **** 
 431:drv_usbd_int.c ****     /* flush the Tx FIFO */
 432:drv_usbd_int.c ****     usb_txfifo_flush (&udev->regs, 0);
 433:drv_usbd_int.c **** 
 434:drv_usbd_int.c ****     for (i = 0; i < udev->bp.num_ep; i++) {
 435:drv_usbd_int.c ****         udev->regs.er_in[i]->DIEPINTF = 0xFFU;
 436:drv_usbd_int.c ****         udev->regs.er_out[i]->DOEPINTF = 0xFFU;
 437:drv_usbd_int.c ****     }
 438:drv_usbd_int.c **** 
 439:drv_usbd_int.c ****     /* clear all pending device endpoint interrupts */
 440:drv_usbd_int.c ****     udev->regs.dr->DAEPINT = 0xFFFFFFFFU;
 441:drv_usbd_int.c **** 
 442:drv_usbd_int.c ****     /* enable endpoint 0 interrupts */
 443:drv_usbd_int.c ****     udev->regs.dr->DAEPINTEN = 1U | (1U << 16);
 444:drv_usbd_int.c **** 
 445:drv_usbd_int.c ****     /* enable OUT endpoint interrupts */
 446:drv_usbd_int.c ****     udev->regs.dr->DOEPINTEN = DOEPINTEN_STPFEN | DOEPINTEN_TFEN;
 447:drv_usbd_int.c **** 
 448:drv_usbd_int.c ****     /* enable IN endpoint interrupts */
 449:drv_usbd_int.c ****     udev->regs.dr->DIEPINTEN = DIEPINTEN_TFEN;
 450:drv_usbd_int.c **** 
 451:drv_usbd_int.c ****     /* reset device address */
 452:drv_usbd_int.c ****     udev->regs.dr->DCFG &= ~DCFG_DAR;
 453:drv_usbd_int.c ****     udev->dev.dev_addr = 0U;
 454:drv_usbd_int.c **** 
 455:drv_usbd_int.c ****     /* configure endpoint 0 to receive SETUP packets */
 456:drv_usbd_int.c ****     usb_ctlep_startout (udev);
 457:drv_usbd_int.c **** 
 458:drv_usbd_int.c ****     /* clear USB reset interrupt */
 459:drv_usbd_int.c ****     udev->regs.gr->GINTF = GINTF_RST;
 460:drv_usbd_int.c **** 
 461:drv_usbd_int.c ****     udev->dev.transc_out[0] = (usb_transc) {
 462:drv_usbd_int.c ****         .ep_type = USB_EPTYPE_CTRL,
 463:drv_usbd_int.c ****         .max_len = USB_FS_EP0_MAX_LEN
 464:drv_usbd_int.c ****     };
 465:drv_usbd_int.c **** 
 466:drv_usbd_int.c ****     usb_transc_active (udev, &udev->dev.transc_out[0]);
 467:drv_usbd_int.c **** 
 468:drv_usbd_int.c ****     udev->dev.transc_in[0] = (usb_transc) {
 469:drv_usbd_int.c ****         .ep_addr = {
 470:drv_usbd_int.c ****             .dir = 1
 471:drv_usbd_int.c ****         },
 472:drv_usbd_int.c **** 
 473:drv_usbd_int.c ****         .ep_type = USB_EPTYPE_CTRL,
 474:drv_usbd_int.c ****         .max_len = USB_FS_EP0_MAX_LEN
 475:drv_usbd_int.c ****     };
 476:drv_usbd_int.c **** 
 477:drv_usbd_int.c ****     usb_transc_active (udev, &udev->dev.transc_in[0]);
 478:drv_usbd_int.c **** 
 479:drv_usbd_int.c ****     /* upon reset call usr call back */
 480:drv_usbd_int.c ****     udev->dev.cur_status = USBD_DEFAULT;
GAS LISTING C:\Users\Uzair\AppData\Local\Temp\cct7wlYq.s 			page 11


 481:drv_usbd_int.c **** 
 482:drv_usbd_int.c ****     return 1;
 483:drv_usbd_int.c **** }
 484:drv_usbd_int.c **** 
 485:drv_usbd_int.c **** /*!
 486:drv_usbd_int.c ****     \brief      handle USB speed enumeration finish interrupt
 487:drv_usbd_int.c ****     \param[in]  udev: pointer to usb device instance
 488:drv_usbd_int.c ****     \param[out] none
 489:drv_usbd_int.c ****     \retval     status
 490:drv_usbd_int.c **** */
 491:drv_usbd_int.c **** static uint32_t usbd_int_enumfinish (usb_core_driver *udev)
 492:drv_usbd_int.c **** {
 493:drv_usbd_int.c ****     uint8_t enum_speed = (uint8_t)((udev->regs.dr->DSTAT & DSTAT_ES) >> 1U);
 494:drv_usbd_int.c **** 
 495:drv_usbd_int.c ****     udev->regs.dr->DCTL &= ~DCTL_CGINAK;
 496:drv_usbd_int.c ****     udev->regs.dr->DCTL |= DCTL_CGINAK;
 497:drv_usbd_int.c **** 
 498:drv_usbd_int.c ****     udev->regs.gr->GUSBCS &= ~GUSBCS_UTT;
 499:drv_usbd_int.c **** 
 500:drv_usbd_int.c ****     /* set USB turn-around time based on device speed and PHY interface */
 501:drv_usbd_int.c ****     if (USB_SPEED[enum_speed] == USB_SPEED_HIGH) {
 502:drv_usbd_int.c ****         udev->bp.core_speed = USB_SPEED_HIGH;
 503:drv_usbd_int.c **** 
 504:drv_usbd_int.c ****         udev->regs.gr->GUSBCS |= 0x09 << 10;
 505:drv_usbd_int.c ****     } else {
 506:drv_usbd_int.c ****         udev->bp.core_speed = USB_SPEED_FULL;
 507:drv_usbd_int.c **** 
 508:drv_usbd_int.c ****         udev->regs.gr->GUSBCS |= 0x05 << 10;
 509:drv_usbd_int.c ****     }
 510:drv_usbd_int.c **** 
 511:drv_usbd_int.c ****     /* clear interrupt */
 512:drv_usbd_int.c ****     udev->regs.gr->GINTF = GINTF_ENUMFIF;
 513:drv_usbd_int.c **** 
 514:drv_usbd_int.c ****     return 1;
 515:drv_usbd_int.c **** }
 516:drv_usbd_int.c **** 
 517:drv_usbd_int.c **** /*!
 518:drv_usbd_int.c ****     \brief      USB suspend interrupt handler
 519:drv_usbd_int.c ****     \param[in]  udev: pointer to USB device instance
 520:drv_usbd_int.c ****     \param[out] none
 521:drv_usbd_int.c ****     \retval     operation status
 522:drv_usbd_int.c **** */
 523:drv_usbd_int.c **** static uint32_t usbd_int_suspend (usb_core_driver *udev)
 524:drv_usbd_int.c **** {
 525:drv_usbd_int.c ****    // __IO uint8_t low_power = udev->bp.low_power;
 526:drv_usbd_int.c ****    // __IO uint8_t suspend = (uint8_t)(udev->regs.dr->DSTAT & DSTAT_SPST);
 527:drv_usbd_int.c ****    // __IO uint8_t is_configured = (udev->dev.cur_status == USBD_CONFIGURED)? 1U : 0U;
 528:drv_usbd_int.c **** 
 529:drv_usbd_int.c ****    // udev->dev.backup_status = udev->dev.cur_status;
 530:drv_usbd_int.c ****    // udev->dev.cur_status = USBD_SUSPENDED;
 531:drv_usbd_int.c **** 
 532:drv_usbd_int.c ****    // if (low_power && suspend && is_configured) {
 533:drv_usbd_int.c ****         /* switch-off the otg clocks */
 534:drv_usbd_int.c ****    //     *udev->regs.PWRCLKCTL |= PWRCLKCTL_SUCLK | PWRCLKCTL_SHCLK;
 535:drv_usbd_int.c **** 
 536:drv_usbd_int.c ****         /* enter DEEP_SLEEP mode with LDO in low power mode */
 537:drv_usbd_int.c ****    //     pmu_to_deepsleepmode(PMU_LDO_LOWPOWER, WFI_CMD);
GAS LISTING C:\Users\Uzair\AppData\Local\Temp\cct7wlYq.s 			page 12


 538:drv_usbd_int.c ****     //}
 539:drv_usbd_int.c **** 
 540:drv_usbd_int.c ****     /* clear interrupt */
 541:drv_usbd_int.c ****     udev->regs.gr->GINTF = GINTF_SP;
  88              		.loc 1 541 5
  89              		.loc 1 541 15 is_stmt 0
  90 004e 1844     		lw	a4,8(s0)
  91              		.loc 1 541 26
  92 0050 5CCB     		sw	a5,20(a4)
 542:drv_usbd_int.c **** 
 543:drv_usbd_int.c ****     return 1U;
  93              		.loc 1 543 5 is_stmt 1
  94              	.LVL5:
  95              	.L7:
  96              	.LBE7:
  97              	.LBE6:
 167:drv_usbd_int.c ****             /* inform upper layer by the resume event */
  98              		.loc 1 167 9
 167:drv_usbd_int.c ****             /* inform upper layer by the resume event */
  99              		.loc 1 167 12 is_stmt 0
 100 0052 63DC0400 		bge	s1,zero,.L8
 169:drv_usbd_int.c **** 
 101              		.loc 1 169 13 is_stmt 1
 169:drv_usbd_int.c **** 
 102              		.loc 1 169 45 is_stmt 0
 103 0056 8347740C 		lbu	a5,199(s0)
 172:drv_usbd_int.c ****         }
 104              		.loc 1 172 34
 105 005a 37070080 		li	a4,-2147483648
 169:drv_usbd_int.c **** 
 106              		.loc 1 169 45
 107 005e 93F7F70F 		andi	a5,a5,0xff
 169:drv_usbd_int.c **** 
 108              		.loc 1 169 34
 109 0062 2303F40C 		sb	a5,198(s0)
 172:drv_usbd_int.c ****         }
 110              		.loc 1 172 13 is_stmt 1
 172:drv_usbd_int.c ****         }
 111              		.loc 1 172 23 is_stmt 0
 112 0066 1C44     		lw	a5,8(s0)
 172:drv_usbd_int.c ****         }
 113              		.loc 1 172 34
 114 0068 D8CB     		sw	a4,20(a5)
 115              	.L8:
 176:drv_usbd_int.c **** 
 116              		.loc 1 176 9 is_stmt 1
 176:drv_usbd_int.c **** 
 117              		.loc 1 176 18 is_stmt 0
 118 006a 93F72400 		andi	a5,s1,2
 176:drv_usbd_int.c **** 
 119              		.loc 1 176 12
 120 006e 81C7     		beq	a5,zero,.L9
 179:drv_usbd_int.c ****         }
 121              		.loc 1 179 13 is_stmt 1
 179:drv_usbd_int.c ****         }
 122              		.loc 1 179 23 is_stmt 0
 123 0070 1C44     		lw	a5,8(s0)
GAS LISTING C:\Users\Uzair\AppData\Local\Temp\cct7wlYq.s 			page 13


 179:drv_usbd_int.c ****         }
 124              		.loc 1 179 34
 125 0072 0947     		li	a4,2
 126 0074 D8CB     		sw	a4,20(a5)
 127              	.L9:
 183:drv_usbd_int.c ****             if (udev->dev.class_core->SOF) {
 128              		.loc 1 183 9 is_stmt 1
 183:drv_usbd_int.c ****             if (udev->dev.class_core->SOF) {
 129              		.loc 1 183 18 is_stmt 0
 130 0076 93F78400 		andi	a5,s1,8
 183:drv_usbd_int.c ****             if (udev->dev.class_core->SOF) {
 131              		.loc 1 183 12
 132 007a B1C7     		beq	a5,zero,.L10
 184:drv_usbd_int.c ****                 udev->dev.class_core->SOF(udev); 
 133              		.loc 1 184 13 is_stmt 1
 184:drv_usbd_int.c ****                 udev->dev.class_core->SOF(udev); 
 134              		.loc 1 184 37 is_stmt 0
 135 007c 83270443 		lw	a5,1072(s0)
 136 0080 9C4F     		lw	a5,24(a5)
 184:drv_usbd_int.c ****                 udev->dev.class_core->SOF(udev); 
 137              		.loc 1 184 16
 138 0082 99C3     		beq	a5,zero,.L11
 185:drv_usbd_int.c ****             }
 139              		.loc 1 185 17 is_stmt 1
 140 0084 2285     		mv	a0,s0
 141 0086 8297     		jalr	a5
 142              	.LVL6:
 143              	.L11:
 188:drv_usbd_int.c ****                 setupc_flag ++;
 144              		.loc 1 188 13
 188:drv_usbd_int.c ****                 setupc_flag ++;
 145              		.loc 1 188 20 is_stmt 0
 146 0088 37090000 		lui	s2,%hi(.LANCHOR0)
 147 008c 13090900 		addi	s2,s2,%lo(.LANCHOR0)
 148 0090 83470900 		lbu	a5,0(s2)
 149 0094 93F7F70F 		andi	a5,a5,0xff
 188:drv_usbd_int.c ****                 setupc_flag ++;
 150              		.loc 1 188 16
 151 0098 85C7     		beq	a5,zero,.L13
 189:drv_usbd_int.c **** 
 152              		.loc 1 189 17 is_stmt 1
 189:drv_usbd_int.c **** 
 153              		.loc 1 189 29 is_stmt 0
 154 009a 83470900 		lbu	a5,0(s2)
 191:drv_usbd_int.c ****                     usbd_setup_transc (udev);
 155              		.loc 1 191 20
 156 009e 0947     		li	a4,2
 189:drv_usbd_int.c **** 
 157              		.loc 1 189 29
 158 00a0 8507     		addi	a5,a5,1
 159 00a2 93F7F70F 		andi	a5,a5,0xff
 160 00a6 2300F900 		sb	a5,0(s2)
 191:drv_usbd_int.c ****                     usbd_setup_transc (udev);
 161              		.loc 1 191 17 is_stmt 1
 191:drv_usbd_int.c ****                     usbd_setup_transc (udev);
 162              		.loc 1 191 33 is_stmt 0
 163 00aa 83470900 		lbu	a5,0(s2)
GAS LISTING C:\Users\Uzair\AppData\Local\Temp\cct7wlYq.s 			page 14


 191:drv_usbd_int.c ****                     usbd_setup_transc (udev);
 164              		.loc 1 191 20
 165 00ae 6379F700 		bgeu	a4,a5,.L13
 192:drv_usbd_int.c **** 
 166              		.loc 1 192 21 is_stmt 1
 167 00b2 2285     		mv	a0,s0
 168 00b4 97000000 		call	usbd_setup_transc
 168      E7800000 
 169              	.LVL7:
 194:drv_usbd_int.c ****                 }
 170              		.loc 1 194 21
 194:drv_usbd_int.c ****                 }
 171              		.loc 1 194 33 is_stmt 0
 172 00bc 23000900 		sb	zero,0(s2)
 173              	.L13:
 199:drv_usbd_int.c ****         }
 174              		.loc 1 199 13 is_stmt 1
 199:drv_usbd_int.c ****         }
 175              		.loc 1 199 23 is_stmt 0
 176 00c0 1C44     		lw	a5,8(s0)
 199:drv_usbd_int.c ****         }
 177              		.loc 1 199 34
 178 00c2 2147     		li	a4,8
 179 00c4 D8CB     		sw	a4,20(a5)
 180              	.L10:
 203:drv_usbd_int.c ****             usbd_int_rxfifo (udev);
 181              		.loc 1 203 9 is_stmt 1
 203:drv_usbd_int.c ****             usbd_int_rxfifo (udev);
 182              		.loc 1 203 18 is_stmt 0
 183 00c6 93F70401 		andi	a5,s1,16
 203:drv_usbd_int.c ****             usbd_int_rxfifo (udev);
 184              		.loc 1 203 12
 185 00ca 91C7     		beq	a5,zero,.L15
 204:drv_usbd_int.c ****         }
 186              		.loc 1 204 13 is_stmt 1
 187 00cc 2285     		mv	a0,s0
 188 00ce 97000000 		call	usbd_int_rxfifo
 188      E7800000 
 189              	.LVL8:
 190              	.L15:
 208:drv_usbd_int.c ****             usbd_int_reset (udev);
 191              		.loc 1 208 9
 208:drv_usbd_int.c ****             usbd_int_reset (udev);
 192              		.loc 1 208 12 is_stmt 0
 193 00d6 93973401 		slli	a5,s1,19
 194 00da 63D70700 		bge	a5,zero,.L16
 209:drv_usbd_int.c ****         }
 195              		.loc 1 209 13 is_stmt 1
 196 00de 2285     		mv	a0,s0
 197 00e0 97000000 		call	usbd_int_reset
 197      E7800000 
 198              	.LVL9:
 199              	.L16:
 213:drv_usbd_int.c ****             usbd_int_enumfinish (udev);
 200              		.loc 1 213 9
 213:drv_usbd_int.c ****             usbd_int_enumfinish (udev);
 201              		.loc 1 213 12 is_stmt 0
GAS LISTING C:\Users\Uzair\AppData\Local\Temp\cct7wlYq.s 			page 15


 202 00e8 93972401 		slli	a5,s1,18
 203 00ec 63D70700 		bge	a5,zero,.L17
 214:drv_usbd_int.c ****         }
 204              		.loc 1 214 13 is_stmt 1
 205 00f0 2285     		mv	a0,s0
 206 00f2 97000000 		call	usbd_int_enumfinish
 206      E7800000 
 207              	.LVL10:
 208              	.L17:
 218:drv_usbd_int.c ****             if (NULL != udev->dev.class_core->incomplete_isoc_in) {
 209              		.loc 1 218 9
 218:drv_usbd_int.c ****             if (NULL != udev->dev.class_core->incomplete_isoc_in) {
 210              		.loc 1 218 12 is_stmt 0
 211 00fa 9397B400 		slli	a5,s1,11
 212 00fe 63DC0700 		bge	a5,zero,.L18
 219:drv_usbd_int.c ****                 udev->dev.class_core->incomplete_isoc_in(udev);
 213              		.loc 1 219 13 is_stmt 1
 219:drv_usbd_int.c ****                 udev->dev.class_core->incomplete_isoc_in(udev);
 214              		.loc 1 219 45 is_stmt 0
 215 0102 83270443 		lw	a5,1072(s0)
 216 0106 DC4F     		lw	a5,28(a5)
 219:drv_usbd_int.c ****                 udev->dev.class_core->incomplete_isoc_in(udev);
 217              		.loc 1 219 16
 218 0108 99C3     		beq	a5,zero,.L19
 220:drv_usbd_int.c ****             }
 219              		.loc 1 220 17 is_stmt 1
 220 010a 2285     		mv	a0,s0
 221 010c 8297     		jalr	a5
 222              	.LVL11:
 223              	.L19:
 224:drv_usbd_int.c ****         }
 224              		.loc 1 224 13
 224:drv_usbd_int.c ****         }
 225              		.loc 1 224 23 is_stmt 0
 226 010e 1C44     		lw	a5,8(s0)
 224:drv_usbd_int.c ****         }
 227              		.loc 1 224 34
 228 0110 37071000 		li	a4,1048576
 229 0114 D8CB     		sw	a4,20(a5)
 230              	.L18:
 228:drv_usbd_int.c ****             if (NULL != udev->dev.class_core->incomplete_isoc_out) {
 231              		.loc 1 228 9 is_stmt 1
 228:drv_usbd_int.c ****             if (NULL != udev->dev.class_core->incomplete_isoc_out) {
 232              		.loc 1 228 12 is_stmt 0
 233 0116 9397A400 		slli	a5,s1,10
 234 011a 63DC0700 		bge	a5,zero,.L1
 229:drv_usbd_int.c ****                 udev->dev.class_core->incomplete_isoc_out(udev);
 235              		.loc 1 229 13 is_stmt 1
 229:drv_usbd_int.c ****                 udev->dev.class_core->incomplete_isoc_out(udev);
 236              		.loc 1 229 45 is_stmt 0
 237 011e 83270443 		lw	a5,1072(s0)
 238 0122 9C53     		lw	a5,32(a5)
 229:drv_usbd_int.c ****                 udev->dev.class_core->incomplete_isoc_out(udev);
 239              		.loc 1 229 16
 240 0124 99C3     		beq	a5,zero,.L20
 230:drv_usbd_int.c ****             }
 241              		.loc 1 230 17 is_stmt 1
GAS LISTING C:\Users\Uzair\AppData\Local\Temp\cct7wlYq.s 			page 16


 242 0126 2285     		mv	a0,s0
 243 0128 8297     		jalr	a5
 244              	.LVL12:
 245              	.L20:
 234:drv_usbd_int.c ****         }
 246              		.loc 1 234 13
 234:drv_usbd_int.c ****         }
 247              		.loc 1 234 23 is_stmt 0
 248 012a 1C44     		lw	a5,8(s0)
 234:drv_usbd_int.c ****         }
 249              		.loc 1 234 34
 250 012c 37072000 		li	a4,2097152
 251 0130 D8CB     		sw	a4,20(a5)
 252              	.LVL13:
 253              	.L1:
 254              	.LBE9:
 255:drv_usbd_int.c **** 
 255              		.loc 1 255 1
 256 0132 B240     		lw	ra,12(sp)
 257              		.cfi_restore 1
 258 0134 2244     		lw	s0,8(sp)
 259              		.cfi_restore 8
 260 0136 9244     		lw	s1,4(sp)
 261              		.cfi_restore 9
 262              	.LVL14:
 263 0138 0249     		lw	s2,0(sp)
 264              		.cfi_restore 18
 265 013a 4101     		addi	sp,sp,16
 266              	.LCFI1:
 267              		.cfi_def_cfa_offset 0
 268 013c 8280     		jr	ra
 269              	.LVL15:
 270              	.L64:
 271 013e 8280     		ret
 272              		.cfi_endproc
 273              	.LFE3:
 275              		.section	.text.usbd_int_epout,"ax",@progbits
 276              		.align	1
 278              	usbd_int_epout:
 279              	.LFB4:
 264:drv_usbd_int.c ****     uint32_t epintnum = 0U;
 280              		.loc 1 264 1 is_stmt 1
 281              		.cfi_startproc
 282              	.LVL16:
 265:drv_usbd_int.c ****     uint32_t ep_num = 0U;
 283              		.loc 1 265 5
 266:drv_usbd_int.c **** 
 284              		.loc 1 266 5
 268:drv_usbd_int.c ****         if (epintnum & 0x1) {
 285              		.loc 1 268 5
 264:drv_usbd_int.c ****     uint32_t epintnum = 0U;
 286              		.loc 1 264 1 is_stmt 0
 287 0000 3971     		addi	sp,sp,-64
 288              	.LCFI2:
 289              		.cfi_def_cfa_offset 64
 290 0002 22DC     		sw	s0,56(sp)
 291 0004 26DA     		sw	s1,52(sp)
GAS LISTING C:\Users\Uzair\AppData\Local\Temp\cct7wlYq.s 			page 17


 292 0006 4AD8     		sw	s2,48(sp)
 293 0008 4ED6     		sw	s3,44(sp)
 294 000a 52D4     		sw	s4,40(sp)
 295 000c 56D2     		sw	s5,36(sp)
 296 000e 5AD0     		sw	s6,32(sp)
 297 0010 5ECE     		sw	s7,28(sp)
 298 0012 62CC     		sw	s8,24(sp)
 299 0014 06DE     		sw	ra,60(sp)
 300 0016 66CA     		sw	s9,20(sp)
 301              		.cfi_offset 8, -8
 302              		.cfi_offset 9, -12
 303              		.cfi_offset 18, -16
 304              		.cfi_offset 19, -20
 305              		.cfi_offset 20, -24
 306              		.cfi_offset 21, -28
 307              		.cfi_offset 22, -32
 308              		.cfi_offset 23, -36
 309              		.cfi_offset 24, -40
 310              		.cfi_offset 1, -4
 311              		.cfi_offset 25, -44
 264:drv_usbd_int.c ****     uint32_t epintnum = 0U;
 312              		.loc 1 264 1
 313 0018 2A84     		mv	s0,a0
 314              	.LBB10:
 315              	.LBB11:
 281:drv_usbd_int.c ****                 }
 316              		.loc 1 281 72
 317 001a 370A0800 		li	s4,524288
 318              	.LBE11:
 319              	.LBE10:
 268:drv_usbd_int.c ****         if (epintnum & 0x1) {
 320              		.loc 1 268 21
 321 001e 97000000 		call	usb_oepintnum_read
 321      E7800000 
 322              	.LVL17:
 323 0026 2A89     		mv	s2,a0
 324              	.LVL18:
 266:drv_usbd_int.c **** 
 325              		.loc 1 266 14
 326 0028 8144     		li	s1,0
 327              	.LBB14:
 297:drv_usbd_int.c ****                     usbd_setup_transc (udev);
 328              		.loc 1 297 43
 329 002a B70A0000 		lui	s5,%hi(.LANCHOR0)
 302:drv_usbd_int.c ****                 }
 330              		.loc 1 302 57
 331 002e 214B     		li	s6,8
 275:drv_usbd_int.c **** 
 332              		.loc 1 275 53
 333 0030 8549     		li	s3,1
 288:drv_usbd_int.c ****                         usb_ctlep_startout (udev);
 334              		.loc 1 288 40
 335 0032 994B     		li	s7,6
 336 0034 614C     		li	s8,24
 337              	.LBB12:
 281:drv_usbd_int.c ****                 }
 338              		.loc 1 281 72
GAS LISTING C:\Users\Uzair\AppData\Local\Temp\cct7wlYq.s 			page 18


 339 0036 7D1A     		addi	s4,s4,-1
 340              	.LVL19:
 341              	.L68:
 342              	.LBE12:
 343              	.LBE14:
 268:drv_usbd_int.c ****         if (epintnum & 0x1) {
 344              		.loc 1 268 5 discriminator 1
 345 0038 63100902 		bne	s2,zero,.L76
 308:drv_usbd_int.c **** }
 346              		.loc 1 308 5 is_stmt 1
 309:drv_usbd_int.c **** 
 347              		.loc 1 309 1 is_stmt 0
 348 003c F250     		lw	ra,60(sp)
 349              		.cfi_remember_state
 350              		.cfi_restore 1
 351 003e 6254     		lw	s0,56(sp)
 352              		.cfi_restore 8
 353              	.LVL20:
 354 0040 D254     		lw	s1,52(sp)
 355              		.cfi_restore 9
 356              	.LVL21:
 357 0042 4259     		lw	s2,48(sp)
 358              		.cfi_restore 18
 359              	.LVL22:
 360 0044 B259     		lw	s3,44(sp)
 361              		.cfi_restore 19
 362 0046 225A     		lw	s4,40(sp)
 363              		.cfi_restore 20
 364 0048 925A     		lw	s5,36(sp)
 365              		.cfi_restore 21
 366 004a 025B     		lw	s6,32(sp)
 367              		.cfi_restore 22
 368 004c F24B     		lw	s7,28(sp)
 369              		.cfi_restore 23
 370 004e 624C     		lw	s8,24(sp)
 371              		.cfi_restore 24
 372 0050 D24C     		lw	s9,20(sp)
 373              		.cfi_restore 25
 374 0052 0545     		li	a0,1
 375 0054 2161     		addi	sp,sp,64
 376              	.LCFI3:
 377              		.cfi_def_cfa_offset 0
 378 0056 8280     		jr	ra
 379              	.LVL23:
 380              	.L76:
 381              	.LCFI4:
 382              		.cfi_restore_state
 269:drv_usbd_int.c ****             __IO uint32_t oepintr = usb_oepintr_read (udev, ep_num);
 383              		.loc 1 269 9 is_stmt 1
 269:drv_usbd_int.c ****             __IO uint32_t oepintr = usb_oepintr_read (udev, ep_num);
 384              		.loc 1 269 22 is_stmt 0
 385 0058 93771900 		andi	a5,s2,1
 269:drv_usbd_int.c ****             __IO uint32_t oepintr = usb_oepintr_read (udev, ep_num);
 386              		.loc 1 269 12
 387 005c C9CF     		beq	a5,zero,.L70
 388              	.LBB15:
 270:drv_usbd_int.c **** 
GAS LISTING C:\Users\Uzair\AppData\Local\Temp\cct7wlYq.s 			page 19


 389              		.loc 1 270 13 is_stmt 1
 390 005e 93FCF40F 		andi	s9,s1,0xff
 270:drv_usbd_int.c **** 
 391              		.loc 1 270 37 is_stmt 0
 392 0062 E685     		mv	a1,s9
 393 0064 2285     		mv	a0,s0
 394 0066 97000000 		call	usb_oepintr_read
 394      E7800000 
 395              	.LVL24:
 270:drv_usbd_int.c **** 
 396              		.loc 1 270 27
 397 006e 2AC4     		sw	a0,8(sp)
 273:drv_usbd_int.c ****                 /* clear the bit in DOEPINTF for this interrupt */
 398              		.loc 1 273 13 is_stmt 1
 273:drv_usbd_int.c ****                 /* clear the bit in DOEPINTF for this interrupt */
 399              		.loc 1 273 25 is_stmt 0
 400 0070 A247     		lw	a5,8(sp)
 401 0072 858B     		andi	a5,a5,1
 273:drv_usbd_int.c ****                 /* clear the bit in DOEPINTF for this interrupt */
 402              		.loc 1 273 16
 403 0074 A1CF     		beq	a5,zero,.L72
 275:drv_usbd_int.c **** 
 404              		.loc 1 275 17 is_stmt 1
 405 0076 93972400 		slli	a5,s1,2
 406 007a A297     		add	a5,s0,a5
 275:drv_usbd_int.c **** 
 407              		.loc 1 275 34 is_stmt 0
 408 007c D857     		lw	a4,44(a5)
 275:drv_usbd_int.c **** 
 409              		.loc 1 275 53
 410 007e 23243701 		sw	s3,8(a4)
 277:drv_usbd_int.c ****                     __IO uint32_t eplen = udev->regs.er_out[ep_num]->DOEPLEN;
 411              		.loc 1 277 17 is_stmt 1
 277:drv_usbd_int.c ****                     __IO uint32_t eplen = udev->regs.er_out[ep_num]->DOEPLEN;
 412              		.loc 1 277 20 is_stmt 0
 413 0082 83464400 		lbu	a3,4(s0)
 414 0086 639F3601 		bne	a3,s3,.L73
 415              	.LBB13:
 278:drv_usbd_int.c **** 
 416              		.loc 1 278 21 is_stmt 1
 278:drv_usbd_int.c **** 
 417              		.loc 1 278 68 is_stmt 0
 418 008a 184B     		lw	a4,16(a4)
 278:drv_usbd_int.c **** 
 419              		.loc 1 278 35
 420 008c 3AC6     		sw	a4,12(sp)
 280:drv_usbd_int.c ****                                                                 (eplen & DEPLEN_TLEN);
 421              		.loc 1 280 21 is_stmt 1
 422 008e 33878403 		mul	a4,s1,s8
 281:drv_usbd_int.c ****                 }
 423              		.loc 1 281 72 is_stmt 0
 424 0092 B246     		lw	a3,12(sp)
 425 0094 B3F64601 		and	a3,a3,s4
 426 0098 BA97     		add	a5,a5,a4
 280:drv_usbd_int.c ****                                                                 (eplen & DEPLEN_TLEN);
 427              		.loc 1 280 91
 428 009a 03D70727 		lhu	a4,624(a5)
GAS LISTING C:\Users\Uzair\AppData\Local\Temp\cct7wlYq.s 			page 20


 280:drv_usbd_int.c ****                                                                 (eplen & DEPLEN_TLEN);
 429              		.loc 1 280 100
 430 009e 158F     		sub	a4,a4,a3
 280:drv_usbd_int.c ****                                                                 (eplen & DEPLEN_TLEN);
 431              		.loc 1 280 61
 432 00a0 23AEE726 		sw	a4,636(a5)
 433              	.L73:
 434              	.LBE13:
 285:drv_usbd_int.c **** 
 435              		.loc 1 285 17 is_stmt 1
 436 00a4 E685     		mv	a1,s9
 437 00a6 2285     		mv	a0,s0
 438 00a8 97000000 		call	usbd_out_transc
 438      E7800000 
 439              	.LVL25:
 287:drv_usbd_int.c ****                     if ((0U == ep_num) && (USB_CTL_STATUS_OUT == udev->dev.control.ctl_state)) {
 440              		.loc 1 287 17
 287:drv_usbd_int.c ****                     if ((0U == ep_num) && (USB_CTL_STATUS_OUT == udev->dev.control.ctl_state)) {
 441              		.loc 1 287 20 is_stmt 0
 442 00b0 83474400 		lbu	a5,4(s0)
 443 00b4 639C3701 		bne	a5,s3,.L72
 288:drv_usbd_int.c ****                         usb_ctlep_startout (udev);
 444              		.loc 1 288 21 is_stmt 1
 288:drv_usbd_int.c ****                         usb_ctlep_startout (udev);
 445              		.loc 1 288 24 is_stmt 0
 446 00b8 91E8     		bne	s1,zero,.L72
 288:drv_usbd_int.c ****                         usb_ctlep_startout (udev);
 447              		.loc 1 288 40 discriminator 1
 448 00ba 8347C442 		lbu	a5,1068(s0)
 449 00be 63977701 		bne	a5,s7,.L72
 289:drv_usbd_int.c ****                     }
 450              		.loc 1 289 25 is_stmt 1
 451 00c2 2285     		mv	a0,s0
 452 00c4 97000000 		call	usb_ctlep_startout
 452      E7800000 
 453              	.LVL26:
 454              	.L72:
 295:drv_usbd_int.c ****                 /* inform the upper layer that a setup packet is available */
 455              		.loc 1 295 13
 295:drv_usbd_int.c ****                 /* inform the upper layer that a setup packet is available */
 456              		.loc 1 295 25 is_stmt 0
 457 00cc A247     		lw	a5,8(sp)
 458 00ce A18B     		andi	a5,a5,8
 295:drv_usbd_int.c ****                 /* inform the upper layer that a setup packet is available */
 459              		.loc 1 295 16
 460 00d0 9DC3     		beq	a5,zero,.L70
 297:drv_usbd_int.c ****                     usbd_setup_transc (udev);
 461              		.loc 1 297 17 is_stmt 1
 297:drv_usbd_int.c ****                     usbd_setup_transc (udev);
 462              		.loc 1 297 20 is_stmt 0
 463 00d2 95E0     		bne	s1,zero,.L70
 297:drv_usbd_int.c ****                     usbd_setup_transc (udev);
 464              		.loc 1 297 43 discriminator 1
 465 00d4 938C0A00 		addi	s9,s5,%lo(.LANCHOR0)
 466 00d8 83C70C00 		lbu	a5,0(s9)
 467 00dc 93F7F70F 		andi	a5,a5,0xff
 297:drv_usbd_int.c ****                     usbd_setup_transc (udev);
GAS LISTING C:\Users\Uzair\AppData\Local\Temp\cct7wlYq.s 			page 21


 468              		.loc 1 297 36 discriminator 1
 469 00e0 99CB     		beq	a5,zero,.L70
 298:drv_usbd_int.c **** 
 470              		.loc 1 298 21 is_stmt 1
 471 00e2 2285     		mv	a0,s0
 472 00e4 97000000 		call	usbd_setup_transc
 472      E7800000 
 473              	.LVL27:
 300:drv_usbd_int.c **** 
 474              		.loc 1 300 21
 302:drv_usbd_int.c ****                 }
 475              		.loc 1 302 38 is_stmt 0
 476 00ec 5C54     		lw	a5,44(s0)
 300:drv_usbd_int.c **** 
 477              		.loc 1 300 33
 478 00ee 23800C00 		sb	zero,0(s9)
 302:drv_usbd_int.c ****                 }
 479              		.loc 1 302 21 is_stmt 1
 302:drv_usbd_int.c ****                 }
 480              		.loc 1 302 57 is_stmt 0
 481 00f2 23A46701 		sw	s6,8(a5)
 482              	.L70:
 483              	.LBE15:
 268:drv_usbd_int.c ****         if (epintnum & 0x1) {
 484              		.loc 1 268 67 discriminator 2
 485 00f6 13591900 		srli	s2,s2,1
 486              	.LVL28:
 268:drv_usbd_int.c ****         if (epintnum & 0x1) {
 487              		.loc 1 268 80 discriminator 2
 488 00fa 8504     		addi	s1,s1,1
 489              	.LVL29:
 490 00fc 35BF     		j	.L68
 491              		.cfi_endproc
 492              	.LFE4:
 494              		.section	.text.usbd_int_epin,"ax",@progbits
 495              		.align	1
 497              	usbd_int_epin:
 498              	.LFB5:
 318:drv_usbd_int.c ****     uint32_t epintnum = 0U;
 499              		.loc 1 318 1 is_stmt 1
 500              		.cfi_startproc
 501              	.LVL30:
 319:drv_usbd_int.c ****     uint32_t ep_num = 0U;
 502              		.loc 1 319 5
 320:drv_usbd_int.c **** 
 503              		.loc 1 320 5
 322:drv_usbd_int.c ****         if (epintnum & 0x1U) {
 504              		.loc 1 322 5
 318:drv_usbd_int.c ****     uint32_t epintnum = 0U;
 505              		.loc 1 318 1 is_stmt 0
 506 0000 7971     		addi	sp,sp,-48
 507              	.LCFI5:
 508              		.cfi_def_cfa_offset 48
 509 0002 22D4     		sw	s0,40(sp)
 510 0004 26D2     		sw	s1,36(sp)
 511 0006 4AD0     		sw	s2,32(sp)
 512 0008 4ECE     		sw	s3,28(sp)
GAS LISTING C:\Users\Uzair\AppData\Local\Temp\cct7wlYq.s 			page 22


 513 000a 52CC     		sw	s4,24(sp)
 514 000c 56CA     		sw	s5,20(sp)
 515 000e 06D6     		sw	ra,44(sp)
 516 0010 5AC8     		sw	s6,16(sp)
 517              		.cfi_offset 8, -8
 518              		.cfi_offset 9, -12
 519              		.cfi_offset 18, -16
 520              		.cfi_offset 19, -20
 521              		.cfi_offset 20, -24
 522              		.cfi_offset 21, -28
 523              		.cfi_offset 1, -4
 524              		.cfi_offset 22, -32
 318:drv_usbd_int.c ****     uint32_t epintnum = 0U;
 525              		.loc 1 318 1
 526 0012 2A84     		mv	s0,a0
 322:drv_usbd_int.c ****         if (epintnum & 0x1U) {
 527              		.loc 1 322 21
 528 0014 97000000 		call	usb_iepintnum_read
 528      E7800000 
 529              	.LVL31:
 530 001c 2A89     		mv	s2,a0
 531              	.LVL32:
 320:drv_usbd_int.c **** 
 532              		.loc 1 320 14
 533 001e 8144     		li	s1,0
 534              	.LBB16:
 342:drv_usbd_int.c ****             }
 535              		.loc 1 342 52
 536 0020 130A0008 		li	s4,128
 327:drv_usbd_int.c **** 
 537              		.loc 1 327 52
 538 0024 8549     		li	s3,1
 333:drv_usbd_int.c ****                         usb_ctlep_startout (udev);
 539              		.loc 1 333 40
 540 0026 954A     		li	s5,5
 541              	.LVL33:
 542              	.L85:
 543              	.LBE16:
 322:drv_usbd_int.c ****         if (epintnum & 0x1U) {
 544              		.loc 1 322 5 discriminator 1
 545 0028 631D0900 		bne	s2,zero,.L92
 347:drv_usbd_int.c **** }
 546              		.loc 1 347 5 is_stmt 1
 348:drv_usbd_int.c **** 
 547              		.loc 1 348 1 is_stmt 0
 548 002c B250     		lw	ra,44(sp)
 549              		.cfi_remember_state
 550              		.cfi_restore 1
 551 002e 2254     		lw	s0,40(sp)
 552              		.cfi_restore 8
 553              	.LVL34:
 554 0030 9254     		lw	s1,36(sp)
 555              		.cfi_restore 9
 556              	.LVL35:
 557 0032 0259     		lw	s2,32(sp)
 558              		.cfi_restore 18
 559              	.LVL36:
GAS LISTING C:\Users\Uzair\AppData\Local\Temp\cct7wlYq.s 			page 23


 560 0034 F249     		lw	s3,28(sp)
 561              		.cfi_restore 19
 562 0036 624A     		lw	s4,24(sp)
 563              		.cfi_restore 20
 564 0038 D24A     		lw	s5,20(sp)
 565              		.cfi_restore 21
 566 003a 424B     		lw	s6,16(sp)
 567              		.cfi_restore 22
 568 003c 0545     		li	a0,1
 569 003e 4561     		addi	sp,sp,48
 570              	.LCFI6:
 571              		.cfi_def_cfa_offset 0
 572 0040 8280     		jr	ra
 573              	.LVL37:
 574              	.L92:
 575              	.LCFI7:
 576              		.cfi_restore_state
 323:drv_usbd_int.c ****             __IO uint32_t iepintr = usb_iepintr_read (udev, ep_num);
 577              		.loc 1 323 9 is_stmt 1
 323:drv_usbd_int.c ****             __IO uint32_t iepintr = usb_iepintr_read (udev, ep_num);
 578              		.loc 1 323 22 is_stmt 0
 579 0042 93771900 		andi	a5,s2,1
 323:drv_usbd_int.c ****             __IO uint32_t iepintr = usb_iepintr_read (udev, ep_num);
 580              		.loc 1 323 12
 581 0046 BDC7     		beq	a5,zero,.L87
 582              	.LBB17:
 324:drv_usbd_int.c **** 
 583              		.loc 1 324 13 is_stmt 1
 584 0048 13FBF40F 		andi	s6,s1,0xff
 324:drv_usbd_int.c **** 
 585              		.loc 1 324 37 is_stmt 0
 586 004c DA85     		mv	a1,s6
 587 004e 2285     		mv	a0,s0
 588 0050 97000000 		call	usb_iepintr_read
 588      E7800000 
 589              	.LVL38:
 324:drv_usbd_int.c **** 
 590              		.loc 1 324 27
 591 0058 2AC6     		sw	a0,12(sp)
 326:drv_usbd_int.c ****                 udev->regs.er_in[ep_num]->DIEPINTF = DIEPINTF_TF;
 592              		.loc 1 326 13 is_stmt 1
 326:drv_usbd_int.c ****                 udev->regs.er_in[ep_num]->DIEPINTF = DIEPINTF_TF;
 593              		.loc 1 326 25 is_stmt 0
 594 005a B247     		lw	a5,12(sp)
 595 005c 858B     		andi	a5,a5,1
 326:drv_usbd_int.c ****                 udev->regs.er_in[ep_num]->DIEPINTF = DIEPINTF_TF;
 596              		.loc 1 326 16
 597 005e 9DCB     		beq	a5,zero,.L89
 327:drv_usbd_int.c **** 
 598              		.loc 1 327 17 is_stmt 1
 327:drv_usbd_int.c **** 
 599              		.loc 1 327 33 is_stmt 0
 600 0060 93972400 		slli	a5,s1,2
 601 0064 A297     		add	a5,s0,a5
 602 0066 DC4B     		lw	a5,20(a5)
 330:drv_usbd_int.c **** 
 603              		.loc 1 330 17
GAS LISTING C:\Users\Uzair\AppData\Local\Temp\cct7wlYq.s 			page 24


 604 0068 DA85     		mv	a1,s6
 605 006a 2285     		mv	a0,s0
 327:drv_usbd_int.c **** 
 606              		.loc 1 327 52
 607 006c 23A43701 		sw	s3,8(a5)
 330:drv_usbd_int.c **** 
 608              		.loc 1 330 17 is_stmt 1
 609 0070 97000000 		call	usbd_in_transc
 609      E7800000 
 610              	.LVL39:
 332:drv_usbd_int.c ****                     if ((0U == ep_num) && (USB_CTL_STATUS_IN == udev->dev.control.ctl_state)) {
 611              		.loc 1 332 17
 332:drv_usbd_int.c ****                     if ((0U == ep_num) && (USB_CTL_STATUS_IN == udev->dev.control.ctl_state)) {
 612              		.loc 1 332 20 is_stmt 0
 613 0078 83474400 		lbu	a5,4(s0)
 614 007c 639C3701 		bne	a5,s3,.L89
 333:drv_usbd_int.c ****                         usb_ctlep_startout (udev);
 615              		.loc 1 333 21 is_stmt 1
 333:drv_usbd_int.c ****                         usb_ctlep_startout (udev);
 616              		.loc 1 333 24 is_stmt 0
 617 0080 91E8     		bne	s1,zero,.L89
 333:drv_usbd_int.c ****                         usb_ctlep_startout (udev);
 618              		.loc 1 333 40 discriminator 1
 619 0082 8347C442 		lbu	a5,1068(s0)
 620 0086 63975701 		bne	a5,s5,.L89
 334:drv_usbd_int.c ****                     }
 621              		.loc 1 334 25 is_stmt 1
 622 008a 2285     		mv	a0,s0
 623 008c 97000000 		call	usb_ctlep_startout
 623      E7800000 
 624              	.LVL40:
 625              	.L89:
 339:drv_usbd_int.c ****                 usbd_emptytxfifo_write (udev, ep_num);
 626              		.loc 1 339 13
 339:drv_usbd_int.c ****                 usbd_emptytxfifo_write (udev, ep_num);
 627              		.loc 1 339 25 is_stmt 0
 628 0094 B247     		lw	a5,12(sp)
 629 0096 93F70708 		andi	a5,a5,128
 339:drv_usbd_int.c ****                 usbd_emptytxfifo_write (udev, ep_num);
 630              		.loc 1 339 16
 631 009a 89CF     		beq	a5,zero,.L87
 340:drv_usbd_int.c **** 
 632              		.loc 1 340 17 is_stmt 1
 633 009c A685     		mv	a1,s1
 634 009e 2285     		mv	a0,s0
 635 00a0 97000000 		call	usbd_emptytxfifo_write
 635      E7800000 
 636              	.LVL41:
 342:drv_usbd_int.c ****             }
 637              		.loc 1 342 17
 342:drv_usbd_int.c ****             }
 638              		.loc 1 342 33 is_stmt 0
 639 00a8 93972400 		slli	a5,s1,2
 640 00ac A297     		add	a5,s0,a5
 641 00ae DC4B     		lw	a5,20(a5)
 342:drv_usbd_int.c ****             }
 642              		.loc 1 342 52
GAS LISTING C:\Users\Uzair\AppData\Local\Temp\cct7wlYq.s 			page 25


 643 00b0 23A44701 		sw	s4,8(a5)
 644              	.L87:
 645              	.LBE17:
 322:drv_usbd_int.c ****         if (epintnum & 0x1U) {
 646              		.loc 1 322 67 discriminator 2
 647 00b4 13591900 		srli	s2,s2,1
 648              	.LVL42:
 322:drv_usbd_int.c ****         if (epintnum & 0x1U) {
 649              		.loc 1 322 80 discriminator 2
 650 00b8 8504     		addi	s1,s1,1
 651              	.LVL43:
 652 00ba BDB7     		j	.L85
 653              		.cfi_endproc
 654              	.LFE5:
 656              		.section	.text.usbd_int_rxfifo,"ax",@progbits
 657              		.align	1
 659              	usbd_int_rxfifo:
 660              	.LFB6:
 357:drv_usbd_int.c ****     usb_transc *transc = NULL;
 661              		.loc 1 357 1 is_stmt 1
 662              		.cfi_startproc
 663              	.LVL44:
 358:drv_usbd_int.c **** 
 664              		.loc 1 358 5
 360:drv_usbd_int.c ****     uint32_t bcount = 0;
 665              		.loc 1 360 5
 361:drv_usbd_int.c **** 
 666              		.loc 1 361 5
 363:drv_usbd_int.c **** 
 667              		.loc 1 363 5
 366:drv_usbd_int.c **** 
 668              		.loc 1 366 15 is_stmt 0
 669 0000 1C45     		lw	a5,8(a0)
 357:drv_usbd_int.c ****     usb_transc *transc = NULL;
 670              		.loc 1 357 1
 671 0002 0111     		addi	sp,sp,-32
 672              	.LCFI8:
 673              		.cfi_def_cfa_offset 32
 363:drv_usbd_int.c **** 
 674              		.loc 1 363 19
 675 0004 02C6     		sw	zero,12(sp)
 366:drv_usbd_int.c **** 
 676              		.loc 1 366 5 is_stmt 1
 366:drv_usbd_int.c **** 
 677              		.loc 1 366 27 is_stmt 0
 678 0006 984F     		lw	a4,24(a5)
 357:drv_usbd_int.c ****     usb_transc *transc = NULL;
 679              		.loc 1 357 1
 680 0008 22CC     		sw	s0,24(sp)
 681 000a 26CA     		sw	s1,20(sp)
 682 000c 4AC8     		sw	s2,16(sp)
 366:drv_usbd_int.c **** 
 683              		.loc 1 366 27
 684 000e 3D9B     		andi	a4,a4,-17
 357:drv_usbd_int.c ****     usb_transc *transc = NULL;
 685              		.loc 1 357 1
 686 0010 06CE     		sw	ra,28(sp)
GAS LISTING C:\Users\Uzair\AppData\Local\Temp\cct7wlYq.s 			page 26


 687              		.cfi_offset 8, -8
 688              		.cfi_offset 9, -12
 689              		.cfi_offset 18, -16
 690              		.cfi_offset 1, -4
 366:drv_usbd_int.c **** 
 691              		.loc 1 366 27
 692 0012 98CF     		sw	a4,24(a5)
 369:drv_usbd_int.c **** 
 693              		.loc 1 369 5 is_stmt 1
 369:drv_usbd_int.c **** 
 694              		.loc 1 369 30 is_stmt 0
 695 0014 9C53     		lw	a5,32(a5)
 376:drv_usbd_int.c ****         case RSTAT_GOUT_NAK:
 696              		.loc 1 376 5
 697 0016 8946     		li	a3,2
 357:drv_usbd_int.c ****     usb_transc *transc = NULL;
 698              		.loc 1 357 1
 699 0018 2A89     		mv	s2,a0
 369:drv_usbd_int.c **** 
 700              		.loc 1 369 15
 701 001a 3EC6     		sw	a5,12(sp)
 371:drv_usbd_int.c **** 
 702              		.loc 1 371 5 is_stmt 1
 371:drv_usbd_int.c **** 
 703              		.loc 1 371 46 is_stmt 0
 704 001c 3244     		lw	s0,12(sp)
 373:drv_usbd_int.c ****     data_PID = (devrxstat & GRSTATRP_DPID) >> 15;
 705              		.loc 1 373 44
 706 001e B244     		lw	s1,12(sp)
 374:drv_usbd_int.c **** 
 707              		.loc 1 374 44
 708 0020 3247     		lw	a4,12(sp)
 376:drv_usbd_int.c ****         case RSTAT_GOUT_NAK:
 709              		.loc 1 376 43
 710 0022 B247     		lw	a5,12(sp)
 373:drv_usbd_int.c ****     data_PID = (devrxstat & GRSTATRP_DPID) >> 15;
 711              		.loc 1 373 44
 712 0024 9180     		srli	s1,s1,4
 371:drv_usbd_int.c **** 
 713              		.loc 1 371 46
 714 0026 3D88     		andi	s0,s0,15
 715              	.LVL45:
 373:drv_usbd_int.c ****     data_PID = (devrxstat & GRSTATRP_DPID) >> 15;
 716              		.loc 1 373 5 is_stmt 1
 376:drv_usbd_int.c ****         case RSTAT_GOUT_NAK:
 717              		.loc 1 376 43 is_stmt 0
 718 0028 C583     		srli	a5,a5,17
 719 002a BD8B     		andi	a5,a5,15
 373:drv_usbd_int.c ****     data_PID = (devrxstat & GRSTATRP_DPID) >> 15;
 720              		.loc 1 373 12
 721 002c 93F4F47F 		andi	s1,s1,2047
 722              	.LVL46:
 374:drv_usbd_int.c **** 
 723              		.loc 1 374 5 is_stmt 1
 376:drv_usbd_int.c ****         case RSTAT_GOUT_NAK:
 724              		.loc 1 376 5
 725 0030 6382D702 		beq	a5,a3,.L98
GAS LISTING C:\Users\Uzair\AppData\Local\Temp\cct7wlYq.s 			page 27


 726 0034 9946     		li	a3,6
 727 0036 6387D704 		beq	a5,a3,.L99
 728              	.LVL47:
 729              	.L100:
 413:drv_usbd_int.c **** 
 730              		.loc 1 413 5
 413:drv_usbd_int.c **** 
 731              		.loc 1 413 15 is_stmt 0
 732 003a 03278900 		lw	a4,8(s2)
 416:drv_usbd_int.c **** 
 733              		.loc 1 416 1
 734 003e F240     		lw	ra,28(sp)
 735              		.cfi_remember_state
 736              		.cfi_restore 1
 737 0040 6244     		lw	s0,24(sp)
 738              		.cfi_restore 8
 413:drv_usbd_int.c **** 
 739              		.loc 1 413 27
 740 0042 1C4F     		lw	a5,24(a4)
 416:drv_usbd_int.c **** 
 741              		.loc 1 416 1
 742 0044 D244     		lw	s1,20(sp)
 743              		.cfi_restore 9
 744 0046 4249     		lw	s2,16(sp)
 745              		.cfi_restore 18
 746              	.LVL48:
 413:drv_usbd_int.c **** 
 747              		.loc 1 413 27
 748 0048 93E70701 		ori	a5,a5,16
 749 004c 1CCF     		sw	a5,24(a4)
 415:drv_usbd_int.c **** }
 750              		.loc 1 415 5 is_stmt 1
 416:drv_usbd_int.c **** 
 751              		.loc 1 416 1 is_stmt 0
 752 004e 0545     		li	a0,1
 753 0050 0561     		addi	sp,sp,32
 754              	.LCFI9:
 755              		.cfi_def_cfa_offset 0
 756 0052 8280     		jr	ra
 757              	.LVL49:
 758              	.L98:
 759              	.LCFI10:
 760              		.cfi_restore_state
 381:drv_usbd_int.c ****                 usb_rxfifo_read (&udev->regs, transc->xfer_buf, bcount);
 761              		.loc 1 381 13 is_stmt 1
 381:drv_usbd_int.c ****                 usb_rxfifo_read (&udev->regs, transc->xfer_buf, bcount);
 762              		.loc 1 381 16 is_stmt 0
 763 0054 FDD0     		beq	s1,zero,.L100
 382:drv_usbd_int.c **** 
 764              		.loc 1 382 17 is_stmt 1
 765 0056 F147     		li	a5,28
 766 0058 3304F402 		mul	s0,s0,a5
 767              	.LVL50:
 768 005c 2686     		mv	a2,s1
 769 005e 2A94     		add	s0,a0,s0
 770 0060 83254427 		lw	a1,628(s0)
 771 0064 2105     		addi	a0,a0,8
GAS LISTING C:\Users\Uzair\AppData\Local\Temp\cct7wlYq.s 			page 28


 772              	.LVL51:
 773 0066 97000000 		call	usb_rxfifo_read
 773      E7800000 
 774              	.LVL52:
 384:drv_usbd_int.c ****                 transc->xfer_count += bcount;
 775              		.loc 1 384 17
 384:drv_usbd_int.c ****                 transc->xfer_count += bcount;
 776              		.loc 1 384 34 is_stmt 0
 777 006e 83274427 		lw	a5,628(s0)
 778 0072 A697     		add	a5,a5,s1
 779 0074 232AF426 		sw	a5,628(s0)
 385:drv_usbd_int.c ****             }
 780              		.loc 1 385 17 is_stmt 1
 385:drv_usbd_int.c ****             }
 781              		.loc 1 385 36 is_stmt 0
 782 0078 8327C427 		lw	a5,636(s0)
 783 007c BE94     		add	s1,a5,s1
 784              	.LVL53:
 785 007e 232E9426 		sw	s1,636(s0)
 786 0082 65BF     		j	.L100
 787              	.LVL54:
 788              	.L99:
 398:drv_usbd_int.c ****                 /* copy the setup packet received in FIFO into the setup buffer in RAM */
 789              		.loc 1 398 13 is_stmt 1
 398:drv_usbd_int.c ****                 /* copy the setup packet received in FIFO into the setup buffer in RAM */
 790              		.loc 1 398 38 is_stmt 0
 791 0084 F147     		li	a5,28
 792 0086 3304F402 		mul	s0,s0,a5
 793              	.LVL55:
 374:drv_usbd_int.c **** 
 794              		.loc 1 374 44
 795 008a 3D83     		srli	a4,a4,15
 796              	.LVL56:
 374:drv_usbd_int.c **** 
 797              		.loc 1 374 14
 798 008c 0D8B     		andi	a4,a4,3
 398:drv_usbd_int.c ****                 /* copy the setup packet received in FIFO into the setup buffer in RAM */
 799              		.loc 1 398 38
 800 008e 2A94     		add	s0,a0,s0
 801 0090 8347C426 		lbu	a5,620(s0)
 802 0094 BD8B     		andi	a5,a5,15
 398:drv_usbd_int.c ****                 /* copy the setup packet received in FIFO into the setup buffer in RAM */
 803              		.loc 1 398 16
 804 0096 D98F     		or	a5,a5,a4
 805 0098 CDF3     		bne	a5,zero,.L100
 398:drv_usbd_int.c ****                 /* copy the setup packet received in FIFO into the setup buffer in RAM */
 806              		.loc 1 398 44 discriminator 1
 807 009a A147     		li	a5,8
 808 009c E39FF4F8 		bne	s1,a5,.L100
 400:drv_usbd_int.c **** 
 809              		.loc 1 400 17 is_stmt 1
 810 00a0 93054542 		addi	a1,a0,1060
 811 00a4 2146     		li	a2,8
 812 00a6 2105     		addi	a0,a0,8
 813              	.LVL57:
 814 00a8 97000000 		call	usb_rxfifo_read
 814      E7800000 
GAS LISTING C:\Users\Uzair\AppData\Local\Temp\cct7wlYq.s 			page 29


 815              	.LVL58:
 402:drv_usbd_int.c **** 
 816              		.loc 1 402 17
 402:drv_usbd_int.c **** 
 817              		.loc 1 402 36 is_stmt 0
 818 00b0 8327C427 		lw	a5,636(s0)
 404:drv_usbd_int.c ****             }
 819              		.loc 1 404 29
 820 00b4 0547     		li	a4,1
 402:drv_usbd_int.c **** 
 821              		.loc 1 402 36
 822 00b6 A107     		addi	a5,a5,8
 823 00b8 232EF426 		sw	a5,636(s0)
 404:drv_usbd_int.c ****             }
 824              		.loc 1 404 17 is_stmt 1
 404:drv_usbd_int.c ****             }
 825              		.loc 1 404 29 is_stmt 0
 826 00bc B7070000 		lui	a5,%hi(.LANCHOR0)
 827 00c0 2380E700 		sb	a4,%lo(.LANCHOR0)(a5)
 828 00c4 9DBF     		j	.L100
 829              		.cfi_endproc
 830              	.LFE6:
 832              		.section	.text.usbd_int_reset,"ax",@progbits
 833              		.align	1
 835              	usbd_int_reset:
 836              	.LFB7:
 425:drv_usbd_int.c ****     uint32_t i;
 837              		.loc 1 425 1 is_stmt 1
 838              		.cfi_startproc
 839              	.LVL59:
 426:drv_usbd_int.c **** 
 840              		.loc 1 426 5
 429:drv_usbd_int.c **** 
 841              		.loc 1 429 5
 429:drv_usbd_int.c **** 
 842              		.loc 1 429 15 is_stmt 0
 843 0000 5845     		lw	a4,12(a0)
 425:drv_usbd_int.c ****     uint32_t i;
 844              		.loc 1 425 1
 845 0002 4111     		addi	sp,sp,-16
 846              	.LCFI11:
 847              		.cfi_def_cfa_offset 16
 848 0004 22C4     		sw	s0,8(sp)
 429:drv_usbd_int.c **** 
 849              		.loc 1 429 25
 850 0006 5C43     		lw	a5,4(a4)
 425:drv_usbd_int.c ****     uint32_t i;
 851              		.loc 1 425 1
 852 0008 06C6     		sw	ra,12(sp)
 853 000a 26C2     		sw	s1,4(sp)
 429:drv_usbd_int.c **** 
 854              		.loc 1 429 25
 855 000c F99B     		andi	a5,a5,-2
 425:drv_usbd_int.c ****     uint32_t i;
 856              		.loc 1 425 1
 857 000e 4AC0     		sw	s2,0(sp)
 858              		.cfi_offset 8, -8
GAS LISTING C:\Users\Uzair\AppData\Local\Temp\cct7wlYq.s 			page 30


 859              		.cfi_offset 1, -4
 860              		.cfi_offset 9, -12
 861              		.cfi_offset 18, -16
 425:drv_usbd_int.c ****     uint32_t i;
 862              		.loc 1 425 1
 863 0010 2A84     		mv	s0,a0
 429:drv_usbd_int.c **** 
 864              		.loc 1 429 25
 865 0012 5CC3     		sw	a5,4(a4)
 432:drv_usbd_int.c **** 
 866              		.loc 1 432 5 is_stmt 1
 867 0014 8145     		li	a1,0
 868 0016 2105     		addi	a0,a0,8
 869              	.LVL60:
 870 0018 97000000 		call	usb_txfifo_flush
 870      E7800000 
 871              	.LVL61:
 434:drv_usbd_int.c ****         udev->regs.er_in[i]->DIEPINTF = 0xFFU;
 872              		.loc 1 434 5
 434:drv_usbd_int.c ****         udev->regs.er_in[i]->DIEPINTF = 0xFFU;
 873              		.loc 1 434 29 is_stmt 0
 874 0020 03463400 		lbu	a2,3(s0)
 875 0024 93074401 		addi	a5,s0,20
 434:drv_usbd_int.c ****         udev->regs.er_in[i]->DIEPINTF = 0xFFU;
 876              		.loc 1 434 12
 877 0028 0147     		li	a4,0
 435:drv_usbd_int.c ****         udev->regs.er_out[i]->DOEPINTF = 0xFFU;
 878              		.loc 1 435 39
 879 002a 9306F00F 		li	a3,255
 880              	.LVL62:
 881              	.L106:
 434:drv_usbd_int.c ****         udev->regs.er_in[i]->DIEPINTF = 0xFFU;
 882              		.loc 1 434 5 discriminator 1
 883 002e 636BC708 		bgtu	a2,a4,.L107
 440:drv_usbd_int.c **** 
 884              		.loc 1 440 5 is_stmt 1
 440:drv_usbd_int.c **** 
 885              		.loc 1 440 15 is_stmt 0
 886 0032 5C44     		lw	a5,12(s0)
 440:drv_usbd_int.c **** 
 887              		.loc 1 440 28
 888 0034 7D57     		li	a4,-1
 889              	.LVL63:
 449:drv_usbd_int.c **** 
 890              		.loc 1 449 30
 891 0036 8544     		li	s1,1
 440:drv_usbd_int.c **** 
 892              		.loc 1 440 28
 893 0038 98CF     		sw	a4,24(a5)
 443:drv_usbd_int.c **** 
 894              		.loc 1 443 5 is_stmt 1
 443:drv_usbd_int.c **** 
 895              		.loc 1 443 30 is_stmt 0
 896 003a 4167     		li	a4,65536
 897 003c 0507     		addi	a4,a4,1
 898 003e D8CF     		sw	a4,28(a5)
 446:drv_usbd_int.c **** 
GAS LISTING C:\Users\Uzair\AppData\Local\Temp\cct7wlYq.s 			page 31


 899              		.loc 1 446 5 is_stmt 1
 446:drv_usbd_int.c **** 
 900              		.loc 1 446 30 is_stmt 0
 901 0040 2547     		li	a4,9
 902 0042 D8CB     		sw	a4,20(a5)
 449:drv_usbd_int.c **** 
 903              		.loc 1 449 5 is_stmt 1
 449:drv_usbd_int.c **** 
 904              		.loc 1 449 30 is_stmt 0
 905 0044 84CB     		sw	s1,16(a5)
 452:drv_usbd_int.c ****     udev->dev.dev_addr = 0U;
 906              		.loc 1 452 5 is_stmt 1
 452:drv_usbd_int.c ****     udev->dev.dev_addr = 0U;
 907              		.loc 1 452 25 is_stmt 0
 908 0046 9843     		lw	a4,0(a5)
 456:drv_usbd_int.c **** 
 909              		.loc 1 456 5
 910 0048 2285     		mv	a0,s0
 461:drv_usbd_int.c ****         .ep_type = USB_EPTYPE_CTRL,
 911              		.loc 1 461 29
 912 004a 13090004 		li	s2,64
 452:drv_usbd_int.c ****     udev->dev.dev_addr = 0U;
 913              		.loc 1 452 25
 914 004e 1377F780 		andi	a4,a4,-2033
 915 0052 98C3     		sw	a4,0(a5)
 453:drv_usbd_int.c **** 
 916              		.loc 1 453 5 is_stmt 1
 453:drv_usbd_int.c **** 
 917              		.loc 1 453 24 is_stmt 0
 918 0054 A302040C 		sb	zero,197(s0)
 456:drv_usbd_int.c **** 
 919              		.loc 1 456 5 is_stmt 1
 920 0058 97000000 		call	usb_ctlep_startout
 920      E7800000 
 921              	.LVL64:
 459:drv_usbd_int.c **** 
 922              		.loc 1 459 5
 459:drv_usbd_int.c **** 
 923              		.loc 1 459 15 is_stmt 0
 924 0060 1C44     		lw	a5,8(s0)
 459:drv_usbd_int.c **** 
 925              		.loc 1 459 26
 926 0062 0567     		li	a4,4096
 461:drv_usbd_int.c ****         .ep_type = USB_EPTYPE_CTRL,
 927              		.loc 1 461 29
 928 0064 7146     		li	a2,28
 459:drv_usbd_int.c **** 
 929              		.loc 1 459 26
 930 0066 D8CB     		sw	a4,20(a5)
 461:drv_usbd_int.c ****         .ep_type = USB_EPTYPE_CTRL,
 931              		.loc 1 461 5 is_stmt 1
 461:drv_usbd_int.c ****         .ep_type = USB_EPTYPE_CTRL,
 932              		.loc 1 461 29 is_stmt 0
 933 0068 9307C426 		addi	a5,s0,620
 934 006c 3E85     		mv	a0,a5
 935 006e 8145     		li	a1,0
 936 0070 97000000 		call	memset
GAS LISTING C:\Users\Uzair\AppData\Local\Temp\cct7wlYq.s 			page 32


 936      E7800000 
 937              	.LVL65:
 466:drv_usbd_int.c **** 
 938              		.loc 1 466 5
 939 0078 AA85     		mv	a1,a0
 461:drv_usbd_int.c ****         .ep_type = USB_EPTYPE_CTRL,
 940              		.loc 1 461 29
 941 007a 23182427 		sh	s2,624(s0)
 466:drv_usbd_int.c **** 
 942              		.loc 1 466 5 is_stmt 1
 943 007e 2285     		mv	a0,s0
 944 0080 97000000 		call	usb_transc_active
 944      E7800000 
 945              	.LVL66:
 468:drv_usbd_int.c ****         .ep_addr = {
 946              		.loc 1 468 5
 468:drv_usbd_int.c ****         .ep_addr = {
 947              		.loc 1 468 28 is_stmt 0
 948 0088 9307840C 		addi	a5,s0,200
 949 008c 7146     		li	a2,28
 950 008e 8145     		li	a1,0
 951 0090 3E85     		mv	a0,a5
 952 0092 97000000 		call	memset
 952      E7800000 
 953              	.LVL67:
 954 009a 130700F8 		li	a4,-128
 955 009e 2316240D 		sh	s2,204(s0)
 477:drv_usbd_int.c **** 
 956              		.loc 1 477 5 is_stmt 1
 468:drv_usbd_int.c ****         .ep_addr = {
 957              		.loc 1 468 28 is_stmt 0
 958 00a2 2304E40C 		sb	a4,200(s0)
 477:drv_usbd_int.c **** 
 959              		.loc 1 477 5
 960 00a6 AA85     		mv	a1,a0
 961 00a8 2285     		mv	a0,s0
 962 00aa 97000000 		call	usb_transc_active
 962      E7800000 
 963              	.LVL68:
 480:drv_usbd_int.c **** 
 964              		.loc 1 480 5 is_stmt 1
 483:drv_usbd_int.c **** 
 965              		.loc 1 483 1 is_stmt 0
 966 00b2 B240     		lw	ra,12(sp)
 967              		.cfi_remember_state
 968              		.cfi_restore 1
 480:drv_usbd_int.c **** 
 969              		.loc 1 480 26
 970 00b4 2303940C 		sb	s1,198(s0)
 482:drv_usbd_int.c **** }
 971              		.loc 1 482 5 is_stmt 1
 483:drv_usbd_int.c **** 
 972              		.loc 1 483 1 is_stmt 0
 973 00b8 2244     		lw	s0,8(sp)
 974              		.cfi_restore 8
 975              	.LVL69:
 976 00ba 9244     		lw	s1,4(sp)
GAS LISTING C:\Users\Uzair\AppData\Local\Temp\cct7wlYq.s 			page 33


 977              		.cfi_restore 9
 978 00bc 0249     		lw	s2,0(sp)
 979              		.cfi_restore 18
 980 00be 0545     		li	a0,1
 981 00c0 4101     		addi	sp,sp,16
 982              	.LCFI12:
 983              		.cfi_def_cfa_offset 0
 984 00c2 8280     		jr	ra
 985              	.LVL70:
 986              	.L107:
 987              	.LCFI13:
 988              		.cfi_restore_state
 435:drv_usbd_int.c ****         udev->regs.er_out[i]->DOEPINTF = 0xFFU;
 989              		.loc 1 435 9 is_stmt 1 discriminator 3
 435:drv_usbd_int.c ****         udev->regs.er_out[i]->DOEPINTF = 0xFFU;
 990              		.loc 1 435 25 is_stmt 0 discriminator 3
 991 00c4 8C43     		lw	a1,0(a5)
 434:drv_usbd_int.c ****         udev->regs.er_in[i]->DIEPINTF = 0xFFU;
 992              		.loc 1 434 39 discriminator 3
 993 00c6 0507     		addi	a4,a4,1
 994              	.LVL71:
 995 00c8 9107     		addi	a5,a5,4
 435:drv_usbd_int.c ****         udev->regs.er_out[i]->DOEPINTF = 0xFFU;
 996              		.loc 1 435 39 discriminator 3
 997 00ca 94C5     		sw	a3,8(a1)
 436:drv_usbd_int.c ****     }
 998              		.loc 1 436 9 is_stmt 1 discriminator 3
 999              	.LVL72:
 436:drv_usbd_int.c ****     }
 1000              		.loc 1 436 26 is_stmt 0 discriminator 3
 1001 00cc CC4B     		lw	a1,20(a5)
 436:drv_usbd_int.c ****     }
 1002              		.loc 1 436 40 discriminator 3
 1003 00ce 94C5     		sw	a3,8(a1)
 1004 00d0 B9BF     		j	.L106
 1005              		.cfi_endproc
 1006              	.LFE7:
 1008              		.section	.text.usbd_int_enumfinish,"ax",@progbits
 1009              		.align	1
 1011              	usbd_int_enumfinish:
 1012              	.LFB8:
 492:drv_usbd_int.c ****     uint8_t enum_speed = (uint8_t)((udev->regs.dr->DSTAT & DSTAT_ES) >> 1U);
 1013              		.loc 1 492 1 is_stmt 1
 1014              		.cfi_startproc
 1015              	.LVL73:
 493:drv_usbd_int.c **** 
 1016              		.loc 1 493 5
 493:drv_usbd_int.c **** 
 1017              		.loc 1 493 47 is_stmt 0
 1018 0000 5C45     		lw	a5,12(a0)
 498:drv_usbd_int.c **** 
 1019              		.loc 1 498 27
 1020 0002 7176     		li	a2,-16384
 1021 0004 1306F63F 		addi	a2,a2,1023
 493:drv_usbd_int.c **** 
 1022              		.loc 1 493 50
 1023 0008 9847     		lw	a4,8(a5)
GAS LISTING C:\Users\Uzair\AppData\Local\Temp\cct7wlYq.s 			page 34


 1024              	.LVL74:
 495:drv_usbd_int.c ****     udev->regs.dr->DCTL |= DCTL_CGINAK;
 1025              		.loc 1 495 5 is_stmt 1
 495:drv_usbd_int.c ****     udev->regs.dr->DCTL |= DCTL_CGINAK;
 1026              		.loc 1 495 25 is_stmt 0
 1027 000a D443     		lw	a3,4(a5)
 493:drv_usbd_int.c **** 
 1028              		.loc 1 493 70
 1029 000c 0583     		srli	a4,a4,1
 1030              	.LVL75:
 495:drv_usbd_int.c ****     udev->regs.dr->DCTL |= DCTL_CGINAK;
 1031              		.loc 1 495 25
 1032 000e 93F6F6EF 		andi	a3,a3,-257
 1033 0012 D4C3     		sw	a3,4(a5)
 496:drv_usbd_int.c **** 
 1034              		.loc 1 496 5 is_stmt 1
 496:drv_usbd_int.c **** 
 1035              		.loc 1 496 25 is_stmt 0
 1036 0014 D443     		lw	a3,4(a5)
 1037 0016 93E60610 		ori	a3,a3,256
 1038 001a D4C3     		sw	a3,4(a5)
 498:drv_usbd_int.c **** 
 1039              		.loc 1 498 5 is_stmt 1
 498:drv_usbd_int.c **** 
 1040              		.loc 1 498 15 is_stmt 0
 1041 001c 1C45     		lw	a5,8(a0)
 498:drv_usbd_int.c **** 
 1042              		.loc 1 498 27
 1043 001e D447     		lw	a3,12(a5)
 1044 0020 F18E     		and	a3,a3,a2
 1045 0022 D4C7     		sw	a3,12(a5)
 501:drv_usbd_int.c ****         udev->bp.core_speed = USB_SPEED_HIGH;
 1046              		.loc 1 501 5 is_stmt 1
 501:drv_usbd_int.c ****         udev->bp.core_speed = USB_SPEED_HIGH;
 1047              		.loc 1 501 18 is_stmt 0
 1048 0024 93763700 		andi	a3,a4,3
 1049 0028 37070000 		lui	a4,%hi(.LANCHOR1)
 1050 002c 13070700 		addi	a4,a4,%lo(.LANCHOR1)
 1051 0030 3697     		add	a4,a4,a3
 501:drv_usbd_int.c ****         udev->bp.core_speed = USB_SPEED_HIGH;
 1052              		.loc 1 501 8
 1053 0032 03470700 		lbu	a4,0(a4)
 1054 0036 8D46     		li	a3,3
 1055 0038 631ED700 		bne	a4,a3,.L110
 502:drv_usbd_int.c **** 
 1056              		.loc 1 502 9 is_stmt 1
 502:drv_usbd_int.c **** 
 1057              		.loc 1 502 29 is_stmt 0
 1058 003c A300E500 		sb	a4,1(a0)
 504:drv_usbd_int.c ****     } else {
 1059              		.loc 1 504 9 is_stmt 1
 504:drv_usbd_int.c ****     } else {
 1060              		.loc 1 504 31 is_stmt 0
 1061 0040 D847     		lw	a4,12(a5)
 1062 0042 8966     		li	a3,8192
 1063 0044 93860640 		addi	a3,a3,1024
 1064 0048 558F     		or	a4,a4,a3
GAS LISTING C:\Users\Uzair\AppData\Local\Temp\cct7wlYq.s 			page 35


 1065 004a D8C7     		sw	a4,12(a5)
 1066              	.L111:
 512:drv_usbd_int.c **** 
 1067              		.loc 1 512 5 is_stmt 1
 512:drv_usbd_int.c **** 
 1068              		.loc 1 512 26 is_stmt 0
 1069 004c 0967     		li	a4,8192
 1070 004e D8CB     		sw	a4,20(a5)
 514:drv_usbd_int.c **** }
 1071              		.loc 1 514 5 is_stmt 1
 515:drv_usbd_int.c **** 
 1072              		.loc 1 515 1 is_stmt 0
 1073 0050 0545     		li	a0,1
 1074              	.LVL76:
 1075 0052 8280     		ret
 1076              	.LVL77:
 1077              	.L110:
 506:drv_usbd_int.c **** 
 1078              		.loc 1 506 9 is_stmt 1
 506:drv_usbd_int.c **** 
 1079              		.loc 1 506 29 is_stmt 0
 1080 0054 0947     		li	a4,2
 1081 0056 A300E500 		sb	a4,1(a0)
 508:drv_usbd_int.c ****     }
 1082              		.loc 1 508 9 is_stmt 1
 508:drv_usbd_int.c ****     }
 1083              		.loc 1 508 31 is_stmt 0
 1084 005a D847     		lw	a4,12(a5)
 1085 005c 8566     		li	a3,4096
 1086 005e 93860640 		addi	a3,a3,1024
 1087 0062 558F     		or	a4,a4,a3
 1088 0064 D8C7     		sw	a4,12(a5)
 1089 0066 DDB7     		j	.L111
 1090              		.cfi_endproc
 1091              	.LFE8:
 1093              		.section	.text.usbd_int_suspend,"ax",@progbits
 1094              		.align	1
 1096              	usbd_int_suspend:
 1097              	.LFB9:
 524:drv_usbd_int.c ****    // __IO uint8_t low_power = udev->bp.low_power;
 1098              		.loc 1 524 1 is_stmt 1
 1099              		.cfi_startproc
 1100              	.LVL78:
 541:drv_usbd_int.c **** 
 1101              		.loc 1 541 5
 541:drv_usbd_int.c **** 
 1102              		.loc 1 541 15 is_stmt 0
 1103 0000 1845     		lw	a4,8(a0)
 541:drv_usbd_int.c **** 
 1104              		.loc 1 541 26
 1105 0002 8567     		li	a5,4096
 1106 0004 93870780 		addi	a5,a5,-2048
 1107 0008 5CCB     		sw	a5,20(a4)
 1108              		.loc 1 543 5 is_stmt 1
 544:drv_usbd_int.c **** }
 1109              		.loc 1 544 1 is_stmt 0
 1110 000a 0545     		li	a0,1
GAS LISTING C:\Users\Uzair\AppData\Local\Temp\cct7wlYq.s 			page 36


 1111              	.LVL79:
 1112 000c 8280     		ret
 1113              		.cfi_endproc
 1114              	.LFE9:
 1116              		.section	.text.usbd_emptytxfifo_write,"ax",@progbits
 1117              		.align	1
 1119              	usbd_emptytxfifo_write:
 1120              	.LFB10:
 545:drv_usbd_int.c **** 
 546:drv_usbd_int.c **** /*!
 547:drv_usbd_int.c ****     \brief      check FIFO for the next packet to be loaded
 548:drv_usbd_int.c ****     \param[in]  udev: pointer to usb device instance
 549:drv_usbd_int.c ****     \param[in]  ep_num: endpoint identifier which is in (0..3)
 550:drv_usbd_int.c ****     \param[out] none
 551:drv_usbd_int.c ****     \retval     status
 552:drv_usbd_int.c **** */
 553:drv_usbd_int.c **** static uint32_t usbd_emptytxfifo_write (usb_core_driver *udev, uint32_t ep_num)
 554:drv_usbd_int.c **** {
 1121              		.loc 1 554 1 is_stmt 1
 1122              		.cfi_startproc
 1123              	.LVL80:
 555:drv_usbd_int.c ****     usb_transc *transc = NULL;
 1124              		.loc 1 555 5
 556:drv_usbd_int.c **** 
 557:drv_usbd_int.c ****     uint32_t len = 0;
 1125              		.loc 1 557 5
 558:drv_usbd_int.c ****     uint32_t word_count = 0;
 1126              		.loc 1 558 5
 559:drv_usbd_int.c **** 
 560:drv_usbd_int.c ****     transc = &udev->dev.transc_in[ep_num];
 1127              		.loc 1 560 5
 561:drv_usbd_int.c **** 
 562:drv_usbd_int.c ****     len = transc->xfer_len - transc->xfer_count;
 1128              		.loc 1 562 5
 1129              		.loc 1 562 17 is_stmt 0
 1130 0000 F147     		li	a5,28
 1131 0002 B387F502 		mul	a5,a1,a5
 554:drv_usbd_int.c ****     usb_transc *transc = NULL;
 1132              		.loc 1 554 1
 1133 0006 7971     		addi	sp,sp,-48
 1134              	.LCFI14:
 1135              		.cfi_def_cfa_offset 48
 1136 0008 4ECE     		sw	s3,28(sp)
 1137 000a 06D6     		sw	ra,44(sp)
 1138 000c 22D4     		sw	s0,40(sp)
 1139 000e 26D2     		sw	s1,36(sp)
 1140 0010 4AD0     		sw	s2,32(sp)
 1141 0012 52CC     		sw	s4,24(sp)
 1142 0014 56CA     		sw	s5,20(sp)
 1143 0016 5AC8     		sw	s6,16(sp)
 1144              		.loc 1 562 17
 1145 0018 AA97     		add	a5,a0,a5
 1146              		.loc 1 562 9
 1147 001a 03A7470D 		lw	a4,212(a5)
 1148 001e 83A6870D 		lw	a3,216(a5)
 563:drv_usbd_int.c **** 
 564:drv_usbd_int.c ****     /* get the data length to write */
GAS LISTING C:\Users\Uzair\AppData\Local\Temp\cct7wlYq.s 			page 37


 565:drv_usbd_int.c ****     if (len > transc->max_len) {
 1149              		.loc 1 565 21
 1150 0022 83D7C70C 		lhu	a5,204(a5)
 554:drv_usbd_int.c ****     usb_transc *transc = NULL;
 1151              		.loc 1 554 1
 1152 0026 5EC6     		sw	s7,12(sp)
 1153 0028 62C4     		sw	s8,8(sp)
 1154              		.cfi_offset 19, -20
 1155              		.cfi_offset 1, -4
 1156              		.cfi_offset 8, -8
 1157              		.cfi_offset 9, -12
 1158              		.cfi_offset 18, -16
 1159              		.cfi_offset 20, -24
 1160              		.cfi_offset 21, -28
 1161              		.cfi_offset 22, -32
 1162              		.cfi_offset 23, -36
 1163              		.cfi_offset 24, -40
 562:drv_usbd_int.c **** 
 1164              		.loc 1 562 9
 1165 002a 158F     		sub	a4,a4,a3
 1166              	.LVL81:
 1167              		.loc 1 565 5 is_stmt 1
 554:drv_usbd_int.c ****     usb_transc *transc = NULL;
 1168              		.loc 1 554 1 is_stmt 0
 1169 002c AA89     		mv	s3,a0
 1170              	.LVL82:
 566:drv_usbd_int.c ****         len = transc->max_len;
 567:drv_usbd_int.c ****     }
 568:drv_usbd_int.c **** 
 569:drv_usbd_int.c ****     word_count = (len + 3) / 4;
 1171              		.loc 1 569 5 is_stmt 1
 1172              		.loc 1 569 23 is_stmt 0
 1173 002e 6373F700 		bleu	a5,a4,.L114
 1174 0032 BA87     		mv	a5,a4
 1175              	.L114:
 570:drv_usbd_int.c **** 
 571:drv_usbd_int.c ****     while (((udev->regs.er_in[ep_num]->DIEPTFSTAT & DIEPTFSTAT_IEPTFS) > word_count) && \
 572:drv_usbd_int.c ****         (transc->xfer_count < transc->xfer_len)) {
 1176              		.loc 1 572 16
 1177 0034 7144     		li	s0,28
 1178              	.LVL83:
 1179 0036 33848502 		mul	s0,a1,s0
 1180              	.LVL84:
 573:drv_usbd_int.c ****         len = transc->xfer_len - transc->xfer_count;
 574:drv_usbd_int.c **** 
 575:drv_usbd_int.c ****         if (len > transc->max_len) {
 576:drv_usbd_int.c ****             len = transc->max_len;
 577:drv_usbd_int.c ****         }
 578:drv_usbd_int.c **** 
 579:drv_usbd_int.c ****         /* write FIFO in word(4bytes) */
 580:drv_usbd_int.c ****         word_count = (len + 3) / 4;
 581:drv_usbd_int.c **** 
 582:drv_usbd_int.c ****         /* write the FIFO */
 583:drv_usbd_int.c ****         usb_txfifo_write (&udev->regs, transc->xfer_buf, ep_num, len);
 584:drv_usbd_int.c **** 
 585:drv_usbd_int.c ****         transc->xfer_buf += len;
 586:drv_usbd_int.c ****         transc->xfer_count += len;
GAS LISTING C:\Users\Uzair\AppData\Local\Temp\cct7wlYq.s 			page 38


 587:drv_usbd_int.c **** 
 588:drv_usbd_int.c ****         if (transc->xfer_count == transc->xfer_len) {
 589:drv_usbd_int.c ****             /* disable the device endpoint FIFO empty interrupt */
 590:drv_usbd_int.c ****             udev->regs.dr->DIEPFEINTEN &= ~(0x01 << ep_num);
 1181              		.loc 1 590 50
 1182 003a 854A     		li	s5,1
 569:drv_usbd_int.c **** 
 1183              		.loc 1 569 23
 1184 003c 8D07     		addi	a5,a5,3
 1185              		.loc 1 590 50
 1186 003e B39ABA00 		sll	s5,s5,a1
 571:drv_usbd_int.c ****         (transc->xfer_count < transc->xfer_len)) {
 1187              		.loc 1 571 30
 1188 0042 139B2500 		slli	s6,a1,2
 571:drv_usbd_int.c ****         (transc->xfer_count < transc->xfer_len)) {
 1189              		.loc 1 571 51
 1190 0046 C16B     		li	s7,65536
 569:drv_usbd_int.c **** 
 1191              		.loc 1 569 16
 1192 0048 13DA2700 		srli	s4,a5,2
 1193              	.LVL85:
 571:drv_usbd_int.c ****         (transc->xfer_count < transc->xfer_len)) {
 1194              		.loc 1 571 5 is_stmt 1
 1195              		.loc 1 590 43 is_stmt 0
 1196 004c 93CAFAFF 		not	s5,s5
 571:drv_usbd_int.c ****         (transc->xfer_count < transc->xfer_len)) {
 1197              		.loc 1 571 30
 1198 0050 4E9B     		add	s6,s3,s6
 571:drv_usbd_int.c ****         (transc->xfer_count < transc->xfer_len)) {
 1199              		.loc 1 571 51
 1200 0052 FD1B     		addi	s7,s7,-1
 572:drv_usbd_int.c ****         len = transc->xfer_len - transc->xfer_count;
 1201              		.loc 1 572 16
 1202 0054 4E94     		add	s0,s3,s0
 583:drv_usbd_int.c **** 
 1203              		.loc 1 583 9
 1204 0056 13F9F50F 		andi	s2,a1,0xff
 1205 005a 138C8900 		addi	s8,s3,8
 1206              	.LVL86:
 1207              	.L115:
 571:drv_usbd_int.c ****         (transc->xfer_count < transc->xfer_len)) {
 1208              		.loc 1 571 30
 1209 005e 83274B01 		lw	a5,20(s6)
 571:drv_usbd_int.c ****         (transc->xfer_count < transc->xfer_len)) {
 1210              		.loc 1 571 38
 1211 0062 984F     		lw	a4,24(a5)
 571:drv_usbd_int.c ****         (transc->xfer_count < transc->xfer_len)) {
 1212              		.loc 1 571 51
 1213 0064 33777701 		and	a4,a4,s7
 571:drv_usbd_int.c ****         (transc->xfer_count < transc->xfer_len)) {
 1214              		.loc 1 571 11
 1215 0068 6378EA00 		bleu	a4,s4,.L118
 572:drv_usbd_int.c ****         len = transc->xfer_len - transc->xfer_count;
 1216              		.loc 1 572 16 discriminator 1
 1217 006c 0327840D 		lw	a4,216(s0)
 572:drv_usbd_int.c ****         len = transc->xfer_len - transc->xfer_count;
 1218              		.loc 1 572 37 discriminator 1
GAS LISTING C:\Users\Uzair\AppData\Local\Temp\cct7wlYq.s 			page 39


 1219 0070 8327440D 		lw	a5,212(s0)
 571:drv_usbd_int.c ****         (transc->xfer_count < transc->xfer_len)) {
 1220              		.loc 1 571 86 discriminator 1
 1221 0074 636FF700 		bltu	a4,a5,.L119
 1222              	.L118:
 591:drv_usbd_int.c ****         }
 592:drv_usbd_int.c ****     }
 593:drv_usbd_int.c **** 
 594:drv_usbd_int.c ****     return 1;
 1223              		.loc 1 594 5 is_stmt 1
 595:drv_usbd_int.c **** }
 1224              		.loc 1 595 1 is_stmt 0
 1225 0078 B250     		lw	ra,44(sp)
 1226              		.cfi_remember_state
 1227              		.cfi_restore 1
 1228 007a 2254     		lw	s0,40(sp)
 1229              		.cfi_restore 8
 1230 007c 9254     		lw	s1,36(sp)
 1231              		.cfi_restore 9
 1232 007e 0259     		lw	s2,32(sp)
 1233              		.cfi_restore 18
 1234 0080 F249     		lw	s3,28(sp)
 1235              		.cfi_restore 19
 1236              	.LVL87:
 1237 0082 624A     		lw	s4,24(sp)
 1238              		.cfi_restore 20
 1239              	.LVL88:
 1240 0084 D24A     		lw	s5,20(sp)
 1241              		.cfi_restore 21
 1242 0086 424B     		lw	s6,16(sp)
 1243              		.cfi_restore 22
 1244 0088 B24B     		lw	s7,12(sp)
 1245              		.cfi_restore 23
 1246 008a 224C     		lw	s8,8(sp)
 1247              		.cfi_restore 24
 1248              	.LVL89:
 1249 008c 0545     		li	a0,1
 1250 008e 4561     		addi	sp,sp,48
 1251              	.LCFI15:
 1252              		.cfi_def_cfa_offset 0
 1253 0090 8280     		jr	ra
 1254              	.LVL90:
 1255              	.L119:
 1256              	.LCFI16:
 1257              		.cfi_restore_state
 573:drv_usbd_int.c **** 
 1258              		.loc 1 573 9 is_stmt 1
 575:drv_usbd_int.c ****             len = transc->max_len;
 1259              		.loc 1 575 25 is_stmt 0
 1260 0092 8354C40C 		lhu	s1,204(s0)
 573:drv_usbd_int.c **** 
 1261              		.loc 1 573 13
 1262 0096 998F     		sub	a5,a5,a4
 1263              	.LVL91:
 575:drv_usbd_int.c ****             len = transc->max_len;
 1264              		.loc 1 575 9 is_stmt 1
 1265 0098 63F39700 		bleu	s1,a5,.L116
GAS LISTING C:\Users\Uzair\AppData\Local\Temp\cct7wlYq.s 			page 40


 1266 009c BE84     		mv	s1,a5
 1267              	.L116:
 1268              	.LVL92:
 580:drv_usbd_int.c **** 
 1269              		.loc 1 580 9
 583:drv_usbd_int.c **** 
 1270              		.loc 1 583 9 is_stmt 0
 1271 009e 8325040D 		lw	a1,208(s0)
 1272 00a2 93960401 		slli	a3,s1,16
 580:drv_usbd_int.c **** 
 1273              		.loc 1 580 27
 1274 00a6 93873400 		addi	a5,s1,3
 583:drv_usbd_int.c **** 
 1275              		.loc 1 583 9
 1276 00aa C182     		srli	a3,a3,16
 1277 00ac 4A86     		mv	a2,s2
 1278 00ae 6285     		mv	a0,s8
 580:drv_usbd_int.c **** 
 1279              		.loc 1 580 20
 1280 00b0 13DA2700 		srli	s4,a5,2
 1281              	.LVL93:
 583:drv_usbd_int.c **** 
 1282              		.loc 1 583 9 is_stmt 1
 1283 00b4 97000000 		call	usb_txfifo_write
 1283      E7800000 
 1284              	.LVL94:
 585:drv_usbd_int.c ****         transc->xfer_count += len;
 1285              		.loc 1 585 9
 586:drv_usbd_int.c **** 
 1286              		.loc 1 586 28 is_stmt 0
 1287 00bc 8327840D 		lw	a5,216(s0)
 585:drv_usbd_int.c ****         transc->xfer_count += len;
 1288              		.loc 1 585 26
 1289 00c0 0327040D 		lw	a4,208(s0)
 1290 00c4 2697     		add	a4,a4,s1
 586:drv_usbd_int.c **** 
 1291              		.loc 1 586 28
 1292 00c6 BE94     		add	s1,s1,a5
 1293              	.LVL95:
 588:drv_usbd_int.c ****             /* disable the device endpoint FIFO empty interrupt */
 1294              		.loc 1 588 12
 1295 00c8 8327440D 		lw	a5,212(s0)
 585:drv_usbd_int.c ****         transc->xfer_count += len;
 1296              		.loc 1 585 26
 1297 00cc 2328E40C 		sw	a4,208(s0)
 586:drv_usbd_int.c **** 
 1298              		.loc 1 586 9 is_stmt 1
 586:drv_usbd_int.c **** 
 1299              		.loc 1 586 28 is_stmt 0
 1300 00d0 232C940C 		sw	s1,216(s0)
 588:drv_usbd_int.c ****             /* disable the device endpoint FIFO empty interrupt */
 1301              		.loc 1 588 9 is_stmt 1
 588:drv_usbd_int.c ****             /* disable the device endpoint FIFO empty interrupt */
 1302              		.loc 1 588 12 is_stmt 0
 1303 00d4 E395F4F8 		bne	s1,a5,.L115
 590:drv_usbd_int.c ****         }
 1304              		.loc 1 590 13 is_stmt 1
GAS LISTING C:\Users\Uzair\AppData\Local\Temp\cct7wlYq.s 			page 41


 590:drv_usbd_int.c ****         }
 1305              		.loc 1 590 23 is_stmt 0
 1306 00d8 83A7C900 		lw	a5,12(s3)
 590:drv_usbd_int.c ****         }
 1307              		.loc 1 590 40
 1308 00dc D85B     		lw	a4,52(a5)
 1309 00de 33775701 		and	a4,a4,s5
 1310 00e2 D8DB     		sw	a4,52(a5)
 1311 00e4 ADBF     		j	.L115
 1312              		.cfi_endproc
 1313              	.LFE10:
 1315              		.section	.sbss.setupc_flag,"aw",@nobits
 1316              		.set	.LANCHOR0,. + 0
 1319              	setupc_flag:
 1320 0000 00       		.zero	1
 1321              		.section	.sdata2.USB_SPEED,"a"
 1322              		.align	2
 1323              		.set	.LANCHOR1,. + 0
 1326              	USB_SPEED:
 1327 0000 03       		.byte	3
 1328 0001 02       		.byte	2
 1329 0002 01       		.byte	1
 1330 0003 02       		.byte	2
 1331              		.text
 1332              	.Letext0:
 1333              		.file 2 "c:\\kth\\he1043\\toolchain-gd32v-v202-win\\toolchain-gd32v-v202-win\\compiler\\riscv64-un
 1334              		.file 3 "c:\\kth\\he1043\\toolchain-gd32v-v202-win\\toolchain-gd32v-v202-win\\compiler\\riscv64-un
 1335              		.file 4 "drv_usb_regs.h"
 1336              		.file 5 "./../../firmware/GD32VF103_standard_peripheral/system_gd32vf103.h"
 1337              		.file 6 "usb_ch9_std.h"
 1338              		.file 7 "drv_usb_core.h"
 1339              		.file 8 "drv_usb_dev.h"
 1340              		.file 9 "usbd_core.h"
 1341              		.file 10 "usbd_transc.h"
 1342              		.file 11 "<built-in>"
GAS LISTING C:\Users\Uzair\AppData\Local\Temp\cct7wlYq.s 			page 42

