GAS LISTING C:\Users\Uzair\AppData\Local\Temp\ccH4xex5.s 			page 1


   1              		.file	"drv_usb_dev.c"
   2              		.option nopic
   3              		.attribute arch, "rv32i2p0_m2p0_a2p0_c2p0"
   4              		.attribute unaligned_access, 0
   5              		.attribute stack_align, 16
   6              		.text
   7              	.Ltext0:
   8              		.cfi_sections	.debug_frame
   9              		.section	.text.usb_devint_enable,"ax",@progbits
  10              		.align	1
  11              		.globl	usb_devint_enable
  13              	usb_devint_enable:
  14              	.LFB4:
  15              		.file 1 "drv_usb_dev.c"
   1:drv_usb_dev.c **** /*!
   2:drv_usb_dev.c ****     \file  drv_usb_dev.c
   3:drv_usb_dev.c ****     \brief USB device mode low level driver
   4:drv_usb_dev.c **** 
   5:drv_usb_dev.c ****     \version 2019-6-5, V1.0.0, firmware for GD32 USBFS&USBHS
   6:drv_usb_dev.c **** */
   7:drv_usb_dev.c **** 
   8:drv_usb_dev.c **** /*
   9:drv_usb_dev.c ****     Copyright (c) 2019, GigaDevice Semiconductor Inc.
  10:drv_usb_dev.c **** 
  11:drv_usb_dev.c ****     Redistribution and use in source and binary forms, with or without modification, 
  12:drv_usb_dev.c **** are permitted provided that the following conditions are met:
  13:drv_usb_dev.c **** 
  14:drv_usb_dev.c ****     1. Redistributions of source code must retain the above copyright notice, this 
  15:drv_usb_dev.c ****        list of conditions and the following disclaimer.
  16:drv_usb_dev.c ****     2. Redistributions in binary form must reproduce the above copyright notice, 
  17:drv_usb_dev.c ****        this list of conditions and the following disclaimer in the documentation 
  18:drv_usb_dev.c ****        and/or other materials provided with the distribution.
  19:drv_usb_dev.c ****     3. Neither the name of the copyright holder nor the names of its contributors 
  20:drv_usb_dev.c ****        may be used to endorse or promote products derived from this software without 
  21:drv_usb_dev.c ****        specific prior written permission.
  22:drv_usb_dev.c **** 
  23:drv_usb_dev.c ****     THIS SOFTWARE IS PROVIDED BY THE COPYRIGHT HOLDERS AND CONTRIBUTORS "AS IS" 
  24:drv_usb_dev.c **** AND ANY EXPRESS OR IMPLIED WARRANTIES, INCLUDING, BUT NOT LIMITED TO, THE IMPLIED 
  25:drv_usb_dev.c **** WARRANTIES OF MERCHANTABILITY AND FITNESS FOR A PARTICULAR PURPOSE ARE DISCLAIMED. 
  26:drv_usb_dev.c **** IN NO EVENT SHALL THE COPYRIGHT HOLDER OR CONTRIBUTORS BE LIABLE FOR ANY DIRECT, 
  27:drv_usb_dev.c **** INDIRECT, INCIDENTAL, SPECIAL, EXEMPLARY, OR CONSEQUENTIAL DAMAGES (INCLUDING, BUT 
  28:drv_usb_dev.c **** NOT LIMITED TO, PROCUREMENT OF SUBSTITUTE GOODS OR SERVICES; LOSS OF USE, DATA, OR 
  29:drv_usb_dev.c **** PROFITS; OR BUSINESS INTERRUPTION) HOWEVER CAUSED AND ON ANY THEORY OF LIABILITY, 
  30:drv_usb_dev.c **** WHETHER IN CONTRACT, STRICT LIABILITY, OR TORT (INCLUDING NEGLIGENCE OR OTHERWISE) 
  31:drv_usb_dev.c **** ARISING IN ANY WAY OUT OF THE USE OF THIS SOFTWARE, EVEN IF ADVISED OF THE POSSIBILITY 
  32:drv_usb_dev.c **** OF SUCH DAMAGE.
  33:drv_usb_dev.c **** */
  34:drv_usb_dev.c **** 
  35:drv_usb_dev.c **** #include "drv_usb_hw.h"
  36:drv_usb_dev.c **** #include "drv_usb_core.h"
  37:drv_usb_dev.c **** #include "drv_usb_dev.h"
  38:drv_usb_dev.c **** 
  39:drv_usb_dev.c **** /* endpoint 0 max packet length */
  40:drv_usb_dev.c **** static const uint8_t EP0_MAXLEN[4] = {
  41:drv_usb_dev.c ****     [DSTAT_EM_HS_PHY_30MHZ_60MHZ] = EP0MPL_64,
  42:drv_usb_dev.c ****     [DSTAT_EM_FS_PHY_30MHZ_60MHZ] = EP0MPL_64,
  43:drv_usb_dev.c ****     [DSTAT_EM_FS_PHY_48MHZ] = EP0MPL_64,
GAS LISTING C:\Users\Uzair\AppData\Local\Temp\ccH4xex5.s 			page 2


  44:drv_usb_dev.c ****     [DSTAT_EM_LS_PHY_6MHZ] = EP0MPL_8
  45:drv_usb_dev.c **** };
  46:drv_usb_dev.c **** 
  47:drv_usb_dev.c **** #ifdef USB_FS_CORE
  48:drv_usb_dev.c **** 
  49:drv_usb_dev.c **** /* USB endpoint Tx FIFO size */
  50:drv_usb_dev.c **** static uint16_t USBFS_TX_FIFO_SIZE[USBFS_MAX_EP_COUNT] = 
  51:drv_usb_dev.c **** {
  52:drv_usb_dev.c ****     (uint16_t)TX0_FIFO_FS_SIZE,
  53:drv_usb_dev.c ****     (uint16_t)TX1_FIFO_FS_SIZE,
  54:drv_usb_dev.c ****     (uint16_t)TX2_FIFO_FS_SIZE,
  55:drv_usb_dev.c ****     (uint16_t)TX3_FIFO_FS_SIZE
  56:drv_usb_dev.c **** };
  57:drv_usb_dev.c **** 
  58:drv_usb_dev.c **** #elif defined(USB_HS_CORE)
  59:drv_usb_dev.c **** 
  60:drv_usb_dev.c **** uint16_t USBHS_TX_FIFO_SIZE[USBHS_MAX_EP_COUNT] = 
  61:drv_usb_dev.c **** {
  62:drv_usb_dev.c ****     (uint16_t)TX0_FIFO_HS_SIZE,
  63:drv_usb_dev.c ****     (uint16_t)TX1_FIFO_HS_SIZE,
  64:drv_usb_dev.c ****     (uint16_t)TX2_FIFO_HS_SIZE,
  65:drv_usb_dev.c ****     (uint16_t)TX3_FIFO_HS_SIZE,
  66:drv_usb_dev.c ****     (uint16_t)TX4_FIFO_HS_SIZE,
  67:drv_usb_dev.c ****     (uint16_t)TX5_FIFO_HS_SIZE
  68:drv_usb_dev.c **** };
  69:drv_usb_dev.c **** 
  70:drv_usb_dev.c **** #endif /* USBFS_CORE */
  71:drv_usb_dev.c **** 
  72:drv_usb_dev.c **** /*!
  73:drv_usb_dev.c ****     \brief      initialize USB core registers for device mode
  74:drv_usb_dev.c ****     \param[in]  udev: pointer to usb device
  75:drv_usb_dev.c ****     \param[out] none
  76:drv_usb_dev.c ****     \retval     operation status
  77:drv_usb_dev.c **** */
  78:drv_usb_dev.c **** usb_status usb_devcore_init (usb_core_driver *udev)
  79:drv_usb_dev.c **** {
  80:drv_usb_dev.c ****     uint32_t i, ram_addr = 0;
  81:drv_usb_dev.c **** 
  82:drv_usb_dev.c ****     /* force to peripheral mode */
  83:drv_usb_dev.c ****     udev->regs.gr->GUSBCS &= ~(GUSBCS_FDM | GUSBCS_FHM);
  84:drv_usb_dev.c ****     udev->regs.gr->GUSBCS |= GUSBCS_FDM;
  85:drv_usb_dev.c ****    // udev->regs.gr->GUSBCS &= ~(GUSBCS_FHM);
  86:drv_usb_dev.c **** 
  87:drv_usb_dev.c ****     /* restart the Phy Clock (maybe don't need to...) */
  88:drv_usb_dev.c ****     *udev->regs.PWRCLKCTL = 0U;
  89:drv_usb_dev.c **** 
  90:drv_usb_dev.c ****     /* config periodic frame interval to default value */
  91:drv_usb_dev.c ****     udev->regs.dr->DCFG &= ~DCFG_EOPFT;
  92:drv_usb_dev.c ****     udev->regs.dr->DCFG |= FRAME_INTERVAL_80;
  93:drv_usb_dev.c **** 
  94:drv_usb_dev.c ****     udev->regs.dr->DCFG &= ~DCFG_DS;
  95:drv_usb_dev.c **** 
  96:drv_usb_dev.c **** #ifdef USB_FS_CORE
  97:drv_usb_dev.c ****     if (udev->bp.core_enum == USB_CORE_ENUM_FS) {
  98:drv_usb_dev.c ****         /* set full-speed PHY */
  99:drv_usb_dev.c ****         udev->regs.dr->DCFG |= USB_SPEED_INP_FULL;
 100:drv_usb_dev.c **** 
GAS LISTING C:\Users\Uzair\AppData\Local\Temp\ccH4xex5.s 			page 3


 101:drv_usb_dev.c ****         /* set Rx FIFO size */
 102:drv_usb_dev.c ****         udev->regs.gr->GRFLEN = RX_FIFO_FS_SIZE;
 103:drv_usb_dev.c **** 
 104:drv_usb_dev.c ****         /* set endpoint 0 Tx FIFO length and RAM address */
 105:drv_usb_dev.c ****         udev->regs.gr->DIEP0TFLEN_HNPTFLEN = ((uint32_t)TX0_FIFO_FS_SIZE << 16) | \
 106:drv_usb_dev.c ****                                                           ((uint32_t)RX_FIFO_FS_SIZE);
 107:drv_usb_dev.c **** 
 108:drv_usb_dev.c ****         ram_addr = RX_FIFO_FS_SIZE;
 109:drv_usb_dev.c **** 
 110:drv_usb_dev.c ****         /* set endpoint 1 to 3's Tx FIFO length and RAM address */
 111:drv_usb_dev.c ****         for (i = 1; i < USBFS_MAX_EP_COUNT; i++) {
 112:drv_usb_dev.c ****             ram_addr += USBFS_TX_FIFO_SIZE[i - 1];
 113:drv_usb_dev.c **** 
 114:drv_usb_dev.c ****             udev->regs.gr->DIEPTFLEN[i - 1] = ((uint32_t)USBFS_TX_FIFO_SIZE[i] << 16U) | \
 115:drv_usb_dev.c ****                                                           ram_addr;
 116:drv_usb_dev.c ****         }
 117:drv_usb_dev.c ****     }
 118:drv_usb_dev.c **** #endif
 119:drv_usb_dev.c **** 
 120:drv_usb_dev.c **** #ifdef USB_HS_CORE
 121:drv_usb_dev.c ****     if (udev->bp.core == USB_CORE_HS) {
 122:drv_usb_dev.c ****         if (udev->bp.core_phy == USB_ULPI_PHY) {
 123:drv_usb_dev.c ****             udev->regs.dr->DCFG |= USB_SPEED_EXP_HIGH;
 124:drv_usb_dev.c ****         } else {/* set High speed phy in Full speed mode */
 125:drv_usb_dev.c ****             udev->regs.dr->DCFG |= USB_SPEED_EXP_FULL;
 126:drv_usb_dev.c ****         }
 127:drv_usb_dev.c **** 
 128:drv_usb_dev.c ****         /* Set Rx FIFO size */
 129:drv_usb_dev.c ****         udev->regs.gr->GRFLEN &= ~GRFLEN_RXFD;
 130:drv_usb_dev.c ****         udev->regs.gr->GRFLEN |= RX_FIFO_HS_SIZE;
 131:drv_usb_dev.c **** 
 132:drv_usb_dev.c ****         /* Set endpoint 0 Tx FIFO length and RAM address */
 133:drv_usb_dev.c ****         udev->regs.gr->DIEP0TFLEN_HNPTFLEN = ((uint32_t)TX0_FIFO_HS_SIZE << 16) | \
 134:drv_usb_dev.c ****                                                           RX_FIFO_HS_SIZE;
 135:drv_usb_dev.c **** 
 136:drv_usb_dev.c ****         ram_addr = RX_FIFO_HS_SIZE;
 137:drv_usb_dev.c **** 
 138:drv_usb_dev.c ****         /* Set endpoint 1 to 3's Tx FIFO length and RAM address */
 139:drv_usb_dev.c ****         for (i = 1; i < USBHS_MAX_EP_COUNT; i++) {
 140:drv_usb_dev.c ****             ram_addr += USBHS_TX_FIFO_SIZE[i - 1];
 141:drv_usb_dev.c **** 
 142:drv_usb_dev.c ****             udev->regs.gr->DIEPTFLEN[i - 1] = ((uint32_t)USBHS_TX_FIFO_SIZE[i] << 16) | \
 143:drv_usb_dev.c ****                                                           ram_addr;
 144:drv_usb_dev.c ****         }
 145:drv_usb_dev.c ****     }
 146:drv_usb_dev.c **** #endif
 147:drv_usb_dev.c **** 
 148:drv_usb_dev.c ****     /* make sure all FIFOs are flushed */
 149:drv_usb_dev.c **** 
 150:drv_usb_dev.c ****     /* flush all Tx FIFOs */
 151:drv_usb_dev.c ****     usb_txfifo_flush (&udev->regs, 0x10);
 152:drv_usb_dev.c **** 
 153:drv_usb_dev.c ****     /* flush entire Rx FIFO */
 154:drv_usb_dev.c ****     usb_rxfifo_flush (&udev->regs);
 155:drv_usb_dev.c **** 
 156:drv_usb_dev.c ****     /* clear all pending device interrupts */
 157:drv_usb_dev.c ****     udev->regs.dr->DIEPINTEN = 0U;
GAS LISTING C:\Users\Uzair\AppData\Local\Temp\ccH4xex5.s 			page 4


 158:drv_usb_dev.c ****     udev->regs.dr->DOEPINTEN = 0U;
 159:drv_usb_dev.c ****     udev->regs.dr->DAEPINT = 0xFFFFFFFFU;
 160:drv_usb_dev.c ****     udev->regs.dr->DAEPINTEN = 0U;
 161:drv_usb_dev.c **** 
 162:drv_usb_dev.c ****     /* configure all IN/OUT endpoints */
 163:drv_usb_dev.c ****     for (i = 0; i < udev->bp.num_ep; i++) {
 164:drv_usb_dev.c ****         if (udev->regs.er_in[i]->DIEPCTL & DEPCTL_EPEN) {
 165:drv_usb_dev.c ****             udev->regs.er_in[i]->DIEPCTL |= DEPCTL_EPD | DEPCTL_SNAK;
 166:drv_usb_dev.c ****         } else {
 167:drv_usb_dev.c ****             udev->regs.er_in[i]->DIEPCTL = 0U;
 168:drv_usb_dev.c ****         }
 169:drv_usb_dev.c **** 
 170:drv_usb_dev.c ****         /* set IN endpoint transfer length to 0 */
 171:drv_usb_dev.c ****         udev->regs.er_in[i]->DIEPLEN = 0U;
 172:drv_usb_dev.c **** 
 173:drv_usb_dev.c ****         /* clear all pending IN endpoint interrupts */
 174:drv_usb_dev.c ****         udev->regs.er_in[i]->DIEPINTF = 0xFFU;
 175:drv_usb_dev.c **** 
 176:drv_usb_dev.c ****         if (udev->regs.er_out[i]->DOEPCTL & DEPCTL_EPEN) {
 177:drv_usb_dev.c ****             udev->regs.er_out[i]->DOEPCTL |= DEPCTL_EPD | DEPCTL_SNAK;
 178:drv_usb_dev.c ****         } else {
 179:drv_usb_dev.c ****             udev->regs.er_out[i]->DOEPCTL = 0U;
 180:drv_usb_dev.c ****         }
 181:drv_usb_dev.c **** 
 182:drv_usb_dev.c ****         /* set OUT endpoint transfer length to 0 */
 183:drv_usb_dev.c ****         udev->regs.er_out[i]->DOEPLEN = 0U;
 184:drv_usb_dev.c **** 
 185:drv_usb_dev.c ****         /* clear all pending OUT endpoint interrupts */
 186:drv_usb_dev.c ****         udev->regs.er_out[i]->DOEPINTF = 0xFFU;
 187:drv_usb_dev.c ****     }
 188:drv_usb_dev.c **** 
 189:drv_usb_dev.c ****     usb_devint_enable (udev);
 190:drv_usb_dev.c **** 
 191:drv_usb_dev.c ****     return USB_OK;
 192:drv_usb_dev.c **** }
 193:drv_usb_dev.c **** 
 194:drv_usb_dev.c **** /*!
 195:drv_usb_dev.c ****     \brief      enable the USB device mode interrupts
 196:drv_usb_dev.c ****     \param[in]  udev: pointer to usb device
 197:drv_usb_dev.c ****     \param[out] none
 198:drv_usb_dev.c ****     \retval     operation status
 199:drv_usb_dev.c **** */
 200:drv_usb_dev.c **** usb_status usb_devint_enable (usb_core_driver *udev)
 201:drv_usb_dev.c **** {
  16              		.loc 1 201 1
  17              		.cfi_startproc
  18              	.LVL0:
 202:drv_usb_dev.c ****     /* clear any pending USB OTG interrupts */
 203:drv_usb_dev.c ****     udev->regs.gr->GOTGINTF = 0xFFFFFFFFU;
  19              		.loc 1 203 5
  20              		.loc 1 203 15 is_stmt 0
  21 0000 1C45     		lw	a5,8(a0)
  22              		.loc 1 203 29
  23 0002 7D57     		li	a4,-1
  24 0004 D8C3     		sw	a4,4(a5)
 204:drv_usb_dev.c **** 
 205:drv_usb_dev.c ****     /* clear any pending interrupts */
GAS LISTING C:\Users\Uzair\AppData\Local\Temp\ccH4xex5.s 			page 5


 206:drv_usb_dev.c ****     udev->regs.gr->GINTF = 0xBFFFFFFFU;
  25              		.loc 1 206 5 is_stmt 1
  26              		.loc 1 206 26 is_stmt 0
  27 0006 370700C0 		li	a4,-1073741824
  28 000a 7D17     		addi	a4,a4,-1
  29 000c D8CB     		sw	a4,20(a5)
 207:drv_usb_dev.c **** 
 208:drv_usb_dev.c ****     /* enable the USB wakeup and suspend interrupts */
 209:drv_usb_dev.c ****     udev->regs.gr->GINTEN = GINTEN_WKUPIE | GINTEN_SPIE;
  30              		.loc 1 209 5 is_stmt 1
  31              		.loc 1 209 27 is_stmt 0
  32 000e 37170080 		li	a4,-2147479552
  33 0012 13070780 		addi	a4,a4,-2048
  34 0016 98CF     		sw	a4,24(a5)
 210:drv_usb_dev.c **** 
 211:drv_usb_dev.c ****     /* enable device_mode-related interrupts */
 212:drv_usb_dev.c ****     if (USB_USE_FIFO == udev->bp.transfer_mode) {
  35              		.loc 1 212 5 is_stmt 1
  36              		.loc 1 212 8 is_stmt 0
  37 0018 03474500 		lbu	a4,4(a0)
  38 001c 09E7     		bne	a4,zero,.L2
 213:drv_usb_dev.c ****         udev->regs.gr->GINTEN |= GINTEN_RXFNEIE;
  39              		.loc 1 213 9 is_stmt 1
  40              		.loc 1 213 31 is_stmt 0
  41 001e 984F     		lw	a4,24(a5)
  42 0020 13670701 		ori	a4,a4,16
  43 0024 98CF     		sw	a4,24(a5)
  44              	.L2:
 214:drv_usb_dev.c ****     }
 215:drv_usb_dev.c ****     udev->regs.gr->GINTEN |= GINTEN_RSTIE | GINTEN_ENUMFIE | GINTEN_IEPIE |\
  45              		.loc 1 215 5 is_stmt 1
  46              		.loc 1 215 27 is_stmt 0
  47 0026 984F     		lw	a4,24(a5)
  48 0028 B7360C00 		li	a3,798720
  49 002c A906     		addi	a3,a3,10
  50 002e 558F     		or	a4,a4,a3
  51 0030 98CF     		sw	a4,24(a5)
 216:drv_usb_dev.c ****                               GINTEN_OEPIE | GINTEN_SOFIE | GINTEN_MFIE;
 217:drv_usb_dev.c **** 
 218:drv_usb_dev.c **** #ifdef VBUS_SENSING_ENABLED
 219:drv_usb_dev.c ****     udev->regs.gr->GINTEN |= GINTEN_SESIE | GINTEN_OTGIE;
 220:drv_usb_dev.c **** #endif /* VBUS_SENSING_ENABLED */
 221:drv_usb_dev.c **** 
 222:drv_usb_dev.c ****     /* enable USB global interrupt */
 223:drv_usb_dev.c ****     udev->regs.gr->GAHBCS |= GAHBCS_GINTEN;
  52              		.loc 1 223 5 is_stmt 1
  53              		.loc 1 223 27 is_stmt 0
  54 0032 9847     		lw	a4,8(a5)
 224:drv_usb_dev.c **** 
 225:drv_usb_dev.c ****     return USB_OK;
 226:drv_usb_dev.c **** }
  55              		.loc 1 226 1
  56 0034 0145     		li	a0,0
  57              	.LVL1:
 223:drv_usb_dev.c **** 
  58              		.loc 1 223 27
  59 0036 13671700 		ori	a4,a4,1
GAS LISTING C:\Users\Uzair\AppData\Local\Temp\ccH4xex5.s 			page 6


  60 003a 98C7     		sw	a4,8(a5)
 225:drv_usb_dev.c **** }
  61              		.loc 1 225 5 is_stmt 1
  62              		.loc 1 226 1 is_stmt 0
  63 003c 8280     		ret
  64              		.cfi_endproc
  65              	.LFE4:
  67              		.section	.text.usb_devcore_init,"ax",@progbits
  68              		.align	1
  69              		.globl	usb_devcore_init
  71              	usb_devcore_init:
  72              	.LFB3:
  79:drv_usb_dev.c ****     uint32_t i, ram_addr = 0;
  73              		.loc 1 79 1 is_stmt 1
  74              		.cfi_startproc
  75              	.LVL2:
  80:drv_usb_dev.c **** 
  76              		.loc 1 80 5
  83:drv_usb_dev.c ****     udev->regs.gr->GUSBCS |= GUSBCS_FDM;
  77              		.loc 1 83 5
  83:drv_usb_dev.c ****     udev->regs.gr->GUSBCS |= GUSBCS_FDM;
  78              		.loc 1 83 15 is_stmt 0
  79 0000 1C45     		lw	a5,8(a0)
  83:drv_usb_dev.c ****     udev->regs.gr->GUSBCS |= GUSBCS_FDM;
  80              		.loc 1 83 27
  81 0002 B70600A0 		li	a3,-1610612736
  79:drv_usb_dev.c ****     uint32_t i, ram_addr = 0;
  82              		.loc 1 79 1
  83 0006 4111     		addi	sp,sp,-16
  84              	.LCFI0:
  85              		.cfi_def_cfa_offset 16
  83:drv_usb_dev.c ****     udev->regs.gr->GUSBCS |= GUSBCS_FDM;
  86              		.loc 1 83 27
  87 0008 D847     		lw	a4,12(a5)
  88 000a FD16     		addi	a3,a3,-1
  79:drv_usb_dev.c ****     uint32_t i, ram_addr = 0;
  89              		.loc 1 79 1
  90 000c 22C4     		sw	s0,8(sp)
  91 000e 06C6     		sw	ra,12(sp)
  92 0010 26C2     		sw	s1,4(sp)
  93              		.cfi_offset 8, -8
  94              		.cfi_offset 1, -4
  95              		.cfi_offset 9, -12
  83:drv_usb_dev.c ****     udev->regs.gr->GUSBCS |= GUSBCS_FDM;
  96              		.loc 1 83 27
  97 0012 758F     		and	a4,a4,a3
  98 0014 D8C7     		sw	a4,12(a5)
  84:drv_usb_dev.c ****    // udev->regs.gr->GUSBCS &= ~(GUSBCS_FHM);
  99              		.loc 1 84 5 is_stmt 1
  84:drv_usb_dev.c ****    // udev->regs.gr->GUSBCS &= ~(GUSBCS_FHM);
 100              		.loc 1 84 27 is_stmt 0
 101 0016 D847     		lw	a4,12(a5)
 102 0018 B7060040 		li	a3,1073741824
  91:drv_usb_dev.c ****     udev->regs.dr->DCFG |= FRAME_INTERVAL_80;
 103              		.loc 1 91 25
 104 001c 7976     		li	a2,-8192
  84:drv_usb_dev.c ****    // udev->regs.gr->GUSBCS &= ~(GUSBCS_FHM);
GAS LISTING C:\Users\Uzair\AppData\Local\Temp\ccH4xex5.s 			page 7


 105              		.loc 1 84 27
 106 001e 558F     		or	a4,a4,a3
 107 0020 D8C7     		sw	a4,12(a5)
  88:drv_usb_dev.c **** 
 108              		.loc 1 88 5 is_stmt 1
  88:drv_usb_dev.c **** 
 109              		.loc 1 88 16 is_stmt 0
 110 0022 0327050C 		lw	a4,192(a0)
  91:drv_usb_dev.c ****     udev->regs.dr->DCFG |= FRAME_INTERVAL_80;
 111              		.loc 1 91 25
 112 0026 1306F67F 		addi	a2,a2,2047
  79:drv_usb_dev.c ****     uint32_t i, ram_addr = 0;
 113              		.loc 1 79 1
 114 002a 2A84     		mv	s0,a0
  88:drv_usb_dev.c **** 
 115              		.loc 1 88 27
 116 002c 23200700 		sw	zero,0(a4)
  91:drv_usb_dev.c ****     udev->regs.dr->DCFG |= FRAME_INTERVAL_80;
 117              		.loc 1 91 5 is_stmt 1
  91:drv_usb_dev.c ****     udev->regs.dr->DCFG |= FRAME_INTERVAL_80;
 118              		.loc 1 91 15 is_stmt 0
 119 0030 5845     		lw	a4,12(a0)
  91:drv_usb_dev.c ****     udev->regs.dr->DCFG |= FRAME_INTERVAL_80;
 120              		.loc 1 91 25
 121 0032 1443     		lw	a3,0(a4)
 122 0034 F18E     		and	a3,a3,a2
 123 0036 14C3     		sw	a3,0(a4)
  92:drv_usb_dev.c **** 
 124              		.loc 1 92 5 is_stmt 1
  92:drv_usb_dev.c **** 
 125              		.loc 1 92 25 is_stmt 0
 126 0038 1443     		lw	a3,0(a4)
 127 003a 14C3     		sw	a3,0(a4)
  94:drv_usb_dev.c **** 
 128              		.loc 1 94 5 is_stmt 1
  94:drv_usb_dev.c **** 
 129              		.loc 1 94 25 is_stmt 0
 130 003c 1443     		lw	a3,0(a4)
 131 003e F19A     		andi	a3,a3,-4
 132 0040 14C3     		sw	a3,0(a4)
  97:drv_usb_dev.c ****         /* set full-speed PHY */
 133              		.loc 1 97 5 is_stmt 1
  97:drv_usb_dev.c ****         /* set full-speed PHY */
 134              		.loc 1 97 8 is_stmt 0
 135 0042 03460500 		lbu	a2,0(a0)
 136 0046 8546     		li	a3,1
 137 0048 631AD602 		bne	a2,a3,.L4
  99:drv_usb_dev.c **** 
 138              		.loc 1 99 9 is_stmt 1
  99:drv_usb_dev.c **** 
 139              		.loc 1 99 29 is_stmt 0
 140 004c 1443     		lw	a3,0(a4)
 141 004e 93E63600 		ori	a3,a3,3
 142 0052 14C3     		sw	a3,0(a4)
 102:drv_usb_dev.c **** 
 143              		.loc 1 102 9 is_stmt 1
 102:drv_usb_dev.c **** 
GAS LISTING C:\Users\Uzair\AppData\Local\Temp\ccH4xex5.s 			page 8


 144              		.loc 1 102 31 is_stmt 0
 145 0054 13070008 		li	a4,128
 146 0058 D8D3     		sw	a4,36(a5)
 105:drv_usb_dev.c ****                                                           ((uint32_t)RX_FIFO_FS_SIZE);
 147              		.loc 1 105 9 is_stmt 1
 105:drv_usb_dev.c ****                                                           ((uint32_t)RX_FIFO_FS_SIZE);
 148              		.loc 1 105 44 is_stmt 0
 149 005a 37074000 		li	a4,4194304
 150 005e 13070708 		addi	a4,a4,128
 151 0062 98D7     		sw	a4,40(a5)
 108:drv_usb_dev.c **** 
 152              		.loc 1 108 9 is_stmt 1
 153              	.LVL3:
 111:drv_usb_dev.c ****             ram_addr += USBFS_TX_FIFO_SIZE[i - 1];
 154              		.loc 1 111 9
 112:drv_usb_dev.c **** 
 155              		.loc 1 112 13
 114:drv_usb_dev.c ****                                                           ram_addr;
 156              		.loc 1 114 13
 114:drv_usb_dev.c ****                                                           ram_addr;
 157              		.loc 1 114 45 is_stmt 0
 158 0064 37078000 		li	a4,8388608
 159 0068 1307070C 		addi	a4,a4,192
 160 006c 23A2E710 		sw	a4,260(a5)
 161              	.LVL4:
 112:drv_usb_dev.c **** 
 162              		.loc 1 112 13 is_stmt 1
 114:drv_usb_dev.c ****                                                           ram_addr;
 163              		.loc 1 114 13
 114:drv_usb_dev.c ****                                                           ram_addr;
 164              		.loc 1 114 45 is_stmt 0
 165 0070 13070014 		li	a4,320
 166 0074 23A4E710 		sw	a4,264(a5)
 167              	.LVL5:
 112:drv_usb_dev.c **** 
 168              		.loc 1 112 13 is_stmt 1
 114:drv_usb_dev.c ****                                                           ram_addr;
 169              		.loc 1 114 13
 114:drv_usb_dev.c ****                                                           ram_addr;
 170              		.loc 1 114 45 is_stmt 0
 171 0078 23A6E710 		sw	a4,268(a5)
 172              	.LVL6:
 173              	.L4:
 151:drv_usb_dev.c **** 
 174              		.loc 1 151 5 is_stmt 1
 175 007c 93048400 		addi	s1,s0,8
 176 0080 C145     		li	a1,16
 177 0082 2685     		mv	a0,s1
 178              	.LVL7:
 179 0084 97000000 		call	usb_txfifo_flush
 179      E7800000 
 180              	.LVL8:
 154:drv_usb_dev.c **** 
 181              		.loc 1 154 5
 182 008c 2685     		mv	a0,s1
 183 008e 97000000 		call	usb_rxfifo_flush
 183      E7800000 
GAS LISTING C:\Users\Uzair\AppData\Local\Temp\ccH4xex5.s 			page 9


 184              	.LVL9:
 157:drv_usb_dev.c ****     udev->regs.dr->DOEPINTEN = 0U;
 185              		.loc 1 157 5
 157:drv_usb_dev.c ****     udev->regs.dr->DOEPINTEN = 0U;
 186              		.loc 1 157 15 is_stmt 0
 187 0096 5C44     		lw	a5,12(s0)
 159:drv_usb_dev.c ****     udev->regs.dr->DAEPINTEN = 0U;
 188              		.loc 1 159 28
 189 0098 7D57     		li	a4,-1
 163:drv_usb_dev.c ****         if (udev->regs.er_in[i]->DIEPCTL & DEPCTL_EPEN) {
 190              		.loc 1 163 12
 191 009a 8146     		li	a3,0
 157:drv_usb_dev.c ****     udev->regs.dr->DOEPINTEN = 0U;
 192              		.loc 1 157 30
 193 009c 23A80700 		sw	zero,16(a5)
 158:drv_usb_dev.c ****     udev->regs.dr->DAEPINT = 0xFFFFFFFFU;
 194              		.loc 1 158 5 is_stmt 1
 158:drv_usb_dev.c ****     udev->regs.dr->DAEPINT = 0xFFFFFFFFU;
 195              		.loc 1 158 30 is_stmt 0
 196 00a0 23AA0700 		sw	zero,20(a5)
 159:drv_usb_dev.c ****     udev->regs.dr->DAEPINTEN = 0U;
 197              		.loc 1 159 5 is_stmt 1
 159:drv_usb_dev.c ****     udev->regs.dr->DAEPINTEN = 0U;
 198              		.loc 1 159 28 is_stmt 0
 199 00a4 98CF     		sw	a4,24(a5)
 160:drv_usb_dev.c **** 
 200              		.loc 1 160 5 is_stmt 1
 160:drv_usb_dev.c **** 
 201              		.loc 1 160 30 is_stmt 0
 202 00a6 23AE0700 		sw	zero,28(a5)
 163:drv_usb_dev.c ****         if (udev->regs.er_in[i]->DIEPCTL & DEPCTL_EPEN) {
 203              		.loc 1 163 5 is_stmt 1
 204              	.LVL10:
 163:drv_usb_dev.c ****         if (udev->regs.er_in[i]->DIEPCTL & DEPCTL_EPEN) {
 205              		.loc 1 163 29 is_stmt 0
 206 00aa 03483400 		lbu	a6,3(s0)
 207 00ae 13074401 		addi	a4,s0,20
 165:drv_usb_dev.c ****         } else {
 208              		.loc 1 165 42
 209 00b2 B7050048 		li	a1,1207959552
 174:drv_usb_dev.c **** 
 210              		.loc 1 174 39
 211 00b6 1305F00F 		li	a0,255
 212              	.LVL11:
 213              	.L5:
 163:drv_usb_dev.c ****         if (udev->regs.er_in[i]->DIEPCTL & DEPCTL_EPEN) {
 214              		.loc 1 163 5 discriminator 1
 215 00ba 63ED0601 		bgtu	a6,a3,.L10
 189:drv_usb_dev.c **** 
 216              		.loc 1 189 5 is_stmt 1
 217 00be 2285     		mv	a0,s0
 218 00c0 97000000 		call	usb_devint_enable
 218      E7800000 
 219              	.LVL12:
 191:drv_usb_dev.c **** }
 220              		.loc 1 191 5
 192:drv_usb_dev.c **** 
GAS LISTING C:\Users\Uzair\AppData\Local\Temp\ccH4xex5.s 			page 10


 221              		.loc 1 192 1 is_stmt 0
 222 00c8 B240     		lw	ra,12(sp)
 223              		.cfi_remember_state
 224              		.cfi_restore 1
 225 00ca 2244     		lw	s0,8(sp)
 226              		.cfi_restore 8
 227              	.LVL13:
 228 00cc 9244     		lw	s1,4(sp)
 229              		.cfi_restore 9
 230              	.LVL14:
 231 00ce 0145     		li	a0,0
 232 00d0 4101     		addi	sp,sp,16
 233              	.LCFI1:
 234              		.cfi_def_cfa_offset 0
 235 00d2 8280     		jr	ra
 236              	.LVL15:
 237              	.L10:
 238              	.LCFI2:
 239              		.cfi_restore_state
 164:drv_usb_dev.c ****             udev->regs.er_in[i]->DIEPCTL |= DEPCTL_EPD | DEPCTL_SNAK;
 240              		.loc 1 164 9 is_stmt 1
 164:drv_usb_dev.c ****             udev->regs.er_in[i]->DIEPCTL |= DEPCTL_EPD | DEPCTL_SNAK;
 241              		.loc 1 164 29 is_stmt 0
 242 00d4 1C43     		lw	a5,0(a4)
 164:drv_usb_dev.c ****             udev->regs.er_in[i]->DIEPCTL |= DEPCTL_EPD | DEPCTL_SNAK;
 243              		.loc 1 164 32
 244 00d6 9043     		lw	a2,0(a5)
 164:drv_usb_dev.c ****             udev->regs.er_in[i]->DIEPCTL |= DEPCTL_EPD | DEPCTL_SNAK;
 245              		.loc 1 164 12
 246 00d8 63550602 		bge	a2,zero,.L6
 165:drv_usb_dev.c ****         } else {
 247              		.loc 1 165 13 is_stmt 1
 165:drv_usb_dev.c ****         } else {
 248              		.loc 1 165 42 is_stmt 0
 249 00dc 9043     		lw	a2,0(a5)
 250 00de 4D8E     		or	a2,a2,a1
 251 00e0 90C3     		sw	a2,0(a5)
 252              	.L7:
 171:drv_usb_dev.c **** 
 253              		.loc 1 171 9 is_stmt 1
 171:drv_usb_dev.c **** 
 254              		.loc 1 171 38 is_stmt 0
 255 00e2 23A80700 		sw	zero,16(a5)
 174:drv_usb_dev.c **** 
 256              		.loc 1 174 9 is_stmt 1
 174:drv_usb_dev.c **** 
 257              		.loc 1 174 39 is_stmt 0
 258 00e6 88C7     		sw	a0,8(a5)
 176:drv_usb_dev.c ****             udev->regs.er_out[i]->DOEPCTL |= DEPCTL_EPD | DEPCTL_SNAK;
 259              		.loc 1 176 9 is_stmt 1
 176:drv_usb_dev.c ****             udev->regs.er_out[i]->DOEPCTL |= DEPCTL_EPD | DEPCTL_SNAK;
 260              		.loc 1 176 30 is_stmt 0
 261 00e8 1C4F     		lw	a5,24(a4)
 176:drv_usb_dev.c ****             udev->regs.er_out[i]->DOEPCTL |= DEPCTL_EPD | DEPCTL_SNAK;
 262              		.loc 1 176 33
 263 00ea 9043     		lw	a2,0(a5)
 176:drv_usb_dev.c ****             udev->regs.er_out[i]->DOEPCTL |= DEPCTL_EPD | DEPCTL_SNAK;
GAS LISTING C:\Users\Uzair\AppData\Local\Temp\ccH4xex5.s 			page 11


 264              		.loc 1 176 12
 265 00ec 635E0600 		bge	a2,zero,.L8
 177:drv_usb_dev.c ****         } else {
 266              		.loc 1 177 13 is_stmt 1
 177:drv_usb_dev.c ****         } else {
 267              		.loc 1 177 43 is_stmt 0
 268 00f0 9043     		lw	a2,0(a5)
 269 00f2 4D8E     		or	a2,a2,a1
 270 00f4 90C3     		sw	a2,0(a5)
 271              	.L9:
 183:drv_usb_dev.c **** 
 272              		.loc 1 183 9 is_stmt 1 discriminator 2
 183:drv_usb_dev.c **** 
 273              		.loc 1 183 39 is_stmt 0 discriminator 2
 274 00f6 23A80700 		sw	zero,16(a5)
 186:drv_usb_dev.c ****     }
 275              		.loc 1 186 9 is_stmt 1 discriminator 2
 186:drv_usb_dev.c ****     }
 276              		.loc 1 186 40 is_stmt 0 discriminator 2
 277 00fa 88C7     		sw	a0,8(a5)
 163:drv_usb_dev.c ****         if (udev->regs.er_in[i]->DIEPCTL & DEPCTL_EPEN) {
 278              		.loc 1 163 39 discriminator 2
 279 00fc 8506     		addi	a3,a3,1
 280              	.LVL16:
 281 00fe 1107     		addi	a4,a4,4
 282 0100 6DBF     		j	.L5
 283              	.L6:
 167:drv_usb_dev.c ****         }
 284              		.loc 1 167 13 is_stmt 1
 167:drv_usb_dev.c ****         }
 285              		.loc 1 167 42 is_stmt 0
 286 0102 23A00700 		sw	zero,0(a5)
 287 0106 F1BF     		j	.L7
 288              	.L8:
 179:drv_usb_dev.c ****         }
 289              		.loc 1 179 13 is_stmt 1
 179:drv_usb_dev.c ****         }
 290              		.loc 1 179 43 is_stmt 0
 291 0108 23A00700 		sw	zero,0(a5)
 292 010c EDB7     		j	.L9
 293              		.cfi_endproc
 294              	.LFE3:
 296              		.section	.text.usb_dev_disconnect,"ax",@progbits
 297              		.align	1
 298              		.globl	usb_dev_disconnect
 300              	usb_dev_disconnect:
 301              	.LFB5:
 227:drv_usb_dev.c **** 
 228:drv_usb_dev.c **** /*!
 229:drv_usb_dev.c ****     \brief      config the USB device to be disconnected
 230:drv_usb_dev.c ****     \param[in]  udev: pointer to usb device
 231:drv_usb_dev.c ****     \param[out] none
 232:drv_usb_dev.c ****     \retval     operation status
 233:drv_usb_dev.c **** */
 234:drv_usb_dev.c **** void usb_dev_disconnect (usb_core_driver *udev)
 235:drv_usb_dev.c **** {
 302              		.loc 1 235 1 is_stmt 1
GAS LISTING C:\Users\Uzair\AppData\Local\Temp\ccH4xex5.s 			page 12


 303              		.cfi_startproc
 304              	.LVL17:
 236:drv_usb_dev.c ****     udev->regs.dr->DCTL |= DCTL_SD;
 305              		.loc 1 236 5
 306              		.loc 1 236 15 is_stmt 0
 307 0000 5845     		lw	a4,12(a0)
 308              		.loc 1 236 25
 309 0002 5C43     		lw	a5,4(a4)
 310 0004 93E72700 		ori	a5,a5,2
 311 0008 5CC3     		sw	a5,4(a4)
 237:drv_usb_dev.c **** }
 312              		.loc 1 237 1
 313 000a 8280     		ret
 314              		.cfi_endproc
 315              	.LFE5:
 317              		.section	.text.usb_dev_connect,"ax",@progbits
 318              		.align	1
 319              		.globl	usb_dev_connect
 321              	usb_dev_connect:
 322              	.LFB6:
 238:drv_usb_dev.c **** 
 239:drv_usb_dev.c **** /*!
 240:drv_usb_dev.c ****     \brief      config the USB device to be connected
 241:drv_usb_dev.c ****     \param[in]  udev: pointer to usb device
 242:drv_usb_dev.c ****     \param[out] none
 243:drv_usb_dev.c ****     \retval     operation status
 244:drv_usb_dev.c **** */
 245:drv_usb_dev.c **** void usb_dev_connect (usb_core_driver *udev)
 246:drv_usb_dev.c **** {
 323              		.loc 1 246 1 is_stmt 1
 324              		.cfi_startproc
 325              	.LVL18:
 247:drv_usb_dev.c ****     udev->regs.dr->DCTL &= ~DCTL_SD;
 326              		.loc 1 247 5
 327              		.loc 1 247 15 is_stmt 0
 328 0000 5845     		lw	a4,12(a0)
 329              		.loc 1 247 25
 330 0002 5C43     		lw	a5,4(a4)
 331 0004 F59B     		andi	a5,a5,-3
 332 0006 5CC3     		sw	a5,4(a4)
 248:drv_usb_dev.c **** }
 333              		.loc 1 248 1
 334 0008 8280     		ret
 335              		.cfi_endproc
 336              	.LFE6:
 338              		.section	.text.usb_devaddr_set,"ax",@progbits
 339              		.align	1
 340              		.globl	usb_devaddr_set
 342              	usb_devaddr_set:
 343              	.LFB7:
 249:drv_usb_dev.c **** 
 250:drv_usb_dev.c **** /*!
 251:drv_usb_dev.c ****     \brief      set the USB device address
 252:drv_usb_dev.c ****     \param[in]  udev: pointer to usb device
 253:drv_usb_dev.c ****     \param[in]  dev_addr: device address for setting
 254:drv_usb_dev.c ****     \param[out] none
 255:drv_usb_dev.c ****     \retval     operation status
GAS LISTING C:\Users\Uzair\AppData\Local\Temp\ccH4xex5.s 			page 13


 256:drv_usb_dev.c **** */
 257:drv_usb_dev.c **** void usb_devaddr_set (usb_core_driver *udev, uint8_t dev_addr)
 258:drv_usb_dev.c **** {
 344              		.loc 1 258 1 is_stmt 1
 345              		.cfi_startproc
 346              	.LVL19:
 259:drv_usb_dev.c ****     udev->regs.dr->DCFG &= ~DCFG_DAR;
 347              		.loc 1 259 5
 348              		.loc 1 259 15 is_stmt 0
 349 0000 5C45     		lw	a5,12(a0)
 260:drv_usb_dev.c ****     udev->regs.dr->DCFG |= dev_addr << 4;
 350              		.loc 1 260 37
 351 0002 9205     		slli	a1,a1,4
 352              	.LVL20:
 259:drv_usb_dev.c ****     udev->regs.dr->DCFG &= ~DCFG_DAR;
 353              		.loc 1 259 25
 354 0004 9843     		lw	a4,0(a5)
 355 0006 1377F780 		andi	a4,a4,-2033
 356 000a 98C3     		sw	a4,0(a5)
 357              		.loc 1 260 5 is_stmt 1
 358              		.loc 1 260 25 is_stmt 0
 359 000c 9843     		lw	a4,0(a5)
 360 000e D98D     		or	a1,a1,a4
 361 0010 8CC3     		sw	a1,0(a5)
 261:drv_usb_dev.c **** }
 362              		.loc 1 261 1
 363 0012 8280     		ret
 364              		.cfi_endproc
 365              	.LFE7:
 367              		.section	.text.usb_transc_active,"ax",@progbits
 368              		.align	1
 369              		.globl	usb_transc_active
 371              	usb_transc_active:
 372              	.LFB8:
 262:drv_usb_dev.c **** 
 263:drv_usb_dev.c **** /*!
 264:drv_usb_dev.c ****     \brief      active the usb transaction
 265:drv_usb_dev.c ****     \param[in]  udev: pointer to usb device
 266:drv_usb_dev.c ****     \param[in]  transc: the usb transaction
 267:drv_usb_dev.c ****     \param[out] none
 268:drv_usb_dev.c ****     \retval     status
 269:drv_usb_dev.c **** */
 270:drv_usb_dev.c **** usb_status usb_transc_active (usb_core_driver *udev, usb_transc *transc)
 271:drv_usb_dev.c **** {
 373              		.loc 1 271 1 is_stmt 1
 374              		.cfi_startproc
 375              	.LVL21:
 272:drv_usb_dev.c ****     __IO uint32_t *reg_addr = NULL;
 376              		.loc 1 272 5
 273:drv_usb_dev.c **** 
 274:drv_usb_dev.c ****     __IO uint32_t epinten = 0U;
 377              		.loc 1 274 5
 275:drv_usb_dev.c **** 
 276:drv_usb_dev.c ****     /* get the endpoint number */
 277:drv_usb_dev.c ****     uint8_t ep_num = transc->ep_addr.num;
 378              		.loc 1 277 37 is_stmt 0
 379 0000 9841     		lw	a4,0(a1)
GAS LISTING C:\Users\Uzair\AppData\Local\Temp\ccH4xex5.s 			page 14


 278:drv_usb_dev.c **** 
 279:drv_usb_dev.c ****     /* enable endpoint interrupt number */
 280:drv_usb_dev.c ****     if (transc->ep_addr.dir) {
 380              		.loc 1 280 8
 381 0002 83870500 		lb	a5,0(a1)
 271:drv_usb_dev.c ****     __IO uint32_t *reg_addr = NULL;
 382              		.loc 1 271 1
 383 0006 4111     		addi	sp,sp,-16
 384              	.LCFI3:
 385              		.cfi_def_cfa_offset 16
 274:drv_usb_dev.c **** 
 386              		.loc 1 274 19
 387 0008 02C6     		sw	zero,12(sp)
 277:drv_usb_dev.c **** 
 388              		.loc 1 277 5 is_stmt 1
 277:drv_usb_dev.c **** 
 389              		.loc 1 277 37 is_stmt 0
 390 000a 3D8B     		andi	a4,a4,15
 391              	.LVL22:
 392              		.loc 1 280 5 is_stmt 1
 393              		.loc 1 280 8 is_stmt 0
 394 000c 63D90706 		bge	a5,zero,.L16
 281:drv_usb_dev.c ****         reg_addr = &udev->regs.er_in[ep_num]->DIEPCTL;
 395              		.loc 1 281 9 is_stmt 1
 396              		.loc 1 281 37 is_stmt 0
 397 0010 93172700 		slli	a5,a4,2
 398 0014 AA97     		add	a5,a0,a5
 399              		.loc 1 281 18
 400 0016 DC4B     		lw	a5,20(a5)
 401              	.LVL23:
 282:drv_usb_dev.c **** 
 283:drv_usb_dev.c ****         epinten = 1 << ep_num;
 402              		.loc 1 283 9 is_stmt 1
 403              		.loc 1 283 21 is_stmt 0
 404 0018 8546     		li	a3,1
 405 001a B396E600 		sll	a3,a3,a4
 406              	.L22:
 284:drv_usb_dev.c ****     } else {
 285:drv_usb_dev.c ****         reg_addr = &udev->regs.er_out[ep_num]->DOEPCTL;
 286:drv_usb_dev.c **** 
 287:drv_usb_dev.c ****         epinten = 1 << (16 + ep_num);
 407              		.loc 1 287 17
 408 001e 36C6     		sw	a3,12(sp)
 288:drv_usb_dev.c ****     }
 289:drv_usb_dev.c **** 
 290:drv_usb_dev.c ****     /* if the endpoint is not active, need change the endpoint control register */
 291:drv_usb_dev.c ****     if (!(*reg_addr & DEPCTL_EPACT)) {
 409              		.loc 1 291 5 is_stmt 1
 410              		.loc 1 291 11 is_stmt 0
 411 0020 9443     		lw	a3,0(a5)
 412 0022 5045     		lw	a2,12(a0)
 413              		.loc 1 291 8
 414 0024 13950601 		slli	a0,a3,16
 415              	.LVL24:
 416 0028 63440504 		blt	a0,zero,.L18
 292:drv_usb_dev.c ****         *reg_addr &= ~(DEPCTL_MPL | DEPCTL_EPTYPE | DIEPCTL_TXFNUM);
 417              		.loc 1 292 9 is_stmt 1
GAS LISTING C:\Users\Uzair\AppData\Local\Temp\ccH4xex5.s 			page 15


 418              		.loc 1 292 19 is_stmt 0
 419 002c 9443     		lw	a3,0(a5)
 420 002e 370534FC 		li	a0,-63700992
 421 0032 13050580 		addi	a0,a0,-2048
 422 0036 E98E     		and	a3,a3,a0
 423 0038 94C3     		sw	a3,0(a5)
 293:drv_usb_dev.c **** 
 294:drv_usb_dev.c ****         /* set endpoint maximum packet length */
 295:drv_usb_dev.c ****         if (0U == ep_num) {
 424              		.loc 1 295 9 is_stmt 1
 425              		.loc 1 295 12 is_stmt 0
 426 003a 29EF     		bne	a4,zero,.L19
 296:drv_usb_dev.c ****             *reg_addr |= EP0_MAXLEN[udev->regs.dr->DSTAT & DSTAT_ES];
 427              		.loc 1 296 13 is_stmt 1
 428              		.loc 1 296 50 is_stmt 0
 429 003c 1446     		lw	a3,8(a2)
 430              		.loc 1 296 23
 431 003e 03A80700 		lw	a6,0(a5)
 432              		.loc 1 296 58
 433 0042 13F56600 		andi	a0,a3,6
 434              		.loc 1 296 36
 435 0046 B7060000 		lui	a3,%hi(.LANCHOR0)
 436 004a 93860600 		addi	a3,a3,%lo(.LANCHOR0)
 437 004e AA96     		add	a3,a3,a0
 438 0050 83C60600 		lbu	a3,0(a3)
 439              		.loc 1 296 23
 440 0054 B3E60601 		or	a3,a3,a6
 441              	.L23:
 297:drv_usb_dev.c ****         } else {
 298:drv_usb_dev.c ****             *reg_addr |= transc->max_len;
 442              		.loc 1 298 23
 443 0058 94C3     		sw	a3,0(a5)
 299:drv_usb_dev.c ****         }
 300:drv_usb_dev.c **** 
 301:drv_usb_dev.c ****         /* activate endpoint */
 302:drv_usb_dev.c ****         *reg_addr |= (transc->ep_type << 18) | (ep_num << 22) | DEPCTL_SD0PID | DEPCTL_EPACT;
 444              		.loc 1 302 9 is_stmt 1
 445              		.loc 1 302 29 is_stmt 0
 446 005a 83C61500 		lbu	a3,1(a1)
 447              		.loc 1 302 19
 448 005e 8843     		lw	a0,0(a5)
 449              		.loc 1 302 56
 450 0060 5A07     		slli	a4,a4,22
 451              	.LVL25:
 452              		.loc 1 302 39
 453 0062 CA06     		slli	a3,a3,18
 454              		.loc 1 302 46
 455 0064 558F     		or	a4,a3,a4
 456              		.loc 1 302 19
 457 0066 498F     		or	a4,a4,a0
 458 0068 B7860010 		li	a3,268468224
 459 006c 558F     		or	a4,a4,a3
 460 006e 98C3     		sw	a4,0(a5)
 461              	.L18:
 303:drv_usb_dev.c ****     }
 304:drv_usb_dev.c **** 
 305:drv_usb_dev.c **** #ifdef USB_OTG_HS_DEDICATED_EP1_ENABLED
GAS LISTING C:\Users\Uzair\AppData\Local\Temp\ccH4xex5.s 			page 16


 306:drv_usb_dev.c ****     if ((ep_num == 1) && (udev->bp.core == USB_HS_CORE_ID)) {
 307:drv_usb_dev.c ****         udev->regs.dr->DEP1INTEN |= epinten;
 308:drv_usb_dev.c ****     }
 309:drv_usb_dev.c ****     else
 310:drv_usb_dev.c **** #endif
 311:drv_usb_dev.c ****     {
 312:drv_usb_dev.c ****         /* enable the interrupts for this endpoint */
 313:drv_usb_dev.c ****         udev->regs.dr->DAEPINTEN |= epinten;
 462              		.loc 1 313 9 is_stmt 1
 463 0070 3247     		lw	a4,12(sp)
 464              		.loc 1 313 34 is_stmt 0
 465 0072 5C4E     		lw	a5,28(a2)
 466              	.LVL26:
 314:drv_usb_dev.c ****     }
 315:drv_usb_dev.c **** 
 316:drv_usb_dev.c ****     return USB_OK;
 317:drv_usb_dev.c **** }
 467              		.loc 1 317 1
 468 0074 0145     		li	a0,0
 313:drv_usb_dev.c ****     }
 469              		.loc 1 313 34
 470 0076 D98F     		or	a5,a5,a4
 471 0078 5CCE     		sw	a5,28(a2)
 316:drv_usb_dev.c **** }
 472              		.loc 1 316 5 is_stmt 1
 473              		.loc 1 317 1 is_stmt 0
 474 007a 4101     		addi	sp,sp,16
 475              	.LCFI4:
 476              		.cfi_remember_state
 477              		.cfi_def_cfa_offset 0
 478 007c 8280     		jr	ra
 479              	.LVL27:
 480              	.L16:
 481              	.LCFI5:
 482              		.cfi_restore_state
 285:drv_usb_dev.c **** 
 483              		.loc 1 285 9 is_stmt 1
 285:drv_usb_dev.c **** 
 484              		.loc 1 285 38 is_stmt 0
 485 007e 93078700 		addi	a5,a4,8
 486 0082 8A07     		slli	a5,a5,2
 487 0084 AA97     		add	a5,a0,a5
 287:drv_usb_dev.c ****     }
 488              		.loc 1 287 28
 489 0086 13060701 		addi	a2,a4,16
 287:drv_usb_dev.c ****     }
 490              		.loc 1 287 21
 491 008a 8546     		li	a3,1
 285:drv_usb_dev.c **** 
 492              		.loc 1 285 18
 493 008c DC47     		lw	a5,12(a5)
 494              	.LVL28:
 287:drv_usb_dev.c ****     }
 495              		.loc 1 287 9 is_stmt 1
 287:drv_usb_dev.c ****     }
 496              		.loc 1 287 21 is_stmt 0
 497 008e B396C600 		sll	a3,a3,a2
GAS LISTING C:\Users\Uzair\AppData\Local\Temp\ccH4xex5.s 			page 17


 498 0092 71B7     		j	.L22
 499              	.LVL29:
 500              	.L19:
 298:drv_usb_dev.c ****         }
 501              		.loc 1 298 13 is_stmt 1
 298:drv_usb_dev.c ****         }
 502              		.loc 1 298 23 is_stmt 0
 503 0094 8843     		lw	a0,0(a5)
 298:drv_usb_dev.c ****         }
 504              		.loc 1 298 32
 505 0096 83D64500 		lhu	a3,4(a1)
 298:drv_usb_dev.c ****         }
 506              		.loc 1 298 23
 507 009a C98E     		or	a3,a3,a0
 508 009c 75BF     		j	.L23
 509              		.cfi_endproc
 510              	.LFE8:
 512              		.section	.text.usb_transc_deactivate,"ax",@progbits
 513              		.align	1
 514              		.globl	usb_transc_deactivate
 516              	usb_transc_deactivate:
 517              	.LFB9:
 318:drv_usb_dev.c **** 
 319:drv_usb_dev.c **** /*!
 320:drv_usb_dev.c ****     \brief      deactive the usb transaction
 321:drv_usb_dev.c ****     \param[in]  udev: pointer to usb device
 322:drv_usb_dev.c ****     \param[in]  transc: the usb transaction
 323:drv_usb_dev.c ****     \param[out] none
 324:drv_usb_dev.c ****     \retval     status
 325:drv_usb_dev.c **** */
 326:drv_usb_dev.c **** usb_status usb_transc_deactivate(usb_core_driver *udev, usb_transc *transc)
 327:drv_usb_dev.c **** {
 518              		.loc 1 327 1 is_stmt 1
 519              		.cfi_startproc
 520              	.LVL30:
 328:drv_usb_dev.c ****     uint32_t epinten = 0U;
 521              		.loc 1 328 5
 329:drv_usb_dev.c **** 
 330:drv_usb_dev.c ****     uint8_t ep_num = transc->ep_addr.num;
 522              		.loc 1 330 5
 331:drv_usb_dev.c **** 
 332:drv_usb_dev.c ****     /* disable endpoint interrupt number */
 333:drv_usb_dev.c ****     if (transc->ep_addr.dir) {
 523              		.loc 1 333 5
 330:drv_usb_dev.c **** 
 524              		.loc 1 330 37 is_stmt 0
 525 0000 9C41     		lw	a5,0(a1)
 526              		.loc 1 333 8
 527 0002 03870500 		lb	a4,0(a1)
 528 0006 BD8B     		andi	a5,a5,15
 529 0008 63550702 		bge	a4,zero,.L25
 334:drv_usb_dev.c ****         epinten = 1 << ep_num;
 530              		.loc 1 334 9 is_stmt 1
 531              		.loc 1 334 21 is_stmt 0
 532 000c 0547     		li	a4,1
 533 000e 3317F700 		sll	a4,a4,a5
 534              	.LVL31:
GAS LISTING C:\Users\Uzair\AppData\Local\Temp\ccH4xex5.s 			page 18


 335:drv_usb_dev.c **** 
 336:drv_usb_dev.c ****         udev->regs.er_in[ep_num]->DIEPCTL &= ~DEPCTL_EPACT;
 535              		.loc 1 336 9 is_stmt 1
 536              		.loc 1 336 25 is_stmt 0
 537 0012 8A07     		slli	a5,a5,2
 538 0014 AA97     		add	a5,a0,a5
 539 0016 D04B     		lw	a2,20(a5)
 540              	.L27:
 337:drv_usb_dev.c ****     } else {
 338:drv_usb_dev.c ****         epinten = 1 << (ep_num + 16);
 339:drv_usb_dev.c **** 
 340:drv_usb_dev.c ****         udev->regs.er_out[ep_num]->DOEPCTL &= ~DEPCTL_EPACT;
 541              		.loc 1 340 44
 542 0018 1C42     		lw	a5,0(a2)
 543 001a E176     		li	a3,-32768
 544 001c FD16     		addi	a3,a3,-1
 545 001e F58F     		and	a5,a5,a3
 546 0020 1CC2     		sw	a5,0(a2)
 341:drv_usb_dev.c ****     }
 342:drv_usb_dev.c **** 
 343:drv_usb_dev.c **** #ifdef USB_OTG_HS_DEDICATED_EP1_ENABLED
 344:drv_usb_dev.c ****     if ((ep_num == 1) && (udev->bp.core == USB_CORE_HS)) {
 345:drv_usb_dev.c ****         udev->regs.dr->DEP1INTEN &= ~epinten;
 346:drv_usb_dev.c ****     }
 347:drv_usb_dev.c ****     else
 348:drv_usb_dev.c **** #endif
 349:drv_usb_dev.c ****     {
 350:drv_usb_dev.c ****         /* disable the interrupts for this endpoint */
 351:drv_usb_dev.c ****         udev->regs.dr->DAEPINTEN &= ~epinten;
 547              		.loc 1 351 9 is_stmt 1
 548              		.loc 1 351 19 is_stmt 0
 549 0022 5C45     		lw	a5,12(a0)
 550              		.loc 1 351 37
 551 0024 1347F7FF 		not	a4,a4
 552              	.LVL32:
 352:drv_usb_dev.c ****     }
 353:drv_usb_dev.c **** 
 354:drv_usb_dev.c ****     return USB_OK;
 355:drv_usb_dev.c **** }
 553              		.loc 1 355 1
 554 0028 0145     		li	a0,0
 555              	.LVL33:
 351:drv_usb_dev.c ****     }
 556              		.loc 1 351 34
 557 002a D44F     		lw	a3,28(a5)
 558 002c 758F     		and	a4,a4,a3
 559              	.LVL34:
 560 002e D8CF     		sw	a4,28(a5)
 354:drv_usb_dev.c **** }
 561              		.loc 1 354 5 is_stmt 1
 562              		.loc 1 355 1 is_stmt 0
 563 0030 8280     		ret
 564              	.LVL35:
 565              	.L25:
 338:drv_usb_dev.c **** 
 566              		.loc 1 338 9 is_stmt 1
 338:drv_usb_dev.c **** 
GAS LISTING C:\Users\Uzair\AppData\Local\Temp\ccH4xex5.s 			page 19


 567              		.loc 1 338 32 is_stmt 0
 568 0032 93860701 		addi	a3,a5,16
 340:drv_usb_dev.c ****     }
 569              		.loc 1 340 26
 570 0036 A107     		addi	a5,a5,8
 571 0038 8A07     		slli	a5,a5,2
 338:drv_usb_dev.c **** 
 572              		.loc 1 338 21
 573 003a 0547     		li	a4,1
 340:drv_usb_dev.c ****     }
 574              		.loc 1 340 26
 575 003c AA97     		add	a5,a0,a5
 338:drv_usb_dev.c **** 
 576              		.loc 1 338 21
 577 003e 3317D700 		sll	a4,a4,a3
 578              	.LVL36:
 340:drv_usb_dev.c ****     }
 579              		.loc 1 340 9 is_stmt 1
 340:drv_usb_dev.c ****     }
 580              		.loc 1 340 26 is_stmt 0
 581 0042 D047     		lw	a2,12(a5)
 582 0044 D1BF     		j	.L27
 583              		.cfi_endproc
 584              	.LFE9:
 586              		.section	.text.usb_transc_inxfer,"ax",@progbits
 587              		.align	1
 588              		.globl	usb_transc_inxfer
 590              	usb_transc_inxfer:
 591              	.LFB10:
 356:drv_usb_dev.c **** 
 357:drv_usb_dev.c **** /*!
 358:drv_usb_dev.c ****     \brief      configure usb transaction to start IN transfer
 359:drv_usb_dev.c ****     \param[in]  udev: pointer to usb device
 360:drv_usb_dev.c ****     \param[in]  transc: the usb IN transaction
 361:drv_usb_dev.c ****     \param[out] none
 362:drv_usb_dev.c ****     \retval     status
 363:drv_usb_dev.c **** */
 364:drv_usb_dev.c **** usb_status usb_transc_inxfer (usb_core_driver *udev, usb_transc *transc)
 365:drv_usb_dev.c **** {
 592              		.loc 1 365 1 is_stmt 1
 593              		.cfi_startproc
 594              	.LVL37:
 366:drv_usb_dev.c ****     usb_status status = USB_OK;
 595              		.loc 1 366 5
 367:drv_usb_dev.c **** 
 368:drv_usb_dev.c ****     uint8_t ep_num = transc->ep_addr.num;
 596              		.loc 1 368 5
 597              		.loc 1 368 37 is_stmt 0
 598 0000 9041     		lw	a2,0(a1)
 365:drv_usb_dev.c ****     usb_status status = USB_OK;
 599              		.loc 1 365 1
 600 0002 0111     		addi	sp,sp,-32
 601              	.LCFI6:
 602              		.cfi_def_cfa_offset 32
 369:drv_usb_dev.c **** 
 370:drv_usb_dev.c ****     __IO uint32_t epctl = udev->regs.er_in[ep_num]->DIEPCTL;
 371:drv_usb_dev.c ****     __IO uint32_t eplen = udev->regs.er_in[ep_num]->DIEPLEN;
GAS LISTING C:\Users\Uzair\AppData\Local\Temp\ccH4xex5.s 			page 20


 372:drv_usb_dev.c **** 
 373:drv_usb_dev.c ****     eplen &= ~(DEPLEN_TLEN | DEPLEN_PCNT);
 603              		.loc 1 373 11
 604 0004 B70600E0 		li	a3,-536870912
 368:drv_usb_dev.c **** 
 605              		.loc 1 368 37
 606 0008 3D8A     		andi	a2,a2,15
 607              	.LVL38:
 370:drv_usb_dev.c ****     __IO uint32_t eplen = udev->regs.er_in[ep_num]->DIEPLEN;
 608              		.loc 1 370 5 is_stmt 1
 370:drv_usb_dev.c ****     __IO uint32_t eplen = udev->regs.er_in[ep_num]->DIEPLEN;
 609              		.loc 1 370 43 is_stmt 0
 610 000a 93172600 		slli	a5,a2,2
 611 000e AA97     		add	a5,a0,a5
 612 0010 D84B     		lw	a4,20(a5)
 365:drv_usb_dev.c ****     usb_status status = USB_OK;
 613              		.loc 1 365 1
 614 0012 06CE     		sw	ra,28(sp)
 615              		.cfi_offset 1, -4
 370:drv_usb_dev.c ****     __IO uint32_t eplen = udev->regs.er_in[ep_num]->DIEPLEN;
 616              		.loc 1 370 51
 617 0014 1C43     		lw	a5,0(a4)
 370:drv_usb_dev.c ****     __IO uint32_t eplen = udev->regs.er_in[ep_num]->DIEPLEN;
 618              		.loc 1 370 19
 619 0016 3EC4     		sw	a5,8(sp)
 371:drv_usb_dev.c **** 
 620              		.loc 1 371 5 is_stmt 1
 371:drv_usb_dev.c **** 
 621              		.loc 1 371 51 is_stmt 0
 622 0018 1C4B     		lw	a5,16(a4)
 371:drv_usb_dev.c **** 
 623              		.loc 1 371 19
 624 001a 3EC6     		sw	a5,12(sp)
 625              		.loc 1 373 5 is_stmt 1
 626              		.loc 1 373 11 is_stmt 0
 627 001c B247     		lw	a5,12(sp)
 628 001e F58F     		and	a5,a5,a3
 629 0020 3EC6     		sw	a5,12(sp)
 374:drv_usb_dev.c **** 
 375:drv_usb_dev.c ****     /* zero length packet or endpoint 0 */
 376:drv_usb_dev.c ****     if (0U == transc->xfer_len) {
 630              		.loc 1 376 5 is_stmt 1
 631              		.loc 1 376 21 is_stmt 0
 632 0022 DC45     		lw	a5,12(a1)
 633              		.loc 1 376 8
 634 0024 A5E7     		bne	a5,zero,.L29
 377:drv_usb_dev.c ****         /* set transfer packet count to 1 */
 378:drv_usb_dev.c ****         eplen |= 1 << 19;
 635              		.loc 1 378 9 is_stmt 1
 636              		.loc 1 378 15 is_stmt 0
 637 0026 B247     		lw	a5,12(sp)
 638 0028 B7060800 		li	a3,524288
 639              	.L44:
 379:drv_usb_dev.c ****     } else {
 380:drv_usb_dev.c ****         /* set transfer packet count */
 381:drv_usb_dev.c ****         if (0U == ep_num) {
 382:drv_usb_dev.c ****             transc->xfer_len = USB_MIN(transc->xfer_len, transc->max_len);
GAS LISTING C:\Users\Uzair\AppData\Local\Temp\ccH4xex5.s 			page 21


 383:drv_usb_dev.c **** 
 384:drv_usb_dev.c ****             eplen |= 1 << 19;
 385:drv_usb_dev.c ****         } else {
 386:drv_usb_dev.c ****             eplen |= ((transc->xfer_len - 1 + transc->max_len) / transc->max_len) << 19;
 387:drv_usb_dev.c ****         }
 388:drv_usb_dev.c **** 
 389:drv_usb_dev.c ****         /* set endpoint transfer length */
 390:drv_usb_dev.c ****         eplen |= transc->xfer_len;
 391:drv_usb_dev.c **** 
 392:drv_usb_dev.c ****         if (transc->ep_type == USB_EPTYPE_ISOC) {
 393:drv_usb_dev.c ****             eplen |= DIEPLEN_MCNT;
 640              		.loc 1 393 19
 641 002c D58F     		or	a5,a5,a3
 642 002e 3EC6     		sw	a5,12(sp)
 643              	.L30:
 394:drv_usb_dev.c ****         }
 395:drv_usb_dev.c ****     }
 396:drv_usb_dev.c **** 
 397:drv_usb_dev.c ****     udev->regs.er_in[ep_num]->DIEPLEN = eplen;
 644              		.loc 1 397 5 is_stmt 1
 645              		.loc 1 397 39 is_stmt 0
 646 0030 B247     		lw	a5,12(sp)
 647 0032 1CCB     		sw	a5,16(a4)
 398:drv_usb_dev.c **** 
 399:drv_usb_dev.c ****     if (USB_USE_DMA == udev->bp.transfer_mode) {
 648              		.loc 1 399 5 is_stmt 1
 649              		.loc 1 399 8 is_stmt 0
 650 0034 83464500 		lbu	a3,4(a0)
 651 0038 8547     		li	a5,1
 652 003a 6394F600 		bne	a3,a5,.L34
 400:drv_usb_dev.c ****         udev->regs.er_in[ep_num]->DIEPDMAADDR = transc->dma_addr;
 653              		.loc 1 400 9 is_stmt 1
 654              		.loc 1 400 55 is_stmt 0
 655 003e 9C4D     		lw	a5,24(a1)
 656              		.loc 1 400 47
 657 0040 5CCB     		sw	a5,20(a4)
 658              	.L34:
 401:drv_usb_dev.c ****     }
 402:drv_usb_dev.c **** 
 403:drv_usb_dev.c ****     if (transc->ep_type == USB_EPTYPE_ISOC) {
 659              		.loc 1 403 5 is_stmt 1
 660              		.loc 1 403 15 is_stmt 0
 661 0042 03C81500 		lbu	a6,1(a1)
 662              		.loc 1 403 8
 663 0046 8547     		li	a5,1
 664 0048 631CF800 		bne	a6,a5,.L35
 404:drv_usb_dev.c ****         if (((udev->regs.dr->DSTAT & DSTAT_FNRSOF) >> 8) & 0x1) {
 665              		.loc 1 404 9 is_stmt 1
 666              		.loc 1 404 25 is_stmt 0
 667 004c 5C45     		lw	a5,12(a0)
 668              		.loc 1 404 28
 669 004e 9C47     		lw	a5,8(a5)
 670              		.loc 1 404 13
 671 0050 93F70710 		andi	a5,a5,256
 672              		.loc 1 404 12
 673 0054 B5CF     		beq	a5,zero,.L36
 405:drv_usb_dev.c ****             epctl |= DEPCTL_SD1PID;
GAS LISTING C:\Users\Uzair\AppData\Local\Temp\ccH4xex5.s 			page 22


 674              		.loc 1 405 13 is_stmt 1
 675              		.loc 1 405 19 is_stmt 0
 676 0056 A247     		lw	a5,8(sp)
 677 0058 B7060020 		li	a3,536870912
 678              	.L45:
 406:drv_usb_dev.c ****         } else {
 407:drv_usb_dev.c ****             epctl |= DEPCTL_SD0PID;
 679              		.loc 1 407 19
 680 005c D58F     		or	a5,a5,a3
 681 005e 3EC4     		sw	a5,8(sp)
 682              	.L35:
 408:drv_usb_dev.c ****         }
 409:drv_usb_dev.c ****     }
 410:drv_usb_dev.c **** 
 411:drv_usb_dev.c ****     /* enable the endpoint and clear the NAK */
 412:drv_usb_dev.c ****     epctl |= DEPCTL_CNAK | DEPCTL_EPEN;
 683              		.loc 1 412 5 is_stmt 1
 684              		.loc 1 412 11 is_stmt 0
 685 0060 A247     		lw	a5,8(sp)
 686 0062 B7060084 		li	a3,-2080374784
 687 0066 D58F     		or	a5,a5,a3
 688 0068 3EC4     		sw	a5,8(sp)
 413:drv_usb_dev.c **** 
 414:drv_usb_dev.c ****     udev->regs.er_in[ep_num]->DIEPCTL = epctl;
 689              		.loc 1 414 5 is_stmt 1
 690              		.loc 1 414 39 is_stmt 0
 691 006a A247     		lw	a5,8(sp)
 692 006c D445     		lw	a3,12(a1)
 693 006e 1CC3     		sw	a5,0(a4)
 415:drv_usb_dev.c **** 
 416:drv_usb_dev.c ****     if (transc->ep_type != USB_EPTYPE_ISOC) {
 694              		.loc 1 416 5 is_stmt 1
 695              		.loc 1 416 8 is_stmt 0
 696 0070 8547     		li	a5,1
 697 0072 6303F806 		beq	a6,a5,.L37
 417:drv_usb_dev.c ****         /* enable the Tx FIFO empty interrupt for this endpoint */
 418:drv_usb_dev.c ****         if (transc->xfer_len > 0) {
 698              		.loc 1 418 9 is_stmt 1
 699              		.loc 1 418 12 is_stmt 0
 700 0076 99C6     		beq	a3,zero,.L38
 419:drv_usb_dev.c ****             udev->regs.dr->DIEPFEINTEN |= 1 << ep_num;
 701              		.loc 1 419 13 is_stmt 1
 702              		.loc 1 419 23 is_stmt 0
 703 0078 5845     		lw	a4,12(a0)
 704              		.loc 1 419 45
 705 007a 3396C700 		sll	a2,a5,a2
 706              	.LVL39:
 707              		.loc 1 419 40
 708 007e 545B     		lw	a3,52(a4)
 709 0080 558E     		or	a2,a2,a3
 710 0082 50DB     		sw	a2,52(a4)
 711              	.LVL40:
 712              	.L38:
 420:drv_usb_dev.c ****         }
 421:drv_usb_dev.c ****     } else {
 422:drv_usb_dev.c ****         usb_txfifo_write (&udev->regs, transc->xfer_buf, ep_num, transc->xfer_len);
 423:drv_usb_dev.c ****     }
GAS LISTING C:\Users\Uzair\AppData\Local\Temp\ccH4xex5.s 			page 23


 424:drv_usb_dev.c **** 
 425:drv_usb_dev.c ****     return status;
 713              		.loc 1 425 5 is_stmt 1
 426:drv_usb_dev.c **** }
 714              		.loc 1 426 1 is_stmt 0
 715 0084 F240     		lw	ra,28(sp)
 716              		.cfi_remember_state
 717              		.cfi_restore 1
 718 0086 0145     		li	a0,0
 719 0088 0561     		addi	sp,sp,32
 720              	.LCFI7:
 721              		.cfi_def_cfa_offset 0
 722 008a 8280     		jr	ra
 723              	.LVL41:
 724              	.L29:
 725              	.LCFI8:
 726              		.cfi_restore_state
 381:drv_usb_dev.c ****             transc->xfer_len = USB_MIN(transc->xfer_len, transc->max_len);
 727              		.loc 1 381 9 is_stmt 1
 728 008c 83D64500 		lhu	a3,4(a1)
 381:drv_usb_dev.c ****             transc->xfer_len = USB_MIN(transc->xfer_len, transc->max_len);
 729              		.loc 1 381 12 is_stmt 0
 730 0090 1DE6     		bne	a2,zero,.L31
 382:drv_usb_dev.c **** 
 731              		.loc 1 382 13 is_stmt 1
 382:drv_usb_dev.c **** 
 732              		.loc 1 382 32 is_stmt 0
 733 0092 63F3F600 		bleu	a5,a3,.L32
 734 0096 B687     		mv	a5,a3
 735              	.L32:
 382:drv_usb_dev.c **** 
 736              		.loc 1 382 30
 737 0098 DCC5     		sw	a5,12(a1)
 384:drv_usb_dev.c ****         } else {
 738              		.loc 1 384 13 is_stmt 1
 384:drv_usb_dev.c ****         } else {
 739              		.loc 1 384 19 is_stmt 0
 740 009a B247     		lw	a5,12(sp)
 741 009c B7060800 		li	a3,524288
 742 00a0 D58F     		or	a5,a5,a3
 743              	.L43:
 386:drv_usb_dev.c ****         }
 744              		.loc 1 386 19
 745 00a2 3EC6     		sw	a5,12(sp)
 390:drv_usb_dev.c **** 
 746              		.loc 1 390 9 is_stmt 1
 390:drv_usb_dev.c **** 
 747              		.loc 1 390 15 is_stmt 0
 748 00a4 B247     		lw	a5,12(sp)
 749 00a6 D445     		lw	a3,12(a1)
 750 00a8 D58F     		or	a5,a5,a3
 392:drv_usb_dev.c ****             eplen |= DIEPLEN_MCNT;
 751              		.loc 1 392 12
 752 00aa 83C61500 		lbu	a3,1(a1)
 390:drv_usb_dev.c **** 
 753              		.loc 1 390 15
 754 00ae 3EC6     		sw	a5,12(sp)
GAS LISTING C:\Users\Uzair\AppData\Local\Temp\ccH4xex5.s 			page 24


 392:drv_usb_dev.c ****             eplen |= DIEPLEN_MCNT;
 755              		.loc 1 392 9 is_stmt 1
 392:drv_usb_dev.c ****             eplen |= DIEPLEN_MCNT;
 756              		.loc 1 392 12 is_stmt 0
 757 00b0 8547     		li	a5,1
 758 00b2 E39FF6F6 		bne	a3,a5,.L30
 393:drv_usb_dev.c ****         }
 759              		.loc 1 393 13 is_stmt 1
 393:drv_usb_dev.c ****         }
 760              		.loc 1 393 19 is_stmt 0
 761 00b6 B247     		lw	a5,12(sp)
 762 00b8 B7060060 		li	a3,1610612736
 763 00bc 85BF     		j	.L44
 764              	.L31:
 386:drv_usb_dev.c ****         }
 765              		.loc 1 386 13 is_stmt 1
 386:drv_usb_dev.c ****         }
 766              		.loc 1 386 45 is_stmt 0
 767 00be FD17     		addi	a5,a5,-1
 768 00c0 B697     		add	a5,a5,a3
 386:drv_usb_dev.c ****         }
 769              		.loc 1 386 64
 770 00c2 B3D7D702 		divu	a5,a5,a3
 386:drv_usb_dev.c ****         }
 771              		.loc 1 386 19
 772 00c6 3248     		lw	a6,12(sp)
 386:drv_usb_dev.c ****         }
 773              		.loc 1 386 83
 774 00c8 CE07     		slli	a5,a5,19
 386:drv_usb_dev.c ****         }
 775              		.loc 1 386 19
 776 00ca B3E70701 		or	a5,a5,a6
 777 00ce D1BF     		j	.L43
 778              	.L36:
 407:drv_usb_dev.c ****         }
 779              		.loc 1 407 13 is_stmt 1
 407:drv_usb_dev.c ****         }
 780              		.loc 1 407 19 is_stmt 0
 781 00d0 A247     		lw	a5,8(sp)
 782 00d2 B7060010 		li	a3,268435456
 783 00d6 59B7     		j	.L45
 784              	.L37:
 422:drv_usb_dev.c ****     }
 785              		.loc 1 422 9 is_stmt 1
 786 00d8 8C45     		lw	a1,8(a1)
 787              	.LVL42:
 788 00da C206     		slli	a3,a3,16
 789 00dc C182     		srli	a3,a3,16
 790 00de 2105     		addi	a0,a0,8
 791              	.LVL43:
 792 00e0 97000000 		call	usb_txfifo_write
 792      E7800000 
 793              	.LVL44:
 794 00e8 71BF     		j	.L38
 795              		.cfi_endproc
 796              	.LFE10:
 798              		.section	.text.usb_transc_outxfer,"ax",@progbits
GAS LISTING C:\Users\Uzair\AppData\Local\Temp\ccH4xex5.s 			page 25


 799              		.align	1
 800              		.globl	usb_transc_outxfer
 802              	usb_transc_outxfer:
 803              	.LFB11:
 427:drv_usb_dev.c **** 
 428:drv_usb_dev.c **** /*!
 429:drv_usb_dev.c ****     \brief      configure usb transaction to start OUT transfer
 430:drv_usb_dev.c ****     \param[in]  udev: pointer to usb device
 431:drv_usb_dev.c ****     \param[in]  transc: the usb OUT transaction
 432:drv_usb_dev.c ****     \param[out] none
 433:drv_usb_dev.c ****     \retval     status
 434:drv_usb_dev.c **** */
 435:drv_usb_dev.c **** usb_status usb_transc_outxfer (usb_core_driver *udev, usb_transc *transc)
 436:drv_usb_dev.c **** {
 804              		.loc 1 436 1
 805              		.cfi_startproc
 806              	.LVL45:
 437:drv_usb_dev.c ****     usb_status status = USB_OK;
 807              		.loc 1 437 5
 438:drv_usb_dev.c **** 
 439:drv_usb_dev.c ****     uint8_t ep_num = transc->ep_addr.num;
 808              		.loc 1 439 5
 809              		.loc 1 439 37 is_stmt 0
 810 0000 9841     		lw	a4,0(a1)
 440:drv_usb_dev.c **** 
 441:drv_usb_dev.c ****     uint32_t epctl = udev->regs.er_out[ep_num]->DOEPCTL;
 442:drv_usb_dev.c ****     uint32_t eplen = udev->regs.er_out[ep_num]->DOEPLEN;
 443:drv_usb_dev.c **** 
 444:drv_usb_dev.c ****     eplen &= ~(DEPLEN_TLEN | DEPLEN_PCNT);
 445:drv_usb_dev.c **** 
 446:drv_usb_dev.c ****     /* zero length packet or endpoint 0 */
 447:drv_usb_dev.c ****     if ((0U == transc->xfer_len) || (0U == ep_num)) {
 811              		.loc 1 447 22
 812 0002 D445     		lw	a3,12(a1)
 439:drv_usb_dev.c **** 
 813              		.loc 1 439 37
 814 0004 3D8B     		andi	a4,a4,15
 815              	.LVL46:
 441:drv_usb_dev.c ****     uint32_t eplen = udev->regs.er_out[ep_num]->DOEPLEN;
 816              		.loc 1 441 5 is_stmt 1
 441:drv_usb_dev.c ****     uint32_t eplen = udev->regs.er_out[ep_num]->DOEPLEN;
 817              		.loc 1 441 39 is_stmt 0
 818 0006 93078700 		addi	a5,a4,8
 819 000a 8A07     		slli	a5,a5,2
 820 000c AA97     		add	a5,a0,a5
 821 000e 83A8C700 		lw	a7,12(a5)
 444:drv_usb_dev.c **** 
 822              		.loc 1 444 11
 823 0012 B70700E0 		li	a5,-536870912
 441:drv_usb_dev.c ****     uint32_t eplen = udev->regs.er_out[ep_num]->DOEPLEN;
 824              		.loc 1 441 14
 825 0016 03A60800 		lw	a2,0(a7)
 826              	.LVL47:
 442:drv_usb_dev.c **** 
 827              		.loc 1 442 5 is_stmt 1
 442:drv_usb_dev.c **** 
 828              		.loc 1 442 14 is_stmt 0
GAS LISTING C:\Users\Uzair\AppData\Local\Temp\ccH4xex5.s 			page 26


 829 001a 03A80801 		lw	a6,16(a7)
 830              	.LVL48:
 444:drv_usb_dev.c **** 
 831              		.loc 1 444 5 is_stmt 1
 444:drv_usb_dev.c **** 
 832              		.loc 1 444 11 is_stmt 0
 833 001e 3378F800 		and	a6,a6,a5
 834              	.LVL49:
 835              		.loc 1 447 5 is_stmt 1
 836 0022 83D74500 		lhu	a5,4(a1)
 837              		.loc 1 447 8 is_stmt 0
 838 0026 91C2     		beq	a3,zero,.L47
 839              		.loc 1 447 34 discriminator 1
 840 0028 39E3     		bne	a4,zero,.L48
 841              	.L47:
 448:drv_usb_dev.c ****         /* set the transfer length to max packet size */
 449:drv_usb_dev.c ****         eplen |= transc->max_len;
 842              		.loc 1 449 9 is_stmt 1
 843              		.loc 1 449 15 is_stmt 0
 844 002a 3368F800 		or	a6,a6,a5
 845              	.LVL50:
 450:drv_usb_dev.c **** 
 451:drv_usb_dev.c ****         /* set the transfer packet count to 1 */
 452:drv_usb_dev.c ****         eplen |= 1U << 19;
 846              		.loc 1 452 9 is_stmt 1
 847              		.loc 1 452 15 is_stmt 0
 848 002e B7070800 		li	a5,524288
 849              	.LVL51:
 850              	.L56:
 851              	.LBB2:
 453:drv_usb_dev.c ****     } else {
 454:drv_usb_dev.c ****         /* configure the transfer size and packet count as follows:
 455:drv_usb_dev.c ****          * pktcnt = N
 456:drv_usb_dev.c ****          * xfersize = N * maxpacket
 457:drv_usb_dev.c ****          */
 458:drv_usb_dev.c ****         uint32_t packet_count = (transc->xfer_len + transc->max_len - 1) / transc->max_len;
 459:drv_usb_dev.c **** 
 460:drv_usb_dev.c ****         eplen |= packet_count << 19;
 461:drv_usb_dev.c ****         eplen |= packet_count * transc->max_len;
 852              		.loc 1 461 15
 853 0032 B3E70701 		or	a5,a5,a6
 854              	.LVL52:
 855              	.LBE2:
 462:drv_usb_dev.c ****     }
 463:drv_usb_dev.c **** 
 464:drv_usb_dev.c ****     udev->regs.er_out[ep_num]->DOEPLEN = eplen;
 856              		.loc 1 464 5 is_stmt 1
 857              		.loc 1 464 40 is_stmt 0
 858 0036 23A8F800 		sw	a5,16(a7)
 465:drv_usb_dev.c **** 
 466:drv_usb_dev.c ****     if (USB_USE_DMA == udev->bp.transfer_mode) {
 859              		.loc 1 466 5 is_stmt 1
 860              		.loc 1 466 8 is_stmt 0
 861 003a 03474500 		lbu	a4,4(a0)
 862 003e 8547     		li	a5,1
 863              	.LVL53:
 864 0040 6315F700 		bne	a4,a5,.L50
GAS LISTING C:\Users\Uzair\AppData\Local\Temp\ccH4xex5.s 			page 27


 467:drv_usb_dev.c ****         udev->regs.er_out[ep_num]->DOEPDMAADDR = transc->dma_addr;
 865              		.loc 1 467 9 is_stmt 1
 866              		.loc 1 467 56 is_stmt 0
 867 0044 9C4D     		lw	a5,24(a1)
 868              		.loc 1 467 48
 869 0046 23AAF800 		sw	a5,20(a7)
 870              	.LVL54:
 871              	.L50:
 468:drv_usb_dev.c ****     }
 469:drv_usb_dev.c **** 
 470:drv_usb_dev.c ****     if (transc->ep_type == USB_EPTYPE_ISOC) {
 872              		.loc 1 470 5 is_stmt 1
 873              		.loc 1 470 8 is_stmt 0
 874 004a 03C71500 		lbu	a4,1(a1)
 875 004e 8547     		li	a5,1
 876 0050 6318F700 		bne	a4,a5,.L51
 471:drv_usb_dev.c ****         if (transc->frame_num) {
 877              		.loc 1 471 9 is_stmt 1
 878              		.loc 1 471 12 is_stmt 0
 879 0054 83C73500 		lbu	a5,3(a1)
 880 0058 9DC7     		beq	a5,zero,.L52
 472:drv_usb_dev.c ****             epctl |= DEPCTL_SD1PID;
 881              		.loc 1 472 13 is_stmt 1
 882              		.loc 1 472 19 is_stmt 0
 883 005a B7070020 		li	a5,536870912
 884              	.L57:
 473:drv_usb_dev.c ****         } else {
 474:drv_usb_dev.c ****             epctl |= DEPCTL_SD0PID;
 885              		.loc 1 474 19
 886 005e 5D8E     		or	a2,a2,a5
 887              	.LVL55:
 888              	.L51:
 475:drv_usb_dev.c ****         }
 476:drv_usb_dev.c ****     }
 477:drv_usb_dev.c **** 
 478:drv_usb_dev.c ****     /* enable the endpoint and clear the NAK */
 479:drv_usb_dev.c ****     epctl |= DEPCTL_EPEN | DEPCTL_CNAK;
 889              		.loc 1 479 5 is_stmt 1
 890              		.loc 1 479 11 is_stmt 0
 891 0060 B7070084 		li	a5,-2080374784
 892 0064 5D8E     		or	a2,a2,a5
 893              	.LVL56:
 480:drv_usb_dev.c **** 
 481:drv_usb_dev.c ****     udev->regs.er_out[ep_num]->DOEPCTL = epctl;
 894              		.loc 1 481 5 is_stmt 1
 895              		.loc 1 481 40 is_stmt 0
 896 0066 23A0C800 		sw	a2,0(a7)
 482:drv_usb_dev.c **** 
 483:drv_usb_dev.c ****     return status;
 897              		.loc 1 483 5 is_stmt 1
 484:drv_usb_dev.c **** }
 898              		.loc 1 484 1 is_stmt 0
 899 006a 0145     		li	a0,0
 900              	.LVL57:
 901 006c 8280     		ret
 902              	.LVL58:
 903              	.L48:
GAS LISTING C:\Users\Uzair\AppData\Local\Temp\ccH4xex5.s 			page 28


 904              	.LBB3:
 458:drv_usb_dev.c **** 
 905              		.loc 1 458 9 is_stmt 1
 458:drv_usb_dev.c **** 
 906              		.loc 1 458 69 is_stmt 0
 907 006e 1387F6FF 		addi	a4,a3,-1
 908              	.LVL59:
 909 0072 3E97     		add	a4,a4,a5
 458:drv_usb_dev.c **** 
 910              		.loc 1 458 18
 911 0074 3357F702 		divu	a4,a4,a5
 912              	.LVL60:
 460:drv_usb_dev.c ****         eplen |= packet_count * transc->max_len;
 913              		.loc 1 460 9 is_stmt 1
 461:drv_usb_dev.c ****     }
 914              		.loc 1 461 9
 460:drv_usb_dev.c ****         eplen |= packet_count * transc->max_len;
 915              		.loc 1 460 31 is_stmt 0
 916 0078 93163701 		slli	a3,a4,19
 917 007c 33E80601 		or	a6,a3,a6
 918              	.LVL61:
 461:drv_usb_dev.c ****     }
 919              		.loc 1 461 31
 920 0080 B307F702 		mul	a5,a4,a5
 921 0084 7DB7     		j	.L56
 922              	.LVL62:
 923              	.L52:
 924              	.LBE3:
 474:drv_usb_dev.c ****         }
 925              		.loc 1 474 13 is_stmt 1
 474:drv_usb_dev.c ****         }
 926              		.loc 1 474 19 is_stmt 0
 927 0086 B7070010 		li	a5,268435456
 928 008a D1BF     		j	.L57
 929              		.cfi_endproc
 930              	.LFE11:
 932              		.section	.text.usb_transc_stall,"ax",@progbits
 933              		.align	1
 934              		.globl	usb_transc_stall
 936              	usb_transc_stall:
 937              	.LFB12:
 485:drv_usb_dev.c **** 
 486:drv_usb_dev.c **** /*!
 487:drv_usb_dev.c ****     \brief      set the usb transaction STALL status
 488:drv_usb_dev.c ****     \param[in]  udev: pointer to usb device
 489:drv_usb_dev.c ****     \param[in]  transc: the usb transaction
 490:drv_usb_dev.c ****     \param[out] none
 491:drv_usb_dev.c ****     \retval     status
 492:drv_usb_dev.c **** */
 493:drv_usb_dev.c **** usb_status usb_transc_stall (usb_core_driver *udev, usb_transc *transc)
 494:drv_usb_dev.c **** {
 938              		.loc 1 494 1 is_stmt 1
 939              		.cfi_startproc
 940              	.LVL63:
 495:drv_usb_dev.c ****     __IO uint32_t *reg_addr = NULL;
 941              		.loc 1 495 5
 496:drv_usb_dev.c **** 
GAS LISTING C:\Users\Uzair\AppData\Local\Temp\ccH4xex5.s 			page 29


 497:drv_usb_dev.c ****     uint8_t ep_num = transc->ep_addr.num;
 942              		.loc 1 497 5
 498:drv_usb_dev.c **** 
 499:drv_usb_dev.c ****     if (transc->ep_addr.dir) {
 943              		.loc 1 499 5
 497:drv_usb_dev.c **** 
 944              		.loc 1 497 37 is_stmt 0
 945 0000 9C41     		lw	a5,0(a1)
 946              		.loc 1 499 8
 947 0002 03870500 		lb	a4,0(a1)
 948 0006 BD8B     		andi	a5,a5,15
 949 0008 63540702 		bge	a4,zero,.L59
 500:drv_usb_dev.c ****         reg_addr = &(udev->regs.er_in[ep_num]->DIEPCTL);
 950              		.loc 1 500 9 is_stmt 1
 951              		.loc 1 500 38 is_stmt 0
 952 000c 8A07     		slli	a5,a5,2
 953 000e AA97     		add	a5,a0,a5
 954 0010 DC4B     		lw	a5,20(a5)
 955              	.LVL64:
 501:drv_usb_dev.c **** 
 502:drv_usb_dev.c ****         /* set the endpoint disable bit */
 503:drv_usb_dev.c ****         if (*reg_addr & DEPCTL_EPEN) {
 956              		.loc 1 503 9 is_stmt 1
 957              		.loc 1 503 13 is_stmt 0
 958 0012 9843     		lw	a4,0(a5)
 959              		.loc 1 503 12
 960 0014 63570700 		bge	a4,zero,.L60
 504:drv_usb_dev.c ****             *reg_addr |= DEPCTL_EPD;
 961              		.loc 1 504 13 is_stmt 1
 962              		.loc 1 504 23 is_stmt 0
 963 0018 9843     		lw	a4,0(a5)
 964 001a B7060040 		li	a3,1073741824
 965 001e 558F     		or	a4,a4,a3
 966 0020 98C3     		sw	a4,0(a5)
 967              	.L60:
 505:drv_usb_dev.c ****         }
 506:drv_usb_dev.c ****     } else {
 507:drv_usb_dev.c ****         /* set the endpoint stall bit */
 508:drv_usb_dev.c ****         reg_addr = &(udev->regs.er_out[ep_num]->DOEPCTL);
 509:drv_usb_dev.c ****     }
 510:drv_usb_dev.c **** 
 511:drv_usb_dev.c ****     /* set the endpoint stall bit */
 512:drv_usb_dev.c ****     *reg_addr |= DEPCTL_STALL;
 968              		.loc 1 512 5 is_stmt 1
 969              		.loc 1 512 15 is_stmt 0
 970 0022 9843     		lw	a4,0(a5)
 971 0024 B7062000 		li	a3,2097152
 513:drv_usb_dev.c **** 
 514:drv_usb_dev.c ****     return USB_OK;
 515:drv_usb_dev.c **** }
 972              		.loc 1 515 1
 973 0028 0145     		li	a0,0
 974              	.LVL65:
 512:drv_usb_dev.c **** 
 975              		.loc 1 512 15
 976 002a 558F     		or	a4,a4,a3
 977 002c 98C3     		sw	a4,0(a5)
GAS LISTING C:\Users\Uzair\AppData\Local\Temp\ccH4xex5.s 			page 30


 514:drv_usb_dev.c **** }
 978              		.loc 1 514 5 is_stmt 1
 979              		.loc 1 515 1 is_stmt 0
 980 002e 8280     		ret
 981              	.LVL66:
 982              	.L59:
 508:drv_usb_dev.c ****     }
 983              		.loc 1 508 9 is_stmt 1
 508:drv_usb_dev.c ****     }
 984              		.loc 1 508 39 is_stmt 0
 985 0030 A107     		addi	a5,a5,8
 986 0032 8A07     		slli	a5,a5,2
 987 0034 AA97     		add	a5,a0,a5
 508:drv_usb_dev.c ****     }
 988              		.loc 1 508 18
 989 0036 DC47     		lw	a5,12(a5)
 990              	.LVL67:
 991 0038 EDB7     		j	.L60
 992              		.cfi_endproc
 993              	.LFE12:
 995              		.section	.text.usb_transc_clrstall,"ax",@progbits
 996              		.align	1
 997              		.globl	usb_transc_clrstall
 999              	usb_transc_clrstall:
 1000              	.LFB13:
 516:drv_usb_dev.c **** 
 517:drv_usb_dev.c **** /*!
 518:drv_usb_dev.c ****     \brief      clear the usb transaction STALL status
 519:drv_usb_dev.c ****     \param[in]  udev: pointer to usb device
 520:drv_usb_dev.c ****     \param[in]  transc: the usb transaction
 521:drv_usb_dev.c ****     \param[out] none
 522:drv_usb_dev.c ****     \retval     status
 523:drv_usb_dev.c **** */
 524:drv_usb_dev.c **** usb_status usb_transc_clrstall(usb_core_driver *udev, usb_transc *transc)
 525:drv_usb_dev.c **** {
 1001              		.loc 1 525 1 is_stmt 1
 1002              		.cfi_startproc
 1003              	.LVL68:
 526:drv_usb_dev.c ****     __IO uint32_t *reg_addr = NULL;
 1004              		.loc 1 526 5
 527:drv_usb_dev.c **** 
 528:drv_usb_dev.c ****     uint8_t ep_num = transc->ep_addr.num;
 1005              		.loc 1 528 5
 529:drv_usb_dev.c **** 
 530:drv_usb_dev.c ****     if (transc->ep_addr.dir) {
 1006              		.loc 1 530 5
 528:drv_usb_dev.c **** 
 1007              		.loc 1 528 37 is_stmt 0
 1008 0000 9C41     		lw	a5,0(a1)
 1009              		.loc 1 530 8
 1010 0002 03870500 		lb	a4,0(a1)
 1011 0006 BD8B     		andi	a5,a5,15
 1012 0008 635A0702 		bge	a4,zero,.L62
 531:drv_usb_dev.c ****         reg_addr = &(udev->regs.er_in[ep_num]->DIEPCTL);
 1013              		.loc 1 531 9 is_stmt 1
 1014              		.loc 1 531 38 is_stmt 0
 1015 000c 8A07     		slli	a5,a5,2
GAS LISTING C:\Users\Uzair\AppData\Local\Temp\ccH4xex5.s 			page 31


 1016 000e AA97     		add	a5,a0,a5
 1017 0010 DC4B     		lw	a5,20(a5)
 1018              	.LVL69:
 1019              	.L65:
 532:drv_usb_dev.c ****     } else {
 533:drv_usb_dev.c ****         reg_addr = &(udev->regs.er_out[ep_num]->DOEPCTL);
 1020              		.loc 1 533 18
 1021 0012 9843     		lw	a4,0(a5)
 534:drv_usb_dev.c ****     }
 535:drv_usb_dev.c **** 
 536:drv_usb_dev.c ****     /* clear the endpoint stall bits */
 537:drv_usb_dev.c ****     *reg_addr &= ~DEPCTL_STALL;
 1022              		.loc 1 537 5 is_stmt 1
 1023              		.loc 1 537 15 is_stmt 0
 1024 0014 B706E0FF 		li	a3,-2097152
 1025 0018 FD16     		addi	a3,a3,-1
 1026 001a 758F     		and	a4,a4,a3
 1027 001c 98C3     		sw	a4,0(a5)
 538:drv_usb_dev.c **** 
 539:drv_usb_dev.c ****     /* reset data PID of the periodic endpoints */
 540:drv_usb_dev.c ****     if ((transc->ep_type == USB_EPTYPE_INTR) || (transc->ep_type == USB_EPTYPE_BULK)) {
 1028              		.loc 1 540 5 is_stmt 1
 1029              		.loc 1 540 46 is_stmt 0
 1030 001e 03C71500 		lbu	a4,1(a1)
 1031              		.loc 1 540 8
 1032 0022 8546     		li	a3,1
 1033              		.loc 1 540 46
 1034 0024 7917     		addi	a4,a4,-2
 1035              		.loc 1 540 8
 1036 0026 1377F70F 		andi	a4,a4,0xff
 1037 002a 63E7E600 		bgtu	a4,a3,.L64
 541:drv_usb_dev.c ****         *reg_addr |= DEPCTL_SD0PID;
 1038              		.loc 1 541 9 is_stmt 1
 1039              		.loc 1 541 19 is_stmt 0
 1040 002e 9843     		lw	a4,0(a5)
 1041 0030 B7060010 		li	a3,268435456
 1042 0034 558F     		or	a4,a4,a3
 1043 0036 98C3     		sw	a4,0(a5)
 1044              	.L64:
 542:drv_usb_dev.c ****     }
 543:drv_usb_dev.c **** 
 544:drv_usb_dev.c ****     return USB_OK;
 1045              		.loc 1 544 5 is_stmt 1
 545:drv_usb_dev.c **** }
 1046              		.loc 1 545 1 is_stmt 0
 1047 0038 0145     		li	a0,0
 1048              	.LVL70:
 1049 003a 8280     		ret
 1050              	.LVL71:
 1051              	.L62:
 533:drv_usb_dev.c ****     }
 1052              		.loc 1 533 9 is_stmt 1
 533:drv_usb_dev.c ****     }
 1053              		.loc 1 533 39 is_stmt 0
 1054 003c A107     		addi	a5,a5,8
 1055 003e 8A07     		slli	a5,a5,2
 1056 0040 AA97     		add	a5,a0,a5
GAS LISTING C:\Users\Uzair\AppData\Local\Temp\ccH4xex5.s 			page 32


 1057 0042 DC47     		lw	a5,12(a5)
 1058 0044 F9B7     		j	.L65
 1059              		.cfi_endproc
 1060              	.LFE13:
 1062              		.section	.text.usb_oepintnum_read,"ax",@progbits
 1063              		.align	1
 1064              		.globl	usb_oepintnum_read
 1066              	usb_oepintnum_read:
 1067              	.LFB14:
 546:drv_usb_dev.c **** 
 547:drv_usb_dev.c **** /*!
 548:drv_usb_dev.c ****     \brief      read device all OUT endpoint interrupt register
 549:drv_usb_dev.c ****     \param[in]  udev: pointer to usb device
 550:drv_usb_dev.c ****     \param[out] none
 551:drv_usb_dev.c ****     \retval     none
 552:drv_usb_dev.c **** */
 553:drv_usb_dev.c **** uint32_t usb_oepintnum_read (usb_core_driver *udev)
 554:drv_usb_dev.c **** {
 1068              		.loc 1 554 1 is_stmt 1
 1069              		.cfi_startproc
 1070              	.LVL72:
 555:drv_usb_dev.c ****     uint32_t value = udev->regs.dr->DAEPINT;
 1071              		.loc 1 555 5
 1072              		.loc 1 555 32 is_stmt 0
 1073 0000 5C45     		lw	a5,12(a0)
 1074              		.loc 1 555 14
 1075 0002 884F     		lw	a0,24(a5)
 1076              	.LVL73:
 556:drv_usb_dev.c **** 
 557:drv_usb_dev.c ****     value &= udev->regs.dr->DAEPINTEN;
 1077              		.loc 1 557 5 is_stmt 1
 1078              		.loc 1 557 27 is_stmt 0
 1079 0004 DC4F     		lw	a5,28(a5)
 1080              	.LVL74:
 558:drv_usb_dev.c **** 
 559:drv_usb_dev.c ****     return (value & DAEPINT_OEPITB) >> 16;
 1081              		.loc 1 559 5 is_stmt 1
 557:drv_usb_dev.c **** 
 1082              		.loc 1 557 11 is_stmt 0
 1083 0006 7D8D     		and	a0,a0,a5
 1084              	.LVL75:
 1085              		.loc 1 559 37
 1086 0008 4181     		srli	a0,a0,16
 1087              	.LVL76:
 560:drv_usb_dev.c **** }
 1088              		.loc 1 560 1
 1089 000a 1375F503 		andi	a0,a0,63
 1090 000e 8280     		ret
 1091              		.cfi_endproc
 1092              	.LFE14:
 1094              		.section	.text.usb_oepintr_read,"ax",@progbits
 1095              		.align	1
 1096              		.globl	usb_oepintr_read
 1098              	usb_oepintr_read:
 1099              	.LFB15:
 561:drv_usb_dev.c **** 
 562:drv_usb_dev.c **** /*!
GAS LISTING C:\Users\Uzair\AppData\Local\Temp\ccH4xex5.s 			page 33


 563:drv_usb_dev.c ****     \brief      read device OUT endpoint interrupt flag register
 564:drv_usb_dev.c ****     \param[in]  udev: pointer to usb device
 565:drv_usb_dev.c ****     \param[in]  ep_num: endpoint number
 566:drv_usb_dev.c ****     \param[out] none
 567:drv_usb_dev.c ****     \retval     none
 568:drv_usb_dev.c **** */
 569:drv_usb_dev.c **** uint32_t usb_oepintr_read (usb_core_driver *udev, uint8_t ep_num)
 570:drv_usb_dev.c **** {
 1100              		.loc 1 570 1 is_stmt 1
 1101              		.cfi_startproc
 1102              	.LVL77:
 571:drv_usb_dev.c ****     uint32_t value = udev->regs.er_out[ep_num]->DOEPINTF;
 1103              		.loc 1 571 5
 1104              		.loc 1 571 39 is_stmt 0
 1105 0000 A105     		addi	a1,a1,8
 1106              	.LVL78:
 1107 0002 8A05     		slli	a1,a1,2
 1108 0004 AA95     		add	a1,a0,a1
 1109 0006 DC45     		lw	a5,12(a1)
 1110              		.loc 1 571 14
 1111 0008 9847     		lw	a4,8(a5)
 1112              	.LVL79:
 572:drv_usb_dev.c **** 
 573:drv_usb_dev.c ****     value &= udev->regs.dr->DOEPINTEN;
 1113              		.loc 1 573 5 is_stmt 1
 1114              		.loc 1 573 24 is_stmt 0
 1115 000a 5C45     		lw	a5,12(a0)
 1116              		.loc 1 573 27
 1117 000c C84B     		lw	a0,20(a5)
 1118              	.LVL80:
 574:drv_usb_dev.c **** 
 575:drv_usb_dev.c ****     return value;
 1119              		.loc 1 575 5 is_stmt 1
 576:drv_usb_dev.c **** }
 1120              		.loc 1 576 1 is_stmt 0
 1121 000e 798D     		and	a0,a4,a0
 1122              	.LVL81:
 1123 0010 8280     		ret
 1124              		.cfi_endproc
 1125              	.LFE15:
 1127              		.section	.text.usb_iepintnum_read,"ax",@progbits
 1128              		.align	1
 1129              		.globl	usb_iepintnum_read
 1131              	usb_iepintnum_read:
 1132              	.LFB16:
 577:drv_usb_dev.c **** 
 578:drv_usb_dev.c **** /*!
 579:drv_usb_dev.c ****     \brief      read device all IN endpoint interrupt register
 580:drv_usb_dev.c ****     \param[in]  udev: pointer to usb device
 581:drv_usb_dev.c ****     \param[out] none
 582:drv_usb_dev.c ****     \retval     none
 583:drv_usb_dev.c **** */
 584:drv_usb_dev.c **** uint32_t usb_iepintnum_read (usb_core_driver *udev)
 585:drv_usb_dev.c **** {
 1133              		.loc 1 585 1 is_stmt 1
 1134              		.cfi_startproc
 1135              	.LVL82:
GAS LISTING C:\Users\Uzair\AppData\Local\Temp\ccH4xex5.s 			page 34


 586:drv_usb_dev.c ****     uint32_t value = udev->regs.dr->DAEPINT;
 1136              		.loc 1 586 5
 1137              		.loc 1 586 32 is_stmt 0
 1138 0000 5C45     		lw	a5,12(a0)
 1139              		.loc 1 586 14
 1140 0002 884F     		lw	a0,24(a5)
 1141              	.LVL83:
 587:drv_usb_dev.c **** 
 588:drv_usb_dev.c ****     value &= udev->regs.dr->DAEPINTEN;
 1142              		.loc 1 588 5 is_stmt 1
 1143              		.loc 1 588 27 is_stmt 0
 1144 0004 DC4F     		lw	a5,28(a5)
 1145              	.LVL84:
 589:drv_usb_dev.c ****     
 590:drv_usb_dev.c ****     return value & DAEPINT_IEPITB;
 1146              		.loc 1 590 5 is_stmt 1
 588:drv_usb_dev.c ****     
 1147              		.loc 1 588 11 is_stmt 0
 1148 0006 7D8D     		and	a0,a0,a5
 1149              	.LVL85:
 591:drv_usb_dev.c **** }
 1150              		.loc 1 591 1
 1151 0008 1375F503 		andi	a0,a0,63
 1152              	.LVL86:
 1153 000c 8280     		ret
 1154              		.cfi_endproc
 1155              	.LFE16:
 1157              		.section	.text.usb_iepintr_read,"ax",@progbits
 1158              		.align	1
 1159              		.globl	usb_iepintr_read
 1161              	usb_iepintr_read:
 1162              	.LFB17:
 592:drv_usb_dev.c **** 
 593:drv_usb_dev.c **** 
 594:drv_usb_dev.c **** /*!
 595:drv_usb_dev.c ****     \brief      read device IN endpoint interrupt flag register
 596:drv_usb_dev.c ****     \param[in]  udev: pointer to usb device
 597:drv_usb_dev.c ****     \param[in]  ep_num: endpoint number
 598:drv_usb_dev.c ****     \param[out] none
 599:drv_usb_dev.c ****     \retval     none
 600:drv_usb_dev.c **** */
 601:drv_usb_dev.c **** uint32_t usb_iepintr_read (usb_core_driver *udev, uint8_t ep_num)
 602:drv_usb_dev.c **** {
 1163              		.loc 1 602 1 is_stmt 1
 1164              		.cfi_startproc
 1165              	.LVL87:
 603:drv_usb_dev.c ****     uint32_t value = 0U, fifoemptymask = 0U, commonintmask = 0U;
 1166              		.loc 1 603 5
 604:drv_usb_dev.c **** 
 605:drv_usb_dev.c ****     commonintmask = udev->regs.dr->DIEPINTEN;
 1167              		.loc 1 605 5
 1168              		.loc 1 605 31 is_stmt 0
 1169 0000 5845     		lw	a4,12(a0)
 1170              		.loc 1 605 19
 1171 0002 144B     		lw	a3,16(a4)
 1172              	.LVL88:
 606:drv_usb_dev.c ****     fifoemptymask = udev->regs.dr->DIEPFEINTEN;
GAS LISTING C:\Users\Uzair\AppData\Local\Temp\ccH4xex5.s 			page 35


 1173              		.loc 1 606 5 is_stmt 1
 1174              		.loc 1 606 19 is_stmt 0
 1175 0004 5C5B     		lw	a5,52(a4)
 1176              	.LVL89:
 607:drv_usb_dev.c **** 
 608:drv_usb_dev.c ****     /* check FIFO empty interrupt enable bit */
 609:drv_usb_dev.c ****     commonintmask |= ((fifoemptymask >> ep_num) & 0x1U) << 7;
 1177              		.loc 1 609 5 is_stmt 1
 610:drv_usb_dev.c **** 
 611:drv_usb_dev.c ****     value = udev->regs.er_in[ep_num]->DIEPINTF & commonintmask;
 1178              		.loc 1 611 5
 1179              		.loc 1 611 29 is_stmt 0
 1180 0006 13972500 		slli	a4,a1,2
 1181 000a 3A95     		add	a0,a0,a4
 1182              	.LVL90:
 1183 000c 5849     		lw	a4,20(a0)
 609:drv_usb_dev.c **** 
 1184              		.loc 1 609 38
 1185 000e B3D7B700 		srl	a5,a5,a1
 1186              	.LVL91:
 609:drv_usb_dev.c **** 
 1187              		.loc 1 609 57
 1188 0012 9E07     		slli	a5,a5,7
 1189              		.loc 1 611 37
 1190 0014 0847     		lw	a0,8(a4)
 1191              	.LVL92:
 612:drv_usb_dev.c **** 
 613:drv_usb_dev.c ****     return value;
 1192              		.loc 1 613 5 is_stmt 1
 609:drv_usb_dev.c **** 
 1193              		.loc 1 609 57 is_stmt 0
 1194 0016 93F7F70F 		andi	a5,a5,255
 609:drv_usb_dev.c **** 
 1195              		.loc 1 609 19
 1196 001a D58F     		or	a5,a5,a3
 614:drv_usb_dev.c **** }
 1197              		.loc 1 614 1
 1198 001c 7D8D     		and	a0,a5,a0
 1199 001e 8280     		ret
 1200              		.cfi_endproc
 1201              	.LFE17:
 1203              		.section	.text.usb_ctlep_startout,"ax",@progbits
 1204              		.align	1
 1205              		.globl	usb_ctlep_startout
 1207              	usb_ctlep_startout:
 1208              	.LFB18:
 615:drv_usb_dev.c **** 
 616:drv_usb_dev.c **** /*!
 617:drv_usb_dev.c ****     \brief      configures OUT endpoint 0 to receive SETUP packets
 618:drv_usb_dev.c ****     \param[in]  udev: pointer to usb device
 619:drv_usb_dev.c ****     \param[out] none
 620:drv_usb_dev.c ****     \retval     none
 621:drv_usb_dev.c **** */
 622:drv_usb_dev.c **** void usb_ctlep_startout (usb_core_driver *udev)
 623:drv_usb_dev.c **** {
 1209              		.loc 1 623 1 is_stmt 1
 1210              		.cfi_startproc
GAS LISTING C:\Users\Uzair\AppData\Local\Temp\ccH4xex5.s 			page 36


 1211              	.LVL93:
 624:drv_usb_dev.c ****     /* set OUT endpoint 0 receive length to 24 bytes, 1 packet and 3 setup packets */
 625:drv_usb_dev.c ****     udev->regs.er_out[0]->DOEPLEN = DOEP0_TLEN(8U * 3U) | DOEP0_PCNT(1U) | DOEP0_STPCNT(3U);
 1212              		.loc 1 625 5
 1213              		.loc 1 625 22 is_stmt 0
 1214 0000 5C55     		lw	a5,44(a0)
 1215              		.loc 1 625 35
 1216 0002 37070860 		li	a4,1611137024
 1217 0006 6107     		addi	a4,a4,24
 1218 0008 98CB     		sw	a4,16(a5)
 626:drv_usb_dev.c **** 
 627:drv_usb_dev.c ****     if (USB_USE_DMA == udev->bp.transfer_mode) {
 1219              		.loc 1 627 5 is_stmt 1
 1220              		.loc 1 627 8 is_stmt 0
 1221 000a 83464500 		lbu	a3,4(a0)
 1222 000e 0547     		li	a4,1
 1223 0010 639AE600 		bne	a3,a4,.L70
 628:drv_usb_dev.c ****         udev->regs.er_out[0]->DOEPDMAADDR = (uint32_t)&udev->dev.control.req;
 1224              		.loc 1 628 9 is_stmt 1
 1225              		.loc 1 628 55 is_stmt 0
 1226 0014 13054542 		addi	a0,a0,1060
 1227              	.LVL94:
 1228              		.loc 1 628 43
 1229 0018 C8CB     		sw	a0,20(a5)
 629:drv_usb_dev.c **** 
 630:drv_usb_dev.c ****         /* endpoint enable */
 631:drv_usb_dev.c ****         udev->regs.er_out[0]->DOEPCTL |= DEPCTL_EPACT | DEPCTL_EPEN;
 1230              		.loc 1 631 9 is_stmt 1
 1231              		.loc 1 631 39 is_stmt 0
 1232 001a 9843     		lw	a4,0(a5)
 1233 001c B7860080 		li	a3,-2147450880
 1234 0020 558F     		or	a4,a4,a3
 1235 0022 98C3     		sw	a4,0(a5)
 1236              	.LVL95:
 1237              	.L70:
 632:drv_usb_dev.c ****     }
 633:drv_usb_dev.c **** }
 1238              		.loc 1 633 1
 1239 0024 8280     		ret
 1240              		.cfi_endproc
 1241              	.LFE18:
 1243              		.section	.text.usb_rwkup_set,"ax",@progbits
 1244              		.align	1
 1245              		.globl	usb_rwkup_set
 1247              	usb_rwkup_set:
 1248              	.LFB19:
 634:drv_usb_dev.c **** 
 635:drv_usb_dev.c **** /*!
 636:drv_usb_dev.c ****     \brief      set remote wakeup signalling
 637:drv_usb_dev.c ****     \param[in]  udev: pointer to usb device
 638:drv_usb_dev.c ****     \param[out] none
 639:drv_usb_dev.c ****     \retval     none
 640:drv_usb_dev.c **** */
 641:drv_usb_dev.c **** void usb_rwkup_set (usb_core_driver *udev)
 642:drv_usb_dev.c **** {
 1249              		.loc 1 642 1 is_stmt 1
 1250              		.cfi_startproc
GAS LISTING C:\Users\Uzair\AppData\Local\Temp\ccH4xex5.s 			page 37


 1251              	.LVL96:
 643:drv_usb_dev.c ****     if (udev->dev.pm.dev_remote_wakeup) {
 1252              		.loc 1 643 5
 1253              		.loc 1 643 8 is_stmt 0
 1254 0000 83472541 		lbu	a5,1042(a0)
 1255 0004 91C7     		beq	a5,zero,.L72
 644:drv_usb_dev.c ****         /* enable remote wakeup signaling */
 645:drv_usb_dev.c ****         udev->regs.dr->DCTL |= DCTL_RWKUP;
 1256              		.loc 1 645 9 is_stmt 1
 1257              		.loc 1 645 19 is_stmt 0
 1258 0006 5845     		lw	a4,12(a0)
 1259              		.loc 1 645 29
 1260 0008 5C43     		lw	a5,4(a4)
 1261 000a 93E71700 		ori	a5,a5,1
 1262 000e 5CC3     		sw	a5,4(a4)
 1263              	.L72:
 646:drv_usb_dev.c ****     }
 647:drv_usb_dev.c **** }
 1264              		.loc 1 647 1
 1265 0010 8280     		ret
 1266              		.cfi_endproc
 1267              	.LFE19:
 1269              		.section	.text.usb_rwkup_reset,"ax",@progbits
 1270              		.align	1
 1271              		.globl	usb_rwkup_reset
 1273              	usb_rwkup_reset:
 1274              	.LFB20:
 648:drv_usb_dev.c **** 
 649:drv_usb_dev.c **** /*!
 650:drv_usb_dev.c ****     \brief      reset remote wakeup signalling
 651:drv_usb_dev.c ****     \param[in]  udev: pointer to usb device
 652:drv_usb_dev.c ****     \param[out] none
 653:drv_usb_dev.c ****     \retval     none
 654:drv_usb_dev.c **** */
 655:drv_usb_dev.c **** void usb_rwkup_reset (usb_core_driver *udev)
 656:drv_usb_dev.c **** {
 1275              		.loc 1 656 1 is_stmt 1
 1276              		.cfi_startproc
 1277              	.LVL97:
 657:drv_usb_dev.c ****     if (udev->dev.pm.dev_remote_wakeup) {
 1278              		.loc 1 657 5
 1279              		.loc 1 657 8 is_stmt 0
 1280 0000 83472541 		lbu	a5,1042(a0)
 1281 0004 89C7     		beq	a5,zero,.L77
 658:drv_usb_dev.c ****         /* disable remote wakeup signaling */
 659:drv_usb_dev.c ****         udev->regs.dr->DCTL &= ~DCTL_RWKUP;
 1282              		.loc 1 659 9 is_stmt 1
 1283              		.loc 1 659 19 is_stmt 0
 1284 0006 5845     		lw	a4,12(a0)
 1285              		.loc 1 659 29
 1286 0008 5C43     		lw	a5,4(a4)
 1287 000a F99B     		andi	a5,a5,-2
 1288 000c 5CC3     		sw	a5,4(a4)
 1289              	.L77:
 660:drv_usb_dev.c ****     }
 661:drv_usb_dev.c **** }
 1290              		.loc 1 661 1
GAS LISTING C:\Users\Uzair\AppData\Local\Temp\ccH4xex5.s 			page 38


 1291 000e 8280     		ret
 1292              		.cfi_endproc
 1293              	.LFE20:
 1295              		.section	.text.usb_rwkup_active,"ax",@progbits
 1296              		.align	1
 1297              		.globl	usb_rwkup_active
 1299              	usb_rwkup_active:
 1300              	.LFB21:
 662:drv_usb_dev.c **** 
 663:drv_usb_dev.c **** /*!
 664:drv_usb_dev.c ****     \brief      active remote wakeup signalling
 665:drv_usb_dev.c ****     \param[in]  udev: pointer to usb device
 666:drv_usb_dev.c ****     \param[out] none
 667:drv_usb_dev.c ****     \retval     none
 668:drv_usb_dev.c **** */
 669:drv_usb_dev.c **** void usb_rwkup_active (usb_core_driver *udev)
 670:drv_usb_dev.c **** {
 1301              		.loc 1 670 1 is_stmt 1
 1302              		.cfi_startproc
 1303              	.LVL98:
 671:drv_usb_dev.c ****     if (udev->dev.pm.dev_remote_wakeup)  {
 1304              		.loc 1 671 5
 1305              		.loc 1 671 8 is_stmt 0
 1306 0000 83472541 		lbu	a5,1042(a0)
 1307 0004 B1C3     		beq	a5,zero,.L95
 672:drv_usb_dev.c ****         if (udev->regs.dr->DSTAT & DSTAT_SPST) {
 1308              		.loc 1 672 9 is_stmt 1
 1309              		.loc 1 672 23 is_stmt 0
 1310 0006 5C45     		lw	a5,12(a0)
 1311              		.loc 1 672 26
 1312 0008 9847     		lw	a4,8(a5)
 1313              		.loc 1 672 34
 1314 000a 058B     		andi	a4,a4,1
 1315              		.loc 1 672 12
 1316 000c 15CF     		beq	a4,zero,.L95
 673:drv_usb_dev.c ****             if (udev->bp.low_power) {
 1317              		.loc 1 673 13 is_stmt 1
 670:drv_usb_dev.c ****     if (udev->dev.pm.dev_remote_wakeup)  {
 1318              		.loc 1 670 1 is_stmt 0
 1319 000e 4111     		addi	sp,sp,-16
 1320              	.LCFI9:
 1321              		.cfi_def_cfa_offset 16
 1322 0010 06C6     		sw	ra,12(sp)
 1323 0012 22C4     		sw	s0,8(sp)
 1324              		.cfi_offset 1, -4
 1325              		.cfi_offset 8, -8
 1326              		.loc 1 673 16
 1327 0014 03477500 		lbu	a4,7(a0)
 1328 0018 11C7     		beq	a4,zero,.L84
 674:drv_usb_dev.c ****                 /* ungate USB core clock */
 675:drv_usb_dev.c ****                 *udev->regs.PWRCLKCTL &= ~(PWRCLKCTL_SHCLK | PWRCLKCTL_SUCLK);
 1329              		.loc 1 675 17 is_stmt 1
 1330              		.loc 1 675 28 is_stmt 0
 1331 001a 8326050C 		lw	a3,192(a0)
 1332              		.loc 1 675 39
 1333 001e 9842     		lw	a4,0(a3)
 1334 0020 719B     		andi	a4,a4,-4
GAS LISTING C:\Users\Uzair\AppData\Local\Temp\ccH4xex5.s 			page 39


 1335 0022 98C2     		sw	a4,0(a3)
 1336              	.L84:
 676:drv_usb_dev.c ****             }
 677:drv_usb_dev.c **** 
 678:drv_usb_dev.c ****             /* active remote wakeup signaling */
 679:drv_usb_dev.c ****             udev->regs.dr->DCTL |= DCTL_RWKUP;
 1337              		.loc 1 679 33
 1338 0024 D843     		lw	a4,4(a5)
 1339 0026 2A84     		mv	s0,a0
 1340              		.loc 1 679 13 is_stmt 1
 680:drv_usb_dev.c **** 
 681:drv_usb_dev.c ****             usb_mdelay(5);
 1341              		.loc 1 681 13 is_stmt 0
 1342 0028 1545     		li	a0,5
 1343              	.LVL99:
 679:drv_usb_dev.c **** 
 1344              		.loc 1 679 33
 1345 002a 13671700 		ori	a4,a4,1
 1346 002e D8C3     		sw	a4,4(a5)
 1347              		.loc 1 681 13 is_stmt 1
 1348 0030 97000000 		call	usb_mdelay
 1348      E7800000 
 1349              	.LVL100:
 682:drv_usb_dev.c **** 
 683:drv_usb_dev.c ****             udev->regs.dr->DCTL &= ~DCTL_RWKUP;
 1350              		.loc 1 683 13
 1351              		.loc 1 683 23 is_stmt 0
 1352 0038 5844     		lw	a4,12(s0)
 684:drv_usb_dev.c ****         }
 685:drv_usb_dev.c ****     }
 686:drv_usb_dev.c **** }
 1353              		.loc 1 686 1
 1354 003a B240     		lw	ra,12(sp)
 1355              		.cfi_restore 1
 1356 003c 2244     		lw	s0,8(sp)
 1357              		.cfi_restore 8
 1358              	.LVL101:
 683:drv_usb_dev.c ****         }
 1359              		.loc 1 683 33
 1360 003e 5C43     		lw	a5,4(a4)
 1361 0040 F99B     		andi	a5,a5,-2
 1362 0042 5CC3     		sw	a5,4(a4)
 1363              		.loc 1 686 1
 1364 0044 4101     		addi	sp,sp,16
 1365              	.LCFI10:
 1366              		.cfi_def_cfa_offset 0
 1367 0046 8280     		jr	ra
 1368              	.LVL102:
 1369              	.L95:
 1370 0048 8280     		ret
 1371              		.cfi_endproc
 1372              	.LFE21:
 1374              		.section	.text.usb_clock_active,"ax",@progbits
 1375              		.align	1
 1376              		.globl	usb_clock_active
 1378              	usb_clock_active:
 1379              	.LFB22:
GAS LISTING C:\Users\Uzair\AppData\Local\Temp\ccH4xex5.s 			page 40


 687:drv_usb_dev.c **** 
 688:drv_usb_dev.c **** /*!
 689:drv_usb_dev.c ****     \brief      active USB core clock
 690:drv_usb_dev.c ****     \param[in]  udev: pointer to usb device
 691:drv_usb_dev.c ****     \param[out] none
 692:drv_usb_dev.c ****     \retval     none
 693:drv_usb_dev.c **** */
 694:drv_usb_dev.c **** void usb_clock_active (usb_core_driver *udev)
 695:drv_usb_dev.c **** {
 1380              		.loc 1 695 1 is_stmt 1
 1381              		.cfi_startproc
 1382              	.LVL103:
 696:drv_usb_dev.c ****     if (udev->bp.low_power) {
 1383              		.loc 1 696 5
 1384              		.loc 1 696 8 is_stmt 0
 1385 0000 83477500 		lbu	a5,7(a0)
 1386 0004 91CB     		beq	a5,zero,.L98
 697:drv_usb_dev.c ****         if (udev->regs.dr->DSTAT & DSTAT_SPST) {
 1387              		.loc 1 697 9 is_stmt 1
 1388              		.loc 1 697 23 is_stmt 0
 1389 0006 5C45     		lw	a5,12(a0)
 1390              		.loc 1 697 26
 1391 0008 9C47     		lw	a5,8(a5)
 1392              		.loc 1 697 34
 1393 000a 858B     		andi	a5,a5,1
 1394              		.loc 1 697 12
 1395 000c 91C7     		beq	a5,zero,.L98
 698:drv_usb_dev.c ****             /* un-gate USB Core clock */
 699:drv_usb_dev.c ****             *udev->regs.PWRCLKCTL &= ~(PWRCLKCTL_SHCLK | PWRCLKCTL_SUCLK);
 1396              		.loc 1 699 13 is_stmt 1
 1397              		.loc 1 699 24 is_stmt 0
 1398 000e 0327050C 		lw	a4,192(a0)
 1399              		.loc 1 699 35
 1400 0012 1C43     		lw	a5,0(a4)
 1401 0014 F19B     		andi	a5,a5,-4
 1402 0016 1CC3     		sw	a5,0(a4)
 1403              	.L98:
 700:drv_usb_dev.c ****         }
 701:drv_usb_dev.c ****     }
 702:drv_usb_dev.c **** }
 1404              		.loc 1 702 1
 1405 0018 8280     		ret
 1406              		.cfi_endproc
 1407              	.LFE22:
 1409              		.section	.text.usb_dev_suspend,"ax",@progbits
 1410              		.align	1
 1411              		.globl	usb_dev_suspend
 1413              	usb_dev_suspend:
 1414              	.LFB23:
 703:drv_usb_dev.c **** 
 704:drv_usb_dev.c **** /*!
 705:drv_usb_dev.c ****     \brief      usb device suspend
 706:drv_usb_dev.c ****     \param[in]  udev: pointer to usb device
 707:drv_usb_dev.c ****     \param[out] none
 708:drv_usb_dev.c ****     \retval     none
 709:drv_usb_dev.c **** */
 710:drv_usb_dev.c **** void usb_dev_suspend (usb_core_driver *udev)
GAS LISTING C:\Users\Uzair\AppData\Local\Temp\ccH4xex5.s 			page 41


 711:drv_usb_dev.c **** {
 1415              		.loc 1 711 1 is_stmt 1
 1416              		.cfi_startproc
 1417              	.LVL104:
 712:drv_usb_dev.c ****     __IO uint32_t devstat = udev->regs.dr->DSTAT;
 1418              		.loc 1 712 5
 1419              		.loc 1 712 39 is_stmt 0
 1420 0000 5C45     		lw	a5,12(a0)
 711:drv_usb_dev.c ****     __IO uint32_t devstat = udev->regs.dr->DSTAT;
 1421              		.loc 1 711 1
 1422 0002 4111     		addi	sp,sp,-16
 1423              	.LCFI11:
 1424              		.cfi_def_cfa_offset 16
 1425              		.loc 1 712 42
 1426 0004 9C47     		lw	a5,8(a5)
 1427              		.loc 1 712 19
 1428 0006 3EC6     		sw	a5,12(sp)
 713:drv_usb_dev.c **** 
 714:drv_usb_dev.c ****     if ((udev->bp.low_power) && (devstat & DSTAT_SPST)) {
 1429              		.loc 1 714 5 is_stmt 1
 1430              		.loc 1 714 8 is_stmt 0
 1431 0008 83477500 		lbu	a5,7(a0)
 1432 000c 8DC3     		beq	a5,zero,.L106
 1433              		.loc 1 714 42 discriminator 1
 1434 000e B247     		lw	a5,12(sp)
 1435 0010 858B     		andi	a5,a5,1
 1436              		.loc 1 714 30 discriminator 1
 1437 0012 91CF     		beq	a5,zero,.L106
 715:drv_usb_dev.c ****         /* switch-off the USB clocks */
 716:drv_usb_dev.c ****         *udev->regs.PWRCLKCTL |= PWRCLKCTL_SHCLK;
 1438              		.loc 1 716 9 is_stmt 1
 1439              		.loc 1 716 20 is_stmt 0
 1440 0014 0327050C 		lw	a4,192(a0)
 717:drv_usb_dev.c **** 
 718:drv_usb_dev.c ****         /* enter DEEP_SLEEP mode with LDO in low power mode */
 719:drv_usb_dev.c ****         pmu_to_deepsleepmode(PMU_LDO_LOWPOWER, WFI_CMD);
 1441              		.loc 1 719 9
 1442 0018 8145     		li	a1,0
 1443 001a 0545     		li	a0,1
 1444              	.LVL105:
 716:drv_usb_dev.c **** 
 1445              		.loc 1 716 31
 1446 001c 1C43     		lw	a5,0(a4)
 1447 001e 93E72700 		ori	a5,a5,2
 1448 0022 1CC3     		sw	a5,0(a4)
 1449              		.loc 1 719 9 is_stmt 1
 720:drv_usb_dev.c ****     }
 721:drv_usb_dev.c **** }
 1450              		.loc 1 721 1 is_stmt 0
 1451 0024 4101     		addi	sp,sp,16
 1452              	.LCFI12:
 1453              		.cfi_remember_state
 1454              		.cfi_def_cfa_offset 0
 719:drv_usb_dev.c ****     }
 1455              		.loc 1 719 9
 1456 0026 17030000 		tail	pmu_to_deepsleepmode
 1456      67000300 
GAS LISTING C:\Users\Uzair\AppData\Local\Temp\ccH4xex5.s 			page 42


 1457              	.LVL106:
 1458              	.L106:
 1459              	.LCFI13:
 1460              		.cfi_restore_state
 1461              		.loc 1 721 1
 1462 002e 4101     		addi	sp,sp,16
 1463              	.LCFI14:
 1464              		.cfi_def_cfa_offset 0
 1465 0030 8280     		jr	ra
 1466              		.cfi_endproc
 1467              	.LFE23:
 1469              		.section	.text.usb_dev_stop,"ax",@progbits
 1470              		.align	1
 1471              		.globl	usb_dev_stop
 1473              	usb_dev_stop:
 1474              	.LFB24:
 722:drv_usb_dev.c **** 
 723:drv_usb_dev.c **** /*!
 724:drv_usb_dev.c ****     \brief      stop the device and clean up fifos
 725:drv_usb_dev.c ****     \param[in]  udev: pointer to usb device
 726:drv_usb_dev.c ****     \param[out] none
 727:drv_usb_dev.c ****     \retval     none
 728:drv_usb_dev.c **** */
 729:drv_usb_dev.c **** void usb_dev_stop (usb_core_driver *udev)
 730:drv_usb_dev.c **** {
 1475              		.loc 1 730 1 is_stmt 1
 1476              		.cfi_startproc
 1477              	.LVL107:
 731:drv_usb_dev.c ****     uint32_t i;
 1478              		.loc 1 731 5
 732:drv_usb_dev.c **** 
 733:drv_usb_dev.c ****     udev->dev.cur_status = 1;
 1479              		.loc 1 733 5
 730:drv_usb_dev.c ****     uint32_t i;
 1480              		.loc 1 730 1 is_stmt 0
 1481 0000 4111     		addi	sp,sp,-16
 1482              	.LCFI15:
 1483              		.cfi_def_cfa_offset 16
 1484 0002 06C6     		sw	ra,12(sp)
 1485 0004 22C4     		sw	s0,8(sp)
 1486              		.cfi_offset 1, -4
 1487              		.cfi_offset 8, -8
 734:drv_usb_dev.c **** 
 735:drv_usb_dev.c ****     /* clear all interrupt flag and enable bits */
 736:drv_usb_dev.c ****     for (i = 0; i < udev->bp.num_ep; i++) {
 1488              		.loc 1 736 29
 1489 0006 03463500 		lbu	a2,3(a0)
 733:drv_usb_dev.c **** 
 1490              		.loc 1 733 26
 1491 000a 8547     		li	a5,1
 1492 000c 2303F50C 		sb	a5,198(a0)
 1493              		.loc 1 736 5 is_stmt 1
 1494              	.LVL108:
 1495              		.loc 1 736 12 is_stmt 0
 1496 0010 0147     		li	a4,0
 1497 0012 93074501 		addi	a5,a0,20
 737:drv_usb_dev.c ****         udev->regs.er_in[i]->DIEPINTF = 0xFFU;
GAS LISTING C:\Users\Uzair\AppData\Local\Temp\ccH4xex5.s 			page 43


 1498              		.loc 1 737 39
 1499 0016 9306F00F 		li	a3,255
 1500              	.LVL109:
 1501              	.L116:
 736:drv_usb_dev.c ****         udev->regs.er_in[i]->DIEPINTF = 0xFFU;
 1502              		.loc 1 736 5 discriminator 1
 1503 001a 636BC702 		bgtu	a2,a4,.L117
 738:drv_usb_dev.c ****         udev->regs.er_out[i]->DOEPINTF = 0xFFU;
 739:drv_usb_dev.c ****     }
 740:drv_usb_dev.c **** 
 741:drv_usb_dev.c ****     udev->regs.dr->DIEPINTEN = 0U;
 1504              		.loc 1 741 5 is_stmt 1
 1505              		.loc 1 741 15 is_stmt 0
 1506 001e 5C45     		lw	a5,12(a0)
 742:drv_usb_dev.c ****     udev->regs.dr->DOEPINTEN = 0U;
 743:drv_usb_dev.c ****     udev->regs.dr->DAEPINTEN = 0U;
 744:drv_usb_dev.c ****     udev->regs.dr->DAEPINT = 0xFFFFFFFFU;
 745:drv_usb_dev.c **** 
 746:drv_usb_dev.c ****     /* flush the FIFO */
 747:drv_usb_dev.c ****     usb_rxfifo_flush (&udev->regs);
 1507              		.loc 1 747 5
 1508 0020 13048500 		addi	s0,a0,8
 744:drv_usb_dev.c **** 
 1509              		.loc 1 744 28
 1510 0024 7D57     		li	a4,-1
 1511              	.LVL110:
 741:drv_usb_dev.c ****     udev->regs.dr->DOEPINTEN = 0U;
 1512              		.loc 1 741 30
 1513 0026 23A80700 		sw	zero,16(a5)
 742:drv_usb_dev.c ****     udev->regs.dr->DOEPINTEN = 0U;
 1514              		.loc 1 742 5 is_stmt 1
 742:drv_usb_dev.c ****     udev->regs.dr->DOEPINTEN = 0U;
 1515              		.loc 1 742 30 is_stmt 0
 1516 002a 23AA0700 		sw	zero,20(a5)
 743:drv_usb_dev.c ****     udev->regs.dr->DAEPINT = 0xFFFFFFFFU;
 1517              		.loc 1 743 5 is_stmt 1
 743:drv_usb_dev.c ****     udev->regs.dr->DAEPINT = 0xFFFFFFFFU;
 1518              		.loc 1 743 30 is_stmt 0
 1519 002e 23AE0700 		sw	zero,28(a5)
 744:drv_usb_dev.c **** 
 1520              		.loc 1 744 5 is_stmt 1
 1521              		.loc 1 747 5 is_stmt 0
 1522 0032 2285     		mv	a0,s0
 1523              	.LVL111:
 744:drv_usb_dev.c **** 
 1524              		.loc 1 744 28
 1525 0034 98CF     		sw	a4,24(a5)
 1526              		.loc 1 747 5 is_stmt 1
 1527 0036 97000000 		call	usb_rxfifo_flush
 1527      E7800000 
 1528              	.LVL112:
 748:drv_usb_dev.c ****     usb_txfifo_flush (&udev->regs, 0x10);
 1529              		.loc 1 748 5
 1530 003e 2285     		mv	a0,s0
 749:drv_usb_dev.c **** }
 1531              		.loc 1 749 1 is_stmt 0
 1532 0040 2244     		lw	s0,8(sp)
GAS LISTING C:\Users\Uzair\AppData\Local\Temp\ccH4xex5.s 			page 44


 1533              		.cfi_remember_state
 1534              		.cfi_restore 8
 1535              	.LVL113:
 1536 0042 B240     		lw	ra,12(sp)
 1537              		.cfi_restore 1
 748:drv_usb_dev.c ****     usb_txfifo_flush (&udev->regs, 0x10);
 1538              		.loc 1 748 5
 1539 0044 C145     		li	a1,16
 1540              		.loc 1 749 1
 1541 0046 4101     		addi	sp,sp,16
 1542              	.LCFI16:
 1543              		.cfi_def_cfa_offset 0
 748:drv_usb_dev.c ****     usb_txfifo_flush (&udev->regs, 0x10);
 1544              		.loc 1 748 5
 1545 0048 17030000 		tail	usb_txfifo_flush
 1545      67000300 
 1546              	.LVL114:
 1547              	.L117:
 1548              	.LCFI17:
 1549              		.cfi_restore_state
 737:drv_usb_dev.c ****         udev->regs.er_out[i]->DOEPINTF = 0xFFU;
 1550              		.loc 1 737 9 is_stmt 1 discriminator 3
 737:drv_usb_dev.c ****         udev->regs.er_out[i]->DOEPINTF = 0xFFU;
 1551              		.loc 1 737 25 is_stmt 0 discriminator 3
 1552 0050 8C43     		lw	a1,0(a5)
 736:drv_usb_dev.c ****         udev->regs.er_in[i]->DIEPINTF = 0xFFU;
 1553              		.loc 1 736 39 discriminator 3
 1554 0052 0507     		addi	a4,a4,1
 1555              	.LVL115:
 1556 0054 9107     		addi	a5,a5,4
 737:drv_usb_dev.c ****         udev->regs.er_out[i]->DOEPINTF = 0xFFU;
 1557              		.loc 1 737 39 discriminator 3
 1558 0056 94C5     		sw	a3,8(a1)
 738:drv_usb_dev.c ****     }
 1559              		.loc 1 738 9 is_stmt 1 discriminator 3
 1560              	.LVL116:
 738:drv_usb_dev.c ****     }
 1561              		.loc 1 738 26 is_stmt 0 discriminator 3
 1562 0058 CC4B     		lw	a1,20(a5)
 738:drv_usb_dev.c ****     }
 1563              		.loc 1 738 40 discriminator 3
 1564 005a 94C5     		sw	a3,8(a1)
 1565 005c 7DBF     		j	.L116
 1566              		.cfi_endproc
 1567              	.LFE24:
 1569              		.section	.sdata2.EP0_MAXLEN,"a"
 1570              		.align	2
 1571              		.set	.LANCHOR0,. + 0
 1574              	EP0_MAXLEN:
 1575 0000 00       		.byte	0
 1576 0001 00       		.byte	0
 1577 0002 03       		.byte	3
 1578 0003 00       		.byte	0
 1579              		.text
 1580              	.Letext0:
 1581              		.file 2 "c:\\kth\\he1043\\toolchain-gd32v-v202-win\\toolchain-gd32v-v202-win\\compiler\\riscv64-un
 1582              		.file 3 "c:\\kth\\he1043\\toolchain-gd32v-v202-win\\toolchain-gd32v-v202-win\\compiler\\riscv64-un
GAS LISTING C:\Users\Uzair\AppData\Local\Temp\ccH4xex5.s 			page 45


 1583              		.file 4 "drv_usb_regs.h"
 1584              		.file 5 "./../../firmware/GD32VF103_standard_peripheral/system_gd32vf103.h"
 1585              		.file 6 "usb_ch9_std.h"
 1586              		.file 7 "drv_usb_core.h"
 1587              		.file 8 "drv_usb_dev.h"
 1588              		.file 9 "./../../firmware/GD32VF103_standard_peripheral/Include/gd32vf103_pmu.h"
 1589              		.file 10 "drv_usb_hw.h"
GAS LISTING C:\Users\Uzair\AppData\Local\Temp\ccH4xex5.s 			page 46

