GAS LISTING C:\Users\Uzair\AppData\Local\Temp\ccCzur1R.s 			page 1


   1              		.file	"main.c"
   2              		.option nopic
   3              		.attribute arch, "rv32i2p0_m2p0_a2p0_c2p0"
   4              		.attribute unaligned_access, 0
   5              		.attribute stack_align, 16
   6              		.text
   7              	.Ltext0:
   8              		.cfi_sections	.debug_frame
   9              		.comm	logg,3600,4
  10              		.globl	antal_avvikelser
  11              		.globl	millis
  12              		.comm	fs,560,4
  13              		.comm	fil,552,4
  14              		.comm	bw,4,4
  15              		.globl	sd_monterad
  16              		.globl	senaste_sparning
  17              		.section	.text.sd_init,"ax",@progbits
  18              		.align	1
  19              		.globl	sd_init
  21              	sd_init:
  22              	.LFB7:
  23              		.file 1 "main.c"
   1:main.c        **** #include <math.h>
   2:main.c        **** #include "gd32vf103.h"
   3:main.c        **** #include "delay.h"
   4:main.c        **** #include "gd32v_mpu6500_if.h"
   5:main.c        **** #include "gd32v_tf_card_if.h"
   6:main.c        **** #include "stdio.h"
   7:main.c        **** #include "string.h"
   8:main.c        **** #include "systick.h"
   9:main.c        **** #include "usb_serial_if.h"
  10:main.c        **** #include "usb_delay.h"
  11:main.c        **** 
  12:main.c        **** #define VIBRATOR_PIN        GPIO_PIN_5
  13:main.c        **** #define MAX_AVVIKELSER      300
  14:main.c        **** 
  15:main.c        **** typedef struct {
  16:main.c        ****     uint32_t minuter;
  17:main.c        ****     uint32_t sekunder;
  18:main.c        ****     float avvikelse;
  19:main.c        **** } avvikelse_t;
  20:main.c        **** 
  21:main.c        **** avvikelse_t logg[MAX_AVVIKELSER];
  22:main.c        **** int antal_avvikelser = 0;
  23:main.c        **** volatile uint32_t millis = 0;
  24:main.c        **** 
  25:main.c        **** FATFS fs;
  26:main.c        **** FIL fil;
  27:main.c        **** UINT bw;
  28:main.c        **** int sd_monterad = 0;
  29:main.c        **** uint32_t senaste_sparning = 0;
  30:main.c        **** 
  31:main.c        **** void sd_init(void) {
  24              		.loc 1 31 20
  25              		.cfi_startproc
  32:main.c        ****     set_fattime(1980, 1, 1, 0, 0, 0);
  26              		.loc 1 32 5
GAS LISTING C:\Users\Uzair\AppData\Local\Temp\ccCzur1R.s 			page 2


  31:main.c        ****     set_fattime(1980, 1, 1, 0, 0, 0);
  27              		.loc 1 31 20 is_stmt 0
  28 0000 4111     		addi	sp,sp,-16
  29              	.LCFI0:
  30              		.cfi_def_cfa_offset 16
  31              		.loc 1 32 5
  32 0002 0546     		li	a2,1
  33 0004 8545     		li	a1,1
  34 0006 8147     		li	a5,0
  35 0008 0147     		li	a4,0
  36 000a 8146     		li	a3,0
  37 000c 1305C07B 		li	a0,1980
  31:main.c        ****     set_fattime(1980, 1, 1, 0, 0, 0);
  38              		.loc 1 31 20
  39 0010 06C6     		sw	ra,12(sp)
  40              		.cfi_offset 1, -4
  41              		.loc 1 32 5
  42 0012 97000000 		call	set_fattime
  42      E7800000 
  43              	.LVL0:
  33:main.c        ****     delay_1ms(100);
  44              		.loc 1 33 5 is_stmt 1
  45 001a 13054006 		li	a0,100
  46 001e 97000000 		call	delay_1ms
  46      E7800000 
  47              	.LVL1:
  34:main.c        ****     FRESULT fr = f_mount(&fs, "", 1);
  48              		.loc 1 34 5
  49              		.loc 1 34 18 is_stmt 0
  50 0026 B7050000 		lui	a1,%hi(.LC0)
  51 002a 37050000 		lui	a0,%hi(fs)
  52 002e 0546     		li	a2,1
  53 0030 93850500 		addi	a1,a1,%lo(.LC0)
  54 0034 13050500 		addi	a0,a0,%lo(fs)
  55 0038 97000000 		call	f_mount
  55      E7800000 
  56              	.LVL2:
  35:main.c        ****     if (fr == FR_OK) {
  57              		.loc 1 35 5 is_stmt 1
  58              		.loc 1 35 8 is_stmt 0
  59 0040 11E5     		bne	a0,zero,.L1
  36:main.c        ****         sd_monterad = 1;
  60              		.loc 1 36 9 is_stmt 1
  61              		.loc 1 36 21 is_stmt 0
  62 0042 B7070000 		lui	a5,%hi(.LANCHOR0)
  63 0046 0547     		li	a4,1
  64 0048 23A0E700 		sw	a4,%lo(.LANCHOR0)(a5)
  65              	.L1:
  37:main.c        ****     }
  38:main.c        **** }
  66              		.loc 1 38 1
  67 004c B240     		lw	ra,12(sp)
  68              		.cfi_restore 1
  69 004e 4101     		addi	sp,sp,16
  70              	.LCFI1:
  71              		.cfi_def_cfa_offset 0
  72 0050 8280     		jr	ra
GAS LISTING C:\Users\Uzair\AppData\Local\Temp\ccCzur1R.s 			page 3


  73              		.cfi_endproc
  74              	.LFE7:
  76              		.globl	__fixsfsi
  77              		.section	.text.spara_logg,"ax",@progbits
  78              		.align	1
  79              		.globl	spara_logg
  81              	spara_logg:
  82              	.LFB8:
  39:main.c        **** 
  40:main.c        **** void spara_logg(void) {
  83              		.loc 1 40 23 is_stmt 1
  84              		.cfi_startproc
  41:main.c        ****     if (!sd_monterad || antal_avvikelser == 0) return;
  85              		.loc 1 41 5
  86              		.loc 1 41 8 is_stmt 0
  87 0000 B7070000 		lui	a5,%hi(.LANCHOR0)
  88 0004 83A70700 		lw	a5,%lo(.LANCHOR0)(a5)
  89 0008 F5C7     		beq	a5,zero,.L15
  40:main.c        ****     if (!sd_monterad || antal_avvikelser == 0) return;
  90              		.loc 1 40 23 discriminator 2
  91 000a 1D71     		addi	sp,sp,-96
  92              	.LCFI2:
  93              		.cfi_def_cfa_offset 96
  94 000c CEC6     		sw	s3,76(sp)
  95              		.cfi_offset 19, -20
  96              		.loc 1 41 42 discriminator 2
  97 000e B7090000 		lui	s3,%hi(.LANCHOR1)
  98              		.loc 1 41 22 discriminator 2
  99 0012 83A70900 		lw	a5,%lo(.LANCHOR1)(s3)
  40:main.c        ****     if (!sd_monterad || antal_avvikelser == 0) return;
 100              		.loc 1 40 23 discriminator 2
 101 0016 86CE     		sw	ra,92(sp)
 102 0018 A2CC     		sw	s0,88(sp)
 103 001a A6CA     		sw	s1,84(sp)
 104 001c CAC8     		sw	s2,80(sp)
 105 001e D2C4     		sw	s4,72(sp)
 106 0020 D6C2     		sw	s5,68(sp)
 107              		.cfi_offset 1, -4
 108              		.cfi_offset 8, -8
 109              		.cfi_offset 9, -12
 110              		.cfi_offset 18, -16
 111              		.cfi_offset 20, -24
 112              		.cfi_offset 21, -28
 113 0022 93890900 		addi	s3,s3,%lo(.LANCHOR1)
 114              		.loc 1 41 22 discriminator 2
 115 0026 BDCF     		beq	a5,zero,.L4
  42:main.c        **** 
  43:main.c        ****     FRESULT fr = f_open(&fil, "LOGG.CSV", FA_WRITE | FA_OPEN_APPEND);
 116              		.loc 1 43 5 is_stmt 1
 117              		.loc 1 43 18 is_stmt 0
 118 0028 37090000 		lui	s2,%hi(.LANCHOR2)
 119 002c 93050900 		addi	a1,s2,%lo(.LANCHOR2)
 120 0030 37040000 		lui	s0,%hi(fil)
 121 0034 13062003 		li	a2,50
 122 0038 9105     		addi	a1,a1,4
 123 003a 13050400 		addi	a0,s0,%lo(fil)
 124 003e 97000000 		call	f_open
GAS LISTING C:\Users\Uzair\AppData\Local\Temp\ccCzur1R.s 			page 4


 124      E7800000 
 125              	.LVL3:
  44:main.c        ****     if (fr != FR_OK) return;
 126              		.loc 1 44 5 is_stmt 1
 127 0046 13090900 		addi	s2,s2,%lo(.LANCHOR2)
 128              		.loc 1 44 8 is_stmt 0
 129 004a 29ED     		bne	a0,zero,.L4
 130              	.LBB8:
 131              	.LBB9:
  45:main.c        **** 
  46:main.c        ****     if (f_size(&fil) == 0) {
 132              		.loc 1 46 5 is_stmt 1
 133              		.loc 1 46 9 is_stmt 0
 134 004c 93070400 		addi	a5,s0,%lo(fil)
 135              		.loc 1 46 8
 136 0050 DC47     		lw	a5,12(a5)
 137 0052 91EF     		bne	a5,zero,.L8
  47:main.c        ****         f_write(&fil, "Minuter,Sekunder,Avvikelse\n", 27, &bw);
 138              		.loc 1 47 9 is_stmt 1
 139 0054 B7060000 		lui	a3,%hi(bw)
 140 0058 93860600 		addi	a3,a3,%lo(bw)
 141 005c 6D46     		li	a2,27
 142 005e 93050901 		addi	a1,s2,16
 143 0062 13050400 		addi	a0,s0,%lo(fil)
 144              	.LVL4:
 145 0066 97000000 		call	f_write
 145      E7800000 
 146              	.LVL5:
 147              	.L8:
 148 006e B7040000 		lui	s1,%hi(logg)
 149 0072 93840400 		addi	s1,s1,%lo(logg)
 150              	.LBE9:
 151              	.LBE8:
  40:main.c        ****     if (!sd_monterad || antal_avvikelser == 0) return;
 152              		.loc 1 40 23 is_stmt 0
 153 0076 014A     		li	s4,0
 154              	.LBB17:
 155              	.LBB15:
 156              	.LBB10:
 157              	.LBB11:
  48:main.c        ****     }
  49:main.c        **** 
  50:main.c        ****     char rad[64];
  51:main.c        ****     for (int i = 0; i < antal_avvikelser; i++) {
  52:main.c        ****         int len = snprintf(rad, sizeof(rad), "%lu,%lu,%d\n",
 158              		.loc 1 52 19
 159 0078 1309C902 		addi	s2,s2,44
  53:main.c        ****             logg[i].minuter,
  54:main.c        ****             logg[i].sekunder,
  55:main.c        ****             (int)logg[i].avvikelse);
  56:main.c        ****         f_write(&fil, rad, len, &bw);
 160              		.loc 1 56 9
 161 007c B70A0000 		lui	s5,%hi(bw)
 162              	.L9:
 163              	.LVL6:
 164              	.LBE11:
  51:main.c        ****         int len = snprintf(rad, sizeof(rad), "%lu,%lu,%d\n",
GAS LISTING C:\Users\Uzair\AppData\Local\Temp\ccCzur1R.s 			page 5


 165              		.loc 1 51 5
 166 0080 83A70900 		lw	a5,0(s3)
 167 0084 6349FA02 		blt	s4,a5,.L10
 168              	.LBE10:
  57:main.c        ****     }
  58:main.c        **** 
  59:main.c        ****     f_sync(&fil);
 169              		.loc 1 59 5 is_stmt 1
 170 0088 13050400 		addi	a0,s0,%lo(fil)
 171 008c 97000000 		call	f_sync
 171      E7800000 
 172              	.LVL7:
  60:main.c        ****     f_close(&fil);
 173              		.loc 1 60 5
 174 0094 13050400 		addi	a0,s0,%lo(fil)
 175 0098 97000000 		call	f_close
 175      E7800000 
 176              	.LVL8:
  61:main.c        ****     antal_avvikelser = 0;
 177              		.loc 1 61 5
 178              		.loc 1 61 22 is_stmt 0
 179 00a0 23A00900 		sw	zero,0(s3)
 180              	.LVL9:
 181              	.L4:
 182              	.LBE15:
 183              	.LBE17:
  62:main.c        **** }
 184              		.loc 1 62 1
 185 00a4 F640     		lw	ra,92(sp)
 186              		.cfi_remember_state
 187              		.cfi_restore 1
 188 00a6 6644     		lw	s0,88(sp)
 189              		.cfi_restore 8
 190 00a8 D644     		lw	s1,84(sp)
 191              		.cfi_restore 9
 192 00aa 4649     		lw	s2,80(sp)
 193              		.cfi_restore 18
 194 00ac B649     		lw	s3,76(sp)
 195              		.cfi_restore 19
 196 00ae 264A     		lw	s4,72(sp)
 197              		.cfi_restore 20
 198 00b0 964A     		lw	s5,68(sp)
 199              		.cfi_restore 21
 200 00b2 2561     		addi	sp,sp,96
 201              	.LCFI3:
 202              		.cfi_def_cfa_offset 0
 203 00b4 8280     		jr	ra
 204              	.LVL10:
 205              	.L10:
 206              	.LCFI4:
 207              		.cfi_restore_state
 208              	.LBB18:
 209              	.LBB16:
 210              	.LBB14:
 211              	.LBB12:
  52:main.c        ****             logg[i].minuter,
 212              		.loc 1 52 9 is_stmt 1
GAS LISTING C:\Users\Uzair\AppData\Local\Temp\ccCzur1R.s 			page 6


  52:main.c        ****             logg[i].minuter,
 213              		.loc 1 52 19 is_stmt 0
 214 00b6 8844     		lw	a0,8(s1)
 215              	.LBE12:
  51:main.c        ****         int len = snprintf(rad, sizeof(rad), "%lu,%lu,%d\n",
 216              		.loc 1 51 44
 217 00b8 050A     		addi	s4,s4,1
 218              	.LVL11:
 219 00ba B104     		addi	s1,s1,12
 220              	.LBB13:
  52:main.c        ****             logg[i].minuter,
 221              		.loc 1 52 19
 222 00bc 97000000 		call	__fixsfsi
 222      E7800000 
 223              	.LVL12:
 224 00c4 03A784FF 		lw	a4,-8(s1)
 225 00c8 83A644FF 		lw	a3,-12(s1)
 226 00cc AA87     		mv	a5,a0
 227 00ce 4A86     		mv	a2,s2
 228 00d0 93050004 		li	a1,64
 229 00d4 0A85     		mv	a0,sp
 230 00d6 97000000 		call	snprintf
 230      E7800000 
 231              	.LVL13:
  56:main.c        ****     }
 232              		.loc 1 56 9 is_stmt 1
 233 00de 2A86     		mv	a2,a0
 234 00e0 93860A00 		addi	a3,s5,%lo(bw)
 235 00e4 8A85     		mv	a1,sp
 236 00e6 13050400 		addi	a0,s0,%lo(fil)
 237              	.LVL14:
 238 00ea 97000000 		call	f_write
 238      E7800000 
 239              	.LVL15:
 240 00f2 79B7     		j	.L9
 241              	.LVL16:
 242              	.L15:
 243              	.LCFI5:
 244              		.cfi_def_cfa_offset 0
 245              		.cfi_restore 1
 246              		.cfi_restore 8
 247              		.cfi_restore 9
 248              		.cfi_restore 18
 249              		.cfi_restore 19
 250              		.cfi_restore 20
 251              		.cfi_restore 21
 252 00f4 8280     		ret
 253              	.LBE13:
 254              	.LBE14:
 255              	.LBE16:
 256              	.LBE18:
 257              		.cfi_endproc
 258              	.LFE8:
 260              		.section	.text.interrupt_config,"ax",@progbits
 261              		.align	1
 262              		.globl	interrupt_config
 264              	interrupt_config:
GAS LISTING C:\Users\Uzair\AppData\Local\Temp\ccCzur1R.s 			page 7


 265              	.LFB9:
  63:main.c        **** 
  64:main.c        **** void interrupt_config(void) {
 266              		.loc 1 64 29
 267              		.cfi_startproc
  65:main.c        ****     timer_oc_parameter_struct timer_ocinitpara;
 268              		.loc 1 65 5
  66:main.c        ****     timer_parameter_struct timer_initpara;
 269              		.loc 1 66 5
  67:main.c        **** 
  68:main.c        ****     eclic_irq_enable(TIMER1_IRQn, 1, 0);
 270              		.loc 1 68 5
  64:main.c        ****     timer_oc_parameter_struct timer_ocinitpara;
 271              		.loc 1 64 29 is_stmt 0
 272 0000 7971     		addi	sp,sp,-48
 273              	.LCFI6:
 274              		.cfi_def_cfa_offset 48
 275              		.loc 1 68 5
 276 0002 0146     		li	a2,0
 277 0004 8545     		li	a1,1
 278 0006 1305F002 		li	a0,47
  64:main.c        ****     timer_oc_parameter_struct timer_ocinitpara;
 279              		.loc 1 64 29
 280 000a 06D6     		sw	ra,44(sp)
 281 000c 22D4     		sw	s0,40(sp)
 282              		.cfi_offset 1, -4
 283              		.cfi_offset 8, -8
 284              		.loc 1 68 5
 285 000e 97000000 		call	eclic_irq_enable
 285      E7800000 
 286              	.LVL17:
  69:main.c        ****     rcu_periph_clock_enable(RCU_TIMER1);
 287              		.loc 1 69 5 is_stmt 1
 288 0016 13050070 		li	a0,1792
 289 001a 97000000 		call	rcu_periph_clock_enable
 289      E7800000 
 290              	.LVL18:
  70:main.c        ****     timer_deinit(TIMER1);
 291              		.loc 1 70 5
 292 0022 37050040 		li	a0,1073741824
 293 0026 97000000 		call	timer_deinit
 293      E7800000 
 294              	.LVL19:
  71:main.c        ****     timer_struct_para_init(&timer_initpara);
 295              		.loc 1 71 5
 296 002e 0808     		addi	a0,sp,16
 297 0030 97000000 		call	timer_struct_para_init
 297      E7800000 
 298              	.LVL20:
  72:main.c        **** 
  73:main.c        ****     timer_initpara.prescaler        = 1;
 299              		.loc 1 73 5
  74:main.c        ****     timer_initpara.alignedmode      = TIMER_COUNTER_EDGE;
 300              		.loc 1 74 5
  75:main.c        ****     timer_initpara.counterdirection = TIMER_COUNTER_UP;
 301              		.loc 1 75 5
  76:main.c        ****     timer_initpara.period           = 54000;
GAS LISTING C:\Users\Uzair\AppData\Local\Temp\ccCzur1R.s 			page 8


 302              		.loc 1 76 37 is_stmt 0
 303 0038 B567     		li	a5,53248
 304 003a 9387072F 		addi	a5,a5,752
  77:main.c        ****     timer_initpara.clockdivision    = TIMER_CKDIV_DIV1;
  78:main.c        ****     timer_init(TIMER1, &timer_initpara);
 305              		.loc 1 78 5
 306 003e 0C08     		addi	a1,sp,16
  73:main.c        ****     timer_initpara.alignedmode      = TIMER_COUNTER_EDGE;
 307              		.loc 1 73 37
 308 0040 0544     		li	s0,1
 309              		.loc 1 78 5
 310 0042 37050040 		li	a0,1073741824
  76:main.c        ****     timer_initpara.period           = 54000;
 311              		.loc 1 76 37
 312 0046 3ECC     		sw	a5,24(sp)
  73:main.c        ****     timer_initpara.alignedmode      = TIMER_COUNTER_EDGE;
 313              		.loc 1 73 37
 314 0048 22C8     		sw	s0,16(sp)
  75:main.c        ****     timer_initpara.period           = 54000;
 315              		.loc 1 75 37
 316 004a 231A0100 		sh	zero,20(sp)
  76:main.c        ****     timer_initpara.clockdivision    = TIMER_CKDIV_DIV1;
 317              		.loc 1 76 5 is_stmt 1
  77:main.c        ****     timer_init(TIMER1, &timer_initpara);
 318              		.loc 1 77 5
  77:main.c        ****     timer_init(TIMER1, &timer_initpara);
 319              		.loc 1 77 37 is_stmt 0
 320 004e 231E0100 		sh	zero,28(sp)
 321              		.loc 1 78 5 is_stmt 1
 322 0052 97000000 		call	timer_init
 322      E7800000 
 323              	.LVL21:
  79:main.c        **** 
  80:main.c        ****     timer_channel_output_struct_para_init(&timer_ocinitpara);
 324              		.loc 1 80 5
 325 005a 4800     		addi	a0,sp,4
 326 005c 97000000 		call	timer_channel_output_struct_para_init
 326      E7800000 
 327              	.LVL22:
  81:main.c        ****     timer_ocinitpara.outputstate  = TIMER_CCX_ENABLE;
 328              		.loc 1 81 5
  82:main.c        ****     timer_ocinitpara.ocpolarity   = TIMER_OC_POLARITY_HIGH;
  83:main.c        ****     timer_ocinitpara.ocidlestate  = TIMER_OC_IDLE_STATE_LOW;
  84:main.c        ****     timer_channel_output_config(TIMER1, TIMER_CH_0, &timer_ocinitpara);
 329              		.loc 1 84 5 is_stmt 0
 330 0064 5000     		addi	a2,sp,4
 331 0066 8145     		li	a1,0
 332 0068 37050040 		li	a0,1073741824
  81:main.c        ****     timer_ocinitpara.outputstate  = TIMER_CCX_ENABLE;
 333              		.loc 1 81 35
 334 006c 23128100 		sh	s0,4(sp)
  82:main.c        ****     timer_ocinitpara.ocpolarity   = TIMER_OC_POLARITY_HIGH;
 335              		.loc 1 82 5 is_stmt 1
  82:main.c        ****     timer_ocinitpara.ocpolarity   = TIMER_OC_POLARITY_HIGH;
 336              		.loc 1 82 35 is_stmt 0
 337 0070 23140100 		sh	zero,8(sp)
  83:main.c        ****     timer_channel_output_config(TIMER1, TIMER_CH_0, &timer_ocinitpara);
GAS LISTING C:\Users\Uzair\AppData\Local\Temp\ccCzur1R.s 			page 9


 338              		.loc 1 83 5 is_stmt 1
  83:main.c        ****     timer_channel_output_config(TIMER1, TIMER_CH_0, &timer_ocinitpara);
 339              		.loc 1 83 35 is_stmt 0
 340 0074 23160100 		sh	zero,12(sp)
 341              		.loc 1 84 5 is_stmt 1
 342 0078 97000000 		call	timer_channel_output_config
 342      E7800000 
 343              	.LVL23:
  85:main.c        **** 
  86:main.c        ****     timer_channel_output_pulse_value_config(TIMER1, TIMER_CH_0, 54000/2);
 344              		.loc 1 86 5
 345 0080 1D66     		li	a2,28672
 346 0082 13068697 		addi	a2,a2,-1672
 347 0086 8145     		li	a1,0
 348 0088 37050040 		li	a0,1073741824
 349 008c 97000000 		call	timer_channel_output_pulse_value_config
 349      E7800000 
 350              	.LVL24:
  87:main.c        ****     timer_channel_output_mode_config(TIMER1, TIMER_CH_0, TIMER_OC_MODE_TIMING);
 351              		.loc 1 87 5
 352 0094 0146     		li	a2,0
 353 0096 8145     		li	a1,0
 354 0098 37050040 		li	a0,1073741824
 355 009c 97000000 		call	timer_channel_output_mode_config
 355      E7800000 
 356              	.LVL25:
  88:main.c        ****     timer_channel_output_shadow_config(TIMER1, TIMER_CH_0, TIMER_OC_SHADOW_DISABLE);
 357              		.loc 1 88 5
 358 00a4 0146     		li	a2,0
 359 00a6 8145     		li	a1,0
 360 00a8 37050040 		li	a0,1073741824
 361 00ac 97000000 		call	timer_channel_output_shadow_config
 361      E7800000 
 362              	.LVL26:
  89:main.c        **** 
  90:main.c        ****     timer_interrupt_enable(TIMER1, TIMER_INT_CH0);
 363              		.loc 1 90 5
 364 00b4 8945     		li	a1,2
 365 00b6 37050040 		li	a0,1073741824
 366 00ba 97000000 		call	timer_interrupt_enable
 366      E7800000 
 367              	.LVL27:
  91:main.c        ****     timer_interrupt_flag_clear(TIMER1, TIMER_INT_CH0);
 368              		.loc 1 91 5
 369 00c2 8945     		li	a1,2
 370 00c4 37050040 		li	a0,1073741824
 371 00c8 97000000 		call	timer_interrupt_flag_clear
 371      E7800000 
 372              	.LVL28:
  92:main.c        ****     timer_enable(TIMER1);
 373              		.loc 1 92 5
 374 00d0 37050040 		li	a0,1073741824
 375 00d4 97000000 		call	timer_enable
 375      E7800000 
 376              	.LVL29:
  93:main.c        **** }
 377              		.loc 1 93 1 is_stmt 0
GAS LISTING C:\Users\Uzair\AppData\Local\Temp\ccCzur1R.s 			page 10


 378 00dc B250     		lw	ra,44(sp)
 379              		.cfi_restore 1
 380 00de 2254     		lw	s0,40(sp)
 381              		.cfi_restore 8
 382 00e0 4561     		addi	sp,sp,48
 383              	.LCFI7:
 384              		.cfi_def_cfa_offset 0
 385 00e2 8280     		jr	ra
 386              		.cfi_endproc
 387              	.LFE9:
 389              		.section	.text.TIMER1_IRQHandler,"ax",@progbits
 390              		.align	1
 391              		.globl	TIMER1_IRQHandler
 393              	TIMER1_IRQHandler:
 394              	.LFB10:
  94:main.c        **** 
  95:main.c        **** void TIMER1_IRQHandler(void) {
 395              		.loc 1 95 30 is_stmt 1
 396              		.cfi_startproc
  96:main.c        ****     if (SET == timer_interrupt_flag_get(TIMER1, TIMER_INT_CH0)) {
 397              		.loc 1 96 5
  95:main.c        ****     if (SET == timer_interrupt_flag_get(TIMER1, TIMER_INT_CH0)) {
 398              		.loc 1 95 30 is_stmt 0
 399 0000 4111     		addi	sp,sp,-16
 400              	.LCFI8:
 401              		.cfi_def_cfa_offset 16
 402              		.loc 1 96 16
 403 0002 8945     		li	a1,2
 404 0004 37050040 		li	a0,1073741824
  95:main.c        ****     if (SET == timer_interrupt_flag_get(TIMER1, TIMER_INT_CH0)) {
 405              		.loc 1 95 30
 406 0008 06C6     		sw	ra,12(sp)
 407              		.cfi_offset 1, -4
 408              		.loc 1 96 16
 409 000a 97000000 		call	timer_interrupt_flag_get
 409      E7800000 
 410              	.LVL30:
 411              		.loc 1 96 8
 412 0012 8547     		li	a5,1
 413 0014 6312F502 		bne	a0,a5,.L20
  97:main.c        ****         millis++;
 414              		.loc 1 97 9 is_stmt 1
 415              		.loc 1 97 15 is_stmt 0
 416 0018 B7070000 		lui	a5,%hi(.LANCHOR3)
 417 001c 93870700 		addi	a5,a5,%lo(.LANCHOR3)
 418 0020 9843     		lw	a4,0(a5)
  98:main.c        ****         timer_interrupt_flag_clear(TIMER1, TIMER_INT_CH0);
  99:main.c        ****     }
 100:main.c        **** }
 419              		.loc 1 100 1
 420 0022 B240     		lw	ra,12(sp)
 421              		.cfi_remember_state
 422              		.cfi_restore 1
  98:main.c        ****         timer_interrupt_flag_clear(TIMER1, TIMER_INT_CH0);
 423              		.loc 1 98 9
 424 0024 8945     		li	a1,2
  97:main.c        ****         millis++;
GAS LISTING C:\Users\Uzair\AppData\Local\Temp\ccCzur1R.s 			page 11


 425              		.loc 1 97 15
 426 0026 0507     		addi	a4,a4,1
 427 0028 98C3     		sw	a4,0(a5)
  98:main.c        ****         timer_interrupt_flag_clear(TIMER1, TIMER_INT_CH0);
 428              		.loc 1 98 9 is_stmt 1
 429              		.loc 1 100 1 is_stmt 0
  98:main.c        ****         timer_interrupt_flag_clear(TIMER1, TIMER_INT_CH0);
 430              		.loc 1 98 9
 431 002a 37050040 		li	a0,1073741824
 432              		.loc 1 100 1
 433 002e 4101     		addi	sp,sp,16
 434              	.LCFI9:
 435              		.cfi_def_cfa_offset 0
  98:main.c        ****         timer_interrupt_flag_clear(TIMER1, TIMER_INT_CH0);
 436              		.loc 1 98 9
 437 0030 17030000 		tail	timer_interrupt_flag_clear
 437      67000300 
 438              	.LVL31:
 439              	.L20:
 440              	.LCFI10:
 441              		.cfi_restore_state
 442              		.loc 1 100 1
 443 0038 B240     		lw	ra,12(sp)
 444              		.cfi_restore 1
 445 003a 4101     		addi	sp,sp,16
 446              	.LCFI11:
 447              		.cfi_def_cfa_offset 0
 448 003c 8280     		jr	ra
 449              		.cfi_endproc
 450              	.LFE10:
 452              		.globl	__mulsf3
 453              		.globl	__addsf3
 454              		.globl	__extendsfdf2
 455              		.globl	__truncdfsf2
 456              		.globl	__muldf3
 457              		.globl	__subsf3
 458              		.globl	__gtsf2
 459              		.globl	__ltsf2
 460              		.section	.text.startup.main,"ax",@progbits
 461              		.align	1
 462              		.globl	main
 464              	main:
 465              	.LFB11:
 101:main.c        **** 
 102:main.c        **** int main(void) {
 466              		.loc 1 102 16 is_stmt 1
 467              		.cfi_startproc
 103:main.c        ****     mpu_vector_t vec, vec_temp;
 468              		.loc 1 103 5
 104:main.c        ****     float nollvinkel = 0.0;
 469              		.loc 1 104 5
 470              	.LVL32:
 105:main.c        ****     int har_kalibrerat = 0;
 471              		.loc 1 105 5
 106:main.c        ****     int utanfor = 0;
 472              		.loc 1 106 5
 107:main.c        ****     uint32_t millis_kopia = 0; // ÄNDRAT: Variabel för att spara en säker kopia av tiden
GAS LISTING C:\Users\Uzair\AppData\Local\Temp\ccCzur1R.s 			page 12


 473              		.loc 1 107 5
 108:main.c        **** 
 109:main.c        ****     configure_usb_serial();
 474              		.loc 1 109 5
 102:main.c        ****     mpu_vector_t vec, vec_temp;
 475              		.loc 1 102 16 is_stmt 0
 476 0000 5971     		addi	sp,sp,-112
 477              	.LCFI12:
 478              		.cfi_def_cfa_offset 112
 479 0002 86D6     		sw	ra,108(sp)
 480 0004 A2D4     		sw	s0,104(sp)
 481 0006 A6D2     		sw	s1,100(sp)
 482 0008 CAD0     		sw	s2,96(sp)
 483 000a CECE     		sw	s3,92(sp)
 484 000c D2CC     		sw	s4,88(sp)
 485 000e D6CA     		sw	s5,84(sp)
 486 0010 DAC8     		sw	s6,80(sp)
 487 0012 DEC6     		sw	s7,76(sp)
 488 0014 E2C4     		sw	s8,72(sp)
 489 0016 E6C2     		sw	s9,68(sp)
 490 0018 EAC0     		sw	s10,64(sp)
 491 001a 6EDE     		sw	s11,60(sp)
 492              		.cfi_offset 1, -4
 493              		.cfi_offset 8, -8
 494              		.cfi_offset 9, -12
 495              		.cfi_offset 18, -16
 496              		.cfi_offset 19, -20
 497              		.cfi_offset 20, -24
 498              		.cfi_offset 21, -28
 499              		.cfi_offset 22, -32
 500              		.cfi_offset 23, -36
 501              		.cfi_offset 24, -40
 502              		.cfi_offset 25, -44
 503              		.cfi_offset 26, -48
 504              		.cfi_offset 27, -52
 505              		.loc 1 109 5
 506 001c 97000000 		call	configure_usb_serial
 506      E7800000 
 507              	.LVL33:
 110:main.c        ****     while (!usb_serial_available()) usb_delay_1ms(100);
 508              		.loc 1 110 5 is_stmt 1
 509              	.L24:
 510              		.loc 1 110 13 is_stmt 0 discriminator 1
 511 0024 97000000 		call	usb_serial_available
 511      E7800000 
 512              	.LVL34:
 513              		.loc 1 110 11 discriminator 1
 514 002c 6306052E 		beq	a0,zero,.L25
 111:main.c        ****     usb_delay_1ms(1000);
 515              		.loc 1 111 5 is_stmt 1
 516 0030 1305803E 		li	a0,1000
 517 0034 97000000 		call	usb_delay_1ms
 517      E7800000 
 518              	.LVL35:
 112:main.c        **** 
 113:main.c        ****     rcu_periph_clock_enable(RCU_GPIOA);
 519              		.loc 1 113 5
GAS LISTING C:\Users\Uzair\AppData\Local\Temp\ccCzur1R.s 			page 13


 520 003c 13052060 		li	a0,1538
 521 0040 97000000 		call	rcu_periph_clock_enable
 521      E7800000 
 522              	.LVL36:
 114:main.c        ****     gpio_init(GPIOA, GPIO_MODE_IN_FLOATING, GPIO_OSPEED_50MHZ, GPIO_PIN_5);
 523              		.loc 1 114 5
 524 0048 37140140 		li	s0,1073811456
 525 004c 93060002 		li	a3,32
 526 0050 0D46     		li	a2,3
 527 0052 9145     		li	a1,4
 528 0054 13050480 		addi	a0,s0,-2048
 529 0058 97000000 		call	gpio_init
 529      E7800000 
 530              	.LVL37:
 115:main.c        **** 
 116:main.c        ****     rcu_periph_clock_enable(RCU_GPIOB);
 531              		.loc 1 116 5
 532 0060 13053060 		li	a0,1539
 533 0064 97000000 		call	rcu_periph_clock_enable
 533      E7800000 
 534              	.LVL38:
 117:main.c        ****     gpio_init(GPIOB, GPIO_MODE_OUT_PP, GPIO_OSPEED_50MHZ, GPIO_PIN_0);
 535              		.loc 1 117 5
 536 006c 130504C0 		addi	a0,s0,-1024
 537 0070 8546     		li	a3,1
 538 0072 0D46     		li	a2,3
 539 0074 C145     		li	a1,16
 540 0076 97000000 		call	gpio_init
 540      E7800000 
 541              	.LVL39:
 118:main.c        ****     gpio_init(GPIOB, GPIO_MODE_OUT_PP, GPIO_OSPEED_50MHZ, VIBRATOR_PIN);
 542              		.loc 1 118 5
 543 007e 93060002 		li	a3,32
 544 0082 0D46     		li	a2,3
 545 0084 C145     		li	a1,16
 546 0086 130504C0 		addi	a0,s0,-1024
 547 008a 97000000 		call	gpio_init
 547      E7800000 
 548              	.LVL40:
 119:main.c        **** 
 120:main.c        ****     rcu_periph_clock_enable(RCU_I2C0);
 549              		.loc 1 120 5
 550 0092 13055071 		li	a0,1813
 551 0096 97000000 		call	rcu_periph_clock_enable
 551      E7800000 
 552              	.LVL41:
 121:main.c        ****     gpio_init(GPIOB, GPIO_MODE_AF_OD, GPIO_OSPEED_50MHZ, GPIO_PIN_6 | GPIO_PIN_7);
 553              		.loc 1 121 5
 554 009e 9306000C 		li	a3,192
 555 00a2 0D46     		li	a2,3
 556 00a4 F145     		li	a1,28
 557 00a6 130504C0 		addi	a0,s0,-1024
 558 00aa 97000000 		call	gpio_init
 558      E7800000 
 559              	.LVL42:
 122:main.c        ****     mpu6500_install(I2C0);
 560              		.loc 1 122 5
GAS LISTING C:\Users\Uzair\AppData\Local\Temp\ccCzur1R.s 			page 14


 561 00b2 37550040 		li	a0,1073762304
 562 00b6 13050540 		addi	a0,a0,1024
 563 00ba 97000000 		call	mpu6500_install
 563      E7800000 
 564              	.LVL43:
 123:main.c        **** 
 124:main.c        ****     sd_init();
 565              		.loc 1 124 5
 566 00c2 97000000 		call	sd_init
 566      E7800000 
 567              	.LVL44:
 125:main.c        **** 
 126:main.c        ****     mpu6500_getAccel(&vec_temp);
 568              		.loc 1 126 5
 569 00ca 4810     		addi	a0,sp,36
 570 00cc 97000000 		call	mpu6500_getAccel
 570      E7800000 
 571              	.LVL45:
 127:main.c        **** 
 128:main.c        ****     eclic_global_interrupt_enable();
 572              		.loc 1 128 5
 573              	.LBB19:
 129:main.c        ****     interrupt_config();
 130:main.c        **** 
 131:main.c        ****     while (1) {
 132:main.c        ****         mpu6500_getAccel(&vec);
 133:main.c        ****         
 134:main.c        ****         // ÄNDRAT: Pythagoras sats kombinerar Z och X för att skapa en stabil bas när man vrider
 135:main.c        ****         float stabil_bas = sqrt((vec.z * vec.z) + (vec.x * vec.x)); 
 136:main.c        ****         
 137:main.c        ****         // ÄNDRAT: Använder nu den stabila basen. Förhindrar flippande vinklar vid sidorörelser
 138:main.c        ****         float nuvarande_vinkel = -atan2(vec.y, stabil_bas) * (180.0 / M_PI); 
 574              		.loc 1 138 60 is_stmt 0
 575 00d4 37040000 		lui	s0,%hi(.LANCHOR2)
 576              	.LBB20:
 139:main.c        **** 
 140:main.c        ****         if (gpio_input_bit_get(GPIOA, GPIO_PIN_5) == 0) {
 141:main.c        ****             nollvinkel = nuvarande_vinkel;
 142:main.c        ****             har_kalibrerat = 1;
 143:main.c        ****             gpio_bit_set(GPIOB, GPIO_PIN_0);
 144:main.c        ****             delay_1ms(50);
 145:main.c        ****         } else {
 146:main.c        ****             gpio_bit_reset(GPIOB, GPIO_PIN_0);
 147:main.c        ****         }
 148:main.c        **** 
 149:main.c        ****         float avvikelse = nuvarande_vinkel - nollvinkel;
 150:main.c        **** 
 151:main.c        ****         printf("X: %d  Y: %d  Z: %d\n", (int)vec.x, (int)vec.y, (int)vec.z);
 152:main.c        ****         printf("Avvikelse: %d  Nollvinkel: %d\n", (int)avvikelse, (int)nollvinkel);
 153:main.c        ****         fflush(0);
 154:main.c        **** 
 155:main.c        ****         usb_delay_1ms(100);
 156:main.c        **** 
 157:main.c        ****         if (har_kalibrerat == 1) {
 158:main.c        **** 
 159:main.c        ****             if (avvikelse > 25) {
 160:main.c        ****                 gpio_bit_set(GPIOB, VIBRATOR_PIN);
GAS LISTING C:\Users\Uzair\AppData\Local\Temp\ccCzur1R.s 			page 15


 161:main.c        ****                 if (utanfor == 0) {
 162:main.c        ****                     utanfor = 1;
 163:main.c        ****                     if (antal_avvikelser < MAX_AVVIKELSER) {
 164:main.c        ****                         
 165:main.c        ****                         // ÄNDRAT: Stänger av avbrott kort för att säkert läsa av millis utan 
 166:main.c        ****                         eclic_global_interrupt_disable(); 
 167:main.c        ****                         millis_kopia = millis;            
 168:main.c        ****                         eclic_global_interrupt_enable();  // ÄNDRAT: Slår på avbrott direkt igen
 169:main.c        ****                         
 170:main.c        ****                         // ÄNDRAT: Använder nu millis_kopia istället för millis (fixar "197-pro
 171:main.c        ****                         logg[antal_avvikelser].minuter  = millis_kopia / 60000;
 577              		.loc 1 171 57
 578 00d8 B70B0000 		lui	s7,%hi(logg)
 579              	.LBE20:
 580              	.LBE19:
 128:main.c        ****     interrupt_config();
 581              		.loc 1 128 5
 582 00dc 97000000 		call	eclic_global_interrupt_enable
 582      E7800000 
 583              	.LVL46:
 129:main.c        ****     interrupt_config();
 584              		.loc 1 129 5 is_stmt 1
 107:main.c        **** 
 585              		.loc 1 107 14 is_stmt 0
 586 00e4 0149     		li	s2,0
 129:main.c        **** 
 587              		.loc 1 129 5
 588 00e6 97000000 		call	interrupt_config
 588      E7800000 
 589              	.LVL47:
 106:main.c        ****     uint32_t millis_kopia = 0; // ÄNDRAT: Variabel för att spara en säker kopia av tiden
 590              		.loc 1 106 9
 591 00ee 8144     		li	s1,0
 105:main.c        ****     int utanfor = 0;
 592              		.loc 1 105 9
 593 00f0 814A     		li	s5,0
 104:main.c        ****     int har_kalibrerat = 0;
 594              		.loc 1 104 11
 595 00f2 130B0000 		mv	s6,zero
 596              	.LBB24:
 138:main.c        **** 
 597              		.loc 1 138 60
 598 00f6 13040400 		addi	s0,s0,%lo(.LANCHOR2)
 599 00fa B70C0000 		lui	s9,%hi(.LANCHOR3)
 600 00fe 370D0000 		lui	s10,%hi(.LANCHOR4)
 601              	.LBB21:
 163:main.c        ****                         
 602              		.loc 1 163 42
 603 0102 B70D0000 		lui	s11,%hi(.LANCHOR1)
 604              		.loc 1 171 57
 605 0106 938B0B00 		addi	s7,s7,%lo(logg)
 606              	.LVL48:
 607              	.L26:
 608              	.LBE21:
 609              	.LBE24:
 131:main.c        ****         mpu6500_getAccel(&vec);
 610              		.loc 1 131 5 is_stmt 1
GAS LISTING C:\Users\Uzair\AppData\Local\Temp\ccCzur1R.s 			page 16


 611              	.LBB25:
 132:main.c        ****         
 612              		.loc 1 132 9
 613 010a 2808     		addi	a0,sp,24
 614 010c 97000000 		call	mpu6500_getAccel
 614      E7800000 
 615              	.LVL49:
 135:main.c        ****         
 616              		.loc 1 135 9
 135:main.c        ****         
 617              		.loc 1 135 40 is_stmt 0
 618 0114 8255     		lw	a1,32(sp)
 619 0116 2E85     		mv	a0,a1
 620 0118 97000000 		call	__mulsf3
 620      E7800000 
 621              	.LVL50:
 135:main.c        ****         
 622              		.loc 1 135 58
 623 0120 E245     		lw	a1,24(sp)
 135:main.c        ****         
 624              		.loc 1 135 40
 625 0122 AA89     		mv	s3,a0
 135:main.c        ****         
 626              		.loc 1 135 58
 627 0124 2E85     		mv	a0,a1
 628 0126 97000000 		call	__mulsf3
 628      E7800000 
 629              	.LVL51:
 135:main.c        ****         
 630              		.loc 1 135 49
 631 012e AA85     		mv	a1,a0
 632 0130 4E85     		mv	a0,s3
 633 0132 97000000 		call	__addsf3
 633      E7800000 
 634              	.LVL52:
 135:main.c        ****         
 635              		.loc 1 135 28
 636 013a 97000000 		call	__extendsfdf2
 636      E7800000 
 637              	.LVL53:
 638 0142 97000000 		call	sqrt
 638      E7800000 
 639              	.LVL54:
 138:main.c        **** 
 640              		.loc 1 138 9 is_stmt 1
 135:main.c        ****         
 641              		.loc 1 135 15 is_stmt 0
 642 014a 97000000 		call	__truncdfsf2
 642      E7800000 
 643              	.LVL55:
 138:main.c        **** 
 644              		.loc 1 138 35
 645 0152 97000000 		call	__extendsfdf2
 645      E7800000 
 646              	.LVL56:
 647 015a 2AC0     		sw	a0,0(sp)
 648 015c 7245     		lw	a0,28(sp)
GAS LISTING C:\Users\Uzair\AppData\Local\Temp\ccCzur1R.s 			page 17


 649 015e 2EC2     		sw	a1,4(sp)
 140:main.c        ****             nollvinkel = nuvarande_vinkel;
 650              		.loc 1 140 13
 651 0160 B7190140 		li	s3,1073811456
 138:main.c        **** 
 652              		.loc 1 138 35
 653 0164 97000000 		call	__extendsfdf2
 653      E7800000 
 654              	.LVL57:
 655 016c 0246     		lw	a2,0(sp)
 656 016e 9246     		lw	a3,4(sp)
 657 0170 97000000 		call	atan2
 657      E7800000 
 658              	.LVL58:
 138:main.c        **** 
 659              		.loc 1 138 60
 660 0178 105C     		lw	a2,56(s0)
 661 017a 545C     		lw	a3,60(s0)
 662 017c B7070080 		li	a5,-2147483648
 663 0180 AD8F     		xor	a5,a5,a1
 664 0182 BE85     		mv	a1,a5
 665 0184 97000000 		call	__muldf3
 665      E7800000 
 666              	.LVL59:
 138:main.c        **** 
 667              		.loc 1 138 15
 668 018c 97000000 		call	__truncdfsf2
 668      E7800000 
 669              	.LVL60:
 140:main.c        ****             nollvinkel = nuvarande_vinkel;
 670              		.loc 1 140 13
 671 0194 93050002 		li	a1,32
 138:main.c        **** 
 672              		.loc 1 138 15
 673 0198 2A8A     		mv	s4,a0
 674              	.LVL61:
 140:main.c        ****             nollvinkel = nuvarande_vinkel;
 675              		.loc 1 140 9 is_stmt 1
 140:main.c        ****             nollvinkel = nuvarande_vinkel;
 676              		.loc 1 140 13 is_stmt 0
 677 019a 13850980 		addi	a0,s3,-2048
 678              	.LVL62:
 679 019e 97000000 		call	gpio_input_bit_get
 679      E7800000 
 680              	.LVL63:
 143:main.c        ****             delay_1ms(50);
 681              		.loc 1 143 13
 682 01a6 8545     		li	a1,1
 140:main.c        ****             nollvinkel = nuvarande_vinkel;
 683              		.loc 1 140 12
 684 01a8 631F0516 		bne	a0,zero,.L27
 141:main.c        ****             har_kalibrerat = 1;
 685              		.loc 1 141 13 is_stmt 1
 686              	.LVL64:
 142:main.c        ****             gpio_bit_set(GPIOB, GPIO_PIN_0);
 687              		.loc 1 142 13
 143:main.c        ****             delay_1ms(50);
GAS LISTING C:\Users\Uzair\AppData\Local\Temp\ccCzur1R.s 			page 18


 688              		.loc 1 143 13
 689 01ac 138509C0 		addi	a0,s3,-1024
 690 01b0 97000000 		call	gpio_bit_set
 690      E7800000 
 691              	.LVL65:
 144:main.c        ****         } else {
 692              		.loc 1 144 13
 693 01b8 13052003 		li	a0,50
 694 01bc 97000000 		call	delay_1ms
 694      E7800000 
 695              	.LVL66:
 141:main.c        ****             har_kalibrerat = 1;
 696              		.loc 1 141 24 is_stmt 0
 697 01c4 528B     		mv	s6,s4
 142:main.c        ****             gpio_bit_set(GPIOB, GPIO_PIN_0);
 698              		.loc 1 142 28
 699 01c6 854A     		li	s5,1
 700              	.LVL67:
 701              	.L28:
 149:main.c        **** 
 702              		.loc 1 149 9 is_stmt 1
 149:main.c        **** 
 703              		.loc 1 149 15 is_stmt 0
 704 01c8 DA85     		mv	a1,s6
 705 01ca 5285     		mv	a0,s4
 706 01cc 97000000 		call	__subsf3
 706      E7800000 
 707              	.LVL68:
 708 01d4 AA89     		mv	s3,a0
 709              	.LVL69:
 151:main.c        ****         printf("Avvikelse: %d  Nollvinkel: %d\n", (int)avvikelse, (int)nollvinkel);
 710              		.loc 1 151 9 is_stmt 1
 711 01d6 0255     		lw	a0,32(sp)
 712              	.LVL70:
 713 01d8 97000000 		call	__fixsfsi
 713      E7800000 
 714              	.LVL71:
 715 01e0 2AC6     		sw	a0,12(sp)
 716 01e2 7245     		lw	a0,28(sp)
 717 01e4 97000000 		call	__fixsfsi
 717      E7800000 
 718              	.LVL72:
 719 01ec 2AC0     		sw	a0,0(sp)
 720 01ee 6245     		lw	a0,24(sp)
 721 01f0 97000000 		call	__fixsfsi
 721      E7800000 
 722              	.LVL73:
 723 01f8 B246     		lw	a3,12(sp)
 724 01fa 0246     		lw	a2,0(sp)
 725 01fc B7070000 		lui	a5,%hi(.LANCHOR2+64)
 726 0200 AA85     		mv	a1,a0
 727 0202 13850704 		addi	a0,a5,%lo(.LANCHOR2+64)
 728 0206 97000000 		call	printf
 728      E7800000 
 729              	.LVL74:
 152:main.c        ****         fflush(0);
 730              		.loc 1 152 9
GAS LISTING C:\Users\Uzair\AppData\Local\Temp\ccCzur1R.s 			page 19


 731 020e 5A85     		mv	a0,s6
 732 0210 97000000 		call	__fixsfsi
 732      E7800000 
 733              	.LVL75:
 734 0218 2AC0     		sw	a0,0(sp)
 735 021a 4E85     		mv	a0,s3
 736 021c 97000000 		call	__fixsfsi
 736      E7800000 
 737              	.LVL76:
 738 0224 0246     		lw	a2,0(sp)
 739 0226 AA85     		mv	a1,a0
 740 0228 13058405 		addi	a0,s0,88
 741 022c 97000000 		call	printf
 741      E7800000 
 742              	.LVL77:
 153:main.c        **** 
 743              		.loc 1 153 9
 744 0234 0145     		li	a0,0
 745 0236 97000000 		call	fflush
 745      E7800000 
 746              	.LVL78:
 155:main.c        **** 
 747              		.loc 1 155 9
 748 023e 13054006 		li	a0,100
 749 0242 97000000 		call	usb_delay_1ms
 749      E7800000 
 750              	.LVL79:
 157:main.c        **** 
 751              		.loc 1 157 9
 157:main.c        **** 
 752              		.loc 1 157 12 is_stmt 0
 753 024a E3800AEC 		beq	s5,zero,.L26
 754              	.LVL80:
 755              	.LBB22:
 159:main.c        ****                 gpio_bit_set(GPIOB, VIBRATOR_PIN);
 756              		.loc 1 159 13 is_stmt 1
 159:main.c        ****                 gpio_bit_set(GPIOB, VIBRATOR_PIN);
 757              		.loc 1 159 16 is_stmt 0
 758 024e 2C5C     		lw	a1,120(s0)
 759 0250 4E85     		mv	a0,s3
 760 0252 138C0C00 		addi	s8,s9,%lo(.LANCHOR3)
 761 0256 97000000 		call	__gtsf2
 761      E7800000 
 762              	.LVL81:
 763 025e 130A0D00 		addi	s4,s10,%lo(.LANCHOR4)
 764              	.LVL82:
 765 0262 6359A00C 		ble	a0,zero,.L38
 160:main.c        ****                 if (utanfor == 0) {
 766              		.loc 1 160 17 is_stmt 1
 767 0266 37150140 		li	a0,1073811456
 768 026a 93050002 		li	a1,32
 769 026e 130505C0 		addi	a0,a0,-1024
 770 0272 97000000 		call	gpio_bit_set
 770      E7800000 
 771              	.LVL83:
 161:main.c        ****                     utanfor = 1;
 772              		.loc 1 161 17
GAS LISTING C:\Users\Uzair\AppData\Local\Temp\ccCzur1R.s 			page 20


 161:main.c        ****                     utanfor = 1;
 773              		.loc 1 161 20 is_stmt 0
 774 027a ADE4     		bne	s1,zero,.L32
 162:main.c        ****                     if (antal_avvikelser < MAX_AVVIKELSER) {
 775              		.loc 1 162 21 is_stmt 1
 776              	.LVL84:
 163:main.c        ****                         
 777              		.loc 1 163 21
 163:main.c        ****                         
 778              		.loc 1 163 42 is_stmt 0
 779 027c 93840D00 		addi	s1,s11,%lo(.LANCHOR1)
 163:main.c        ****                         
 780              		.loc 1 163 24
 781 0280 9C40     		lw	a5,0(s1)
 782 0282 1306B012 		li	a2,299
 783 0286 6348F604 		bgt	a5,a2,.L33
 166:main.c        ****                         millis_kopia = millis;            
 784              		.loc 1 166 25 is_stmt 1
 785 028a 97000000 		call	eclic_global_interrupt_disable
 785      E7800000 
 786              	.LVL85:
 167:main.c        ****                         eclic_global_interrupt_enable();  // ÄNDRAT: Slår på avbrott direkt igen
 787              		.loc 1 167 25
 167:main.c        ****                         eclic_global_interrupt_enable();  // ÄNDRAT: Slår på avbrott direkt igen
 788              		.loc 1 167 38 is_stmt 0
 789 0292 03290C00 		lw	s2,0(s8)
 790              	.LVL86:
 168:main.c        ****                         
 791              		.loc 1 168 25 is_stmt 1
 792 0296 97000000 		call	eclic_global_interrupt_enable
 792      E7800000 
 793              	.LVL87:
 794              		.loc 1 171 25
 795              		.loc 1 171 72 is_stmt 0
 796 029e BD67     		li	a5,61440
 797 02a0 938707A6 		addi	a5,a5,-1440
 798 02a4 B355F902 		divu	a1,s2,a5
 799              		.loc 1 171 47
 800 02a8 9440     		lw	a3,0(s1)
 801              		.loc 1 171 57
 802 02aa 3147     		li	a4,12
 172:main.c        ****                         logg[antal_avvikelser].sekunder = (millis_kopia % 60000) / 1000;
 173:main.c        ****                         logg[antal_avvikelser].avvikelse = avvikelse;
 174:main.c        ****                         antal_avvikelser++;
 175:main.c        ****                     }
 176:main.c        ****                     if (antal_avvikelser >= MAX_AVVIKELSER) {
 803              		.loc 1 176 24
 804 02ac 1306B012 		li	a2,299
 172:main.c        ****                         logg[antal_avvikelser].sekunder = (millis_kopia % 60000) / 1000;
 805              		.loc 1 172 73
 806 02b0 B377F902 		remu	a5,s2,a5
 171:main.c        ****                         logg[antal_avvikelser].sekunder = (millis_kopia % 60000) / 1000;
 807              		.loc 1 171 57
 808 02b4 3387E602 		mul	a4,a3,a4
 809 02b8 5E97     		add	a4,s7,a4
 810 02ba 0CC3     		sw	a1,0(a4)
 172:main.c        ****                         logg[antal_avvikelser].sekunder = (millis_kopia % 60000) / 1000;
GAS LISTING C:\Users\Uzair\AppData\Local\Temp\ccCzur1R.s 			page 21


 811              		.loc 1 172 25 is_stmt 1
 172:main.c        ****                         logg[antal_avvikelser].sekunder = (millis_kopia % 60000) / 1000;
 812              		.loc 1 172 82 is_stmt 0
 813 02bc 9305803E 		li	a1,1000
 814 02c0 B3D7B702 		divu	a5,a5,a1
 173:main.c        ****                         antal_avvikelser++;
 815              		.loc 1 173 58
 816 02c4 23243701 		sw	s3,8(a4)
 172:main.c        ****                         logg[antal_avvikelser].sekunder = (millis_kopia % 60000) / 1000;
 817              		.loc 1 172 57
 818 02c8 5CC3     		sw	a5,4(a4)
 173:main.c        ****                         antal_avvikelser++;
 819              		.loc 1 173 25 is_stmt 1
 174:main.c        ****                     }
 820              		.loc 1 174 25
 174:main.c        ****                     }
 821              		.loc 1 174 41 is_stmt 0
 822 02ca 93871600 		addi	a5,a3,1
 823 02ce 9CC0     		sw	a5,0(s1)
 824              		.loc 1 176 21 is_stmt 1
 162:main.c        ****                     if (antal_avvikelser < MAX_AVVIKELSER) {
 825              		.loc 1 162 29 is_stmt 0
 826 02d0 8544     		li	s1,1
 827              		.loc 1 176 24
 828 02d2 6359F600 		ble	a5,a2,.L32
 829              	.L33:
 177:main.c        ****                         spara_logg();
 830              		.loc 1 177 25 is_stmt 1
 831 02d6 97000000 		call	spara_logg
 831      E7800000 
 832              	.LVL88:
 178:main.c        ****                         
 179:main.c        ****                         // ÄNDRAT: Säker uppdatering av senaste_sparning med skyddade tids-kopian
 180:main.c        ****                         senaste_sparning = millis_kopia; 
 833              		.loc 1 180 25
 162:main.c        ****                     if (antal_avvikelser < MAX_AVVIKELSER) {
 834              		.loc 1 162 29 is_stmt 0
 835 02de D684     		mv	s1,s5
 836              		.loc 1 180 42
 837 02e0 23202A01 		sw	s2,0(s4)
 838              	.LVL89:
 839              	.L32:
 181:main.c        ****                     }
 182:main.c        ****                 }
 183:main.c        ****             } else if (avvikelse < 20) {
 184:main.c        ****                 gpio_bit_reset(GPIOB, VIBRATOR_PIN);
 185:main.c        ****                 utanfor = 0;
 186:main.c        ****             }
 187:main.c        **** 
 188:main.c        ****             // ÄNDRAT: Gör en säker tidsavläsning även för den automatiska 20-sekunderssparan
 189:main.c        ****             eclic_global_interrupt_disable();
 840              		.loc 1 189 13 is_stmt 1
 841 02e4 97000000 		call	eclic_global_interrupt_disable
 841      E7800000 
 842              	.LVL90:
 190:main.c        ****             uint32_t nuvarande_tid = millis;
 843              		.loc 1 190 13
GAS LISTING C:\Users\Uzair\AppData\Local\Temp\ccCzur1R.s 			page 22


 844              		.loc 1 190 22 is_stmt 0
 845 02ec 83290C00 		lw	s3,0(s8)
 846              	.LVL91:
 191:main.c        ****             eclic_global_interrupt_enable();
 847              		.loc 1 191 13 is_stmt 1
 848 02f0 97000000 		call	eclic_global_interrupt_enable
 848      E7800000 
 849              	.LVL92:
 192:main.c        **** 
 193:main.c        ****             if (nuvarande_tid - senaste_sparning >= 20000) {
 850              		.loc 1 193 13
 851              		.loc 1 193 31 is_stmt 0
 852 02f8 03270A00 		lw	a4,0(s4)
 853              		.loc 1 193 16
 854 02fc 9567     		li	a5,20480
 855 02fe 9387F7E1 		addi	a5,a5,-481
 856              		.loc 1 193 31
 857 0302 3387E940 		sub	a4,s3,a4
 858              		.loc 1 193 16
 859 0306 E3F2E7E0 		bleu	a4,a5,.L26
 194:main.c        ****                 spara_logg();
 860              		.loc 1 194 17 is_stmt 1
 861 030a 97000000 		call	spara_logg
 861      E7800000 
 862              	.LVL93:
 195:main.c        ****                 senaste_sparning = nuvarande_tid; // ÄNDRAT: Uppdaterar spar-tiden med det säkra 
 863              		.loc 1 195 17
 864              		.loc 1 195 34 is_stmt 0
 865 0312 23203A01 		sw	s3,0(s4)
 866 0316 D5BB     		j	.L26
 867              	.LVL94:
 868              	.L25:
 869              	.LBE22:
 870              	.LBE25:
 110:main.c        ****     usb_delay_1ms(1000);
 871              		.loc 1 110 37 is_stmt 1 discriminator 2
 872 0318 13054006 		li	a0,100
 873 031c 97000000 		call	usb_delay_1ms
 873      E7800000 
 874              	.LVL95:
 875 0324 01B3     		j	.L24
 876              	.LVL96:
 877              	.L27:
 878              	.LBB26:
 146:main.c        ****         }
 879              		.loc 1 146 13
 880 0326 138509C0 		addi	a0,s3,-1024
 881 032a 97000000 		call	gpio_bit_reset
 881      E7800000 
 882              	.LVL97:
 883 0332 59BD     		j	.L28
 884              	.LVL98:
 885              	.L38:
 886              	.LBB23:
 183:main.c        ****                 gpio_bit_reset(GPIOB, VIBRATOR_PIN);
 887              		.loc 1 183 20
 183:main.c        ****                 gpio_bit_reset(GPIOB, VIBRATOR_PIN);
GAS LISTING C:\Users\Uzair\AppData\Local\Temp\ccCzur1R.s 			page 23


 888              		.loc 1 183 23 is_stmt 0
 889 0334 6C5C     		lw	a1,124(s0)
 890 0336 4E85     		mv	a0,s3
 891 0338 97000000 		call	__ltsf2
 891      E7800000 
 892              	.LVL99:
 893 0340 E35205FA 		bge	a0,zero,.L32
 184:main.c        ****                 utanfor = 0;
 894              		.loc 1 184 17 is_stmt 1
 895 0344 37150140 		li	a0,1073811456
 896 0348 93050002 		li	a1,32
 897 034c 130505C0 		addi	a0,a0,-1024
 898 0350 97000000 		call	gpio_bit_reset
 898      E7800000 
 899              	.LVL100:
 185:main.c        ****             }
 900              		.loc 1 185 17
 185:main.c        ****             }
 901              		.loc 1 185 25 is_stmt 0
 902 0358 8144     		li	s1,0
 903 035a 69B7     		j	.L32
 904              	.LBE23:
 905              	.LBE26:
 906              		.cfi_endproc
 907              	.LFE11:
 909              		.section	.rodata
 910              		.align	3
 911              		.set	.LANCHOR2,. + 0
 912              	.LC0:
 913 0000 00       		.string	""
 914 0001 000000   		.zero	3
 915              	.LC1:
 916 0004 4C4F4747 		.string	"LOGG.CSV"
 916      2E435356 
 916      00
 917 000d 000000   		.zero	3
 918              	.LC2:
 919 0010 4D696E75 		.string	"Minuter,Sekunder,Avvikelse\n"
 919      7465722C 
 919      53656B75 
 919      6E646572 
 919      2C417676 
 920              	.LC3:
 921 002c 256C752C 		.string	"%lu,%lu,%d\n"
 921      256C752C 
 921      25640A00 
 922              	.LC4:
 923 0038 F8C1631A 		.word	442745336
 924 003c DCA54C40 		.word	1078765020
 925              	.LC5:
 926 0040 583A2025 		.string	"X: %d  Y: %d  Z: %d\n"
 926      64202059 
 926      3A202564 
 926      20205A3A 
 926      2025640A 
 927 0055 000000   		.zero	3
 928              	.LC6:
GAS LISTING C:\Users\Uzair\AppData\Local\Temp\ccCzur1R.s 			page 24


 929 0058 41767669 		.string	"Avvikelse: %d  Nollvinkel: %d\n"
 929      6B656C73 
 929      653A2025 
 929      6420204E 
 929      6F6C6C76 
 930 0077 00       		.zero	1
 931              	.LC7:
 932 0078 0000C841 		.word	1103626240
 933              	.LC8:
 934 007c 0000A041 		.word	1101004800
 935              		.section	.sbss.antal_avvikelser,"aw",@nobits
 936              		.align	2
 937              		.set	.LANCHOR1,. + 0
 940              	antal_avvikelser:
 941 0000 00000000 		.zero	4
 942              		.section	.sbss.millis,"aw",@nobits
 943              		.align	2
 944              		.set	.LANCHOR3,. + 0
 947              	millis:
 948 0000 00000000 		.zero	4
 949              		.section	.sbss.sd_monterad,"aw",@nobits
 950              		.align	2
 951              		.set	.LANCHOR0,. + 0
 954              	sd_monterad:
 955 0000 00000000 		.zero	4
 956              		.section	.sbss.senaste_sparning,"aw",@nobits
 957              		.align	2
 958              		.set	.LANCHOR4,. + 0
 961              	senaste_sparning:
 962 0000 00000000 		.zero	4
 963              		.text
 964              	.Letext0:
 965              		.file 2 "c:\\kth\\he1043\\toolchain-gd32v-v202-win\\toolchain-gd32v-v202-win\\compiler\\lib\\gcc\\
 966              		.file 3 "c:\\kth\\he1043\\toolchain-gd32v-v202-win\\toolchain-gd32v-v202-win\\compiler\\riscv64-un
 967              		.file 4 "c:\\kth\\he1043\\toolchain-gd32v-v202-win\\toolchain-gd32v-v202-win\\compiler\\riscv64-un
 968              		.file 5 "c:\\kth\\he1043\\toolchain-gd32v-v202-win\\toolchain-gd32v-v202-win\\compiler\\riscv64-un
 969              		.file 6 "c:\\kth\\he1043\\toolchain-gd32v-v202-win\\toolchain-gd32v-v202-win\\compiler\\riscv64-un
 970              		.file 7 "c:\\kth\\he1043\\toolchain-gd32v-v202-win\\toolchain-gd32v-v202-win\\compiler\\riscv64-un
 971              		.file 8 "./../../firmware/GD32VF103_standard_peripheral/gd32vf103.h"
 972              		.file 9 "c:\\kth\\he1043\\toolchain-gd32v-v202-win\\toolchain-gd32v-v202-win\\compiler\\riscv64-un
 973              		.file 10 "./../../firmware/GD32VF103_standard_peripheral/system_gd32vf103.h"
 974              		.file 11 "./../../firmware/GD32VF103_standard_peripheral/Include/gd32vf103_rcu.h"
 975              		.file 12 "./../../firmware/GD32VF103_standard_peripheral/Include/gd32vf103_timer.h"
 976              		.file 13 "mpu6500_driver.h"
 977              		.file 14 "ff.h"
 978              		.file 15 "drv_usb_regs.h"
 979              		.file 16 "usb_ch9_std.h"
 980              		.file 17 "drv_usb_core.h"
 981              		.file 18 "drv_usb_dev.h"
 982              		.file 19 "cdc_acm_core.h"
 983              		.file 20 "c:\\kth\\he1043\\toolchain-gd32v-v202-win\\toolchain-gd32v-v202-win\\compiler\\riscv64-u
 984              		.file 21 "usb_serial_if.h"
 985              		.file 22 "./../../firmware/GD32VF103_standard_peripheral/Include/gd32vf103_gpio.h"
 986              		.file 23 "./../../firmware/GD32VF103_standard_peripheral/Include/gd32vf103_eclic.h"
 987              		.file 24 "systick.h"
 988              		.file 25 "c:\\kth\\he1043\\toolchain-gd32v-v202-win\\toolchain-gd32v-v202-win\\compiler\\riscv64-u
 989              		.file 26 "usb_delay.h"
GAS LISTING C:\Users\Uzair\AppData\Local\Temp\ccCzur1R.s 			page 25


 990              		.file 27 "gd32v_mpu6500_if.h"
 991              		.file 28 "gd32v_tf_card_if.h"
GAS LISTING C:\Users\Uzair\AppData\Local\Temp\ccCzur1R.s 			page 26


DEFINED SYMBOLS
                            *ABS*:0000000000000000 main.c
                            *COM*:0000000000000e10 logg
C:\Users\Uzair\AppData\Local\Temp\ccCzur1R.s:940    .sbss.antal_avvikelser:0000000000000000 antal_avvikelser
C:\Users\Uzair\AppData\Local\Temp\ccCzur1R.s:947    .sbss.millis:0000000000000000 millis
                            *COM*:0000000000000230 fs
                            *COM*:0000000000000228 fil
                            *COM*:0000000000000004 bw
C:\Users\Uzair\AppData\Local\Temp\ccCzur1R.s:954    .sbss.sd_monterad:0000000000000000 sd_monterad
C:\Users\Uzair\AppData\Local\Temp\ccCzur1R.s:961    .sbss.senaste_sparning:0000000000000000 senaste_sparning
C:\Users\Uzair\AppData\Local\Temp\ccCzur1R.s:21     .text.sd_init:0000000000000000 sd_init
C:\Users\Uzair\AppData\Local\Temp\ccCzur1R.s:25     .text.sd_init:0000000000000000 .L0 
C:\Users\Uzair\AppData\Local\Temp\ccCzur1R.s:26     .text.sd_init:0000000000000000 .L0 
C:\Users\Uzair\AppData\Local\Temp\ccCzur1R.s:27     .text.sd_init:0000000000000000 .L0 
C:\Users\Uzair\AppData\Local\Temp\ccCzur1R.s:28     .text.sd_init:0000000000000000 .L0 
C:\Users\Uzair\AppData\Local\Temp\ccCzur1R.s:30     .text.sd_init:0000000000000002 .L0 
C:\Users\Uzair\AppData\Local\Temp\ccCzur1R.s:32     .text.sd_init:0000000000000002 .L0 
C:\Users\Uzair\AppData\Local\Temp\ccCzur1R.s:39     .text.sd_init:0000000000000010 .L0 
C:\Users\Uzair\AppData\Local\Temp\ccCzur1R.s:40     .text.sd_init:0000000000000012 .L0 
C:\Users\Uzair\AppData\Local\Temp\ccCzur1R.s:42     .text.sd_init:0000000000000012 .L0 
C:\Users\Uzair\AppData\Local\Temp\ccCzur1R.s:45     .text.sd_init:000000000000001a .L0 
C:\Users\Uzair\AppData\Local\Temp\ccCzur1R.s:49     .text.sd_init:0000000000000026 .L0 
C:\Users\Uzair\AppData\Local\Temp\ccCzur1R.s:50     .text.sd_init:0000000000000026 .L0 
C:\Users\Uzair\AppData\Local\Temp\ccCzur1R.s:58     .text.sd_init:0000000000000040 .L0 
C:\Users\Uzair\AppData\Local\Temp\ccCzur1R.s:59     .text.sd_init:0000000000000040 .L0 
C:\Users\Uzair\AppData\Local\Temp\ccCzur1R.s:61     .text.sd_init:0000000000000042 .L0 
C:\Users\Uzair\AppData\Local\Temp\ccCzur1R.s:62     .text.sd_init:0000000000000042 .L0 
C:\Users\Uzair\AppData\Local\Temp\ccCzur1R.s:67     .text.sd_init:000000000000004c .L0 
C:\Users\Uzair\AppData\Local\Temp\ccCzur1R.s:68     .text.sd_init:000000000000004e .L0 
C:\Users\Uzair\AppData\Local\Temp\ccCzur1R.s:71     .text.sd_init:0000000000000050 .L0 
C:\Users\Uzair\AppData\Local\Temp\ccCzur1R.s:73     .text.sd_init:0000000000000052 .L0 
C:\Users\Uzair\AppData\Local\Temp\ccCzur1R.s:81     .text.spara_logg:0000000000000000 spara_logg
C:\Users\Uzair\AppData\Local\Temp\ccCzur1R.s:84     .text.spara_logg:0000000000000000 .L0 
C:\Users\Uzair\AppData\Local\Temp\ccCzur1R.s:85     .text.spara_logg:0000000000000000 .L0 
C:\Users\Uzair\AppData\Local\Temp\ccCzur1R.s:86     .text.spara_logg:0000000000000000 .L0 
C:\Users\Uzair\AppData\Local\Temp\ccCzur1R.s:87     .text.spara_logg:0000000000000000 .L0 
C:\Users\Uzair\AppData\Local\Temp\ccCzur1R.s:91     .text.spara_logg:000000000000000a .L0 
C:\Users\Uzair\AppData\Local\Temp\ccCzur1R.s:93     .text.spara_logg:000000000000000c .L0 
C:\Users\Uzair\AppData\Local\Temp\ccCzur1R.s:95     .text.spara_logg:000000000000000e .L0 
C:\Users\Uzair\AppData\Local\Temp\ccCzur1R.s:97     .text.spara_logg:000000000000000e .L0 
C:\Users\Uzair\AppData\Local\Temp\ccCzur1R.s:99     .text.spara_logg:0000000000000012 .L0 
C:\Users\Uzair\AppData\Local\Temp\ccCzur1R.s:101    .text.spara_logg:0000000000000016 .L0 
C:\Users\Uzair\AppData\Local\Temp\ccCzur1R.s:107    .text.spara_logg:0000000000000022 .L0 
C:\Users\Uzair\AppData\Local\Temp\ccCzur1R.s:108    .text.spara_logg:0000000000000022 .L0 
C:\Users\Uzair\AppData\Local\Temp\ccCzur1R.s:109    .text.spara_logg:0000000000000022 .L0 
C:\Users\Uzair\AppData\Local\Temp\ccCzur1R.s:110    .text.spara_logg:0000000000000022 .L0 
C:\Users\Uzair\AppData\Local\Temp\ccCzur1R.s:111    .text.spara_logg:0000000000000022 .L0 
C:\Users\Uzair\AppData\Local\Temp\ccCzur1R.s:112    .text.spara_logg:0000000000000022 .L0 
C:\Users\Uzair\AppData\Local\Temp\ccCzur1R.s:115    .text.spara_logg:0000000000000026 .L0 
C:\Users\Uzair\AppData\Local\Temp\ccCzur1R.s:117    .text.spara_logg:0000000000000028 .L0 
C:\Users\Uzair\AppData\Local\Temp\ccCzur1R.s:118    .text.spara_logg:0000000000000028 .L0 
C:\Users\Uzair\AppData\Local\Temp\ccCzur1R.s:127    .text.spara_logg:0000000000000046 .L0 
C:\Users\Uzair\AppData\Local\Temp\ccCzur1R.s:129    .text.spara_logg:000000000000004a .L0 
C:\Users\Uzair\AppData\Local\Temp\ccCzur1R.s:133    .text.spara_logg:000000000000004c .L0 
C:\Users\Uzair\AppData\Local\Temp\ccCzur1R.s:134    .text.spara_logg:000000000000004c .L0 
C:\Users\Uzair\AppData\Local\Temp\ccCzur1R.s:136    .text.spara_logg:0000000000000050 .L0 
C:\Users\Uzair\AppData\Local\Temp\ccCzur1R.s:139    .text.spara_logg:0000000000000054 .L0 
GAS LISTING C:\Users\Uzair\AppData\Local\Temp\ccCzur1R.s 			page 27


C:\Users\Uzair\AppData\Local\Temp\ccCzur1R.s:153    .text.spara_logg:0000000000000076 .L0 
C:\Users\Uzair\AppData\Local\Temp\ccCzur1R.s:159    .text.spara_logg:0000000000000078 .L0 
C:\Users\Uzair\AppData\Local\Temp\ccCzur1R.s:161    .text.spara_logg:000000000000007c .L0 
C:\Users\Uzair\AppData\Local\Temp\ccCzur1R.s:166    .text.spara_logg:0000000000000080 .L0 
C:\Users\Uzair\AppData\Local\Temp\ccCzur1R.s:170    .text.spara_logg:0000000000000088 .L0 
C:\Users\Uzair\AppData\Local\Temp\ccCzur1R.s:174    .text.spara_logg:0000000000000094 .L0 
C:\Users\Uzair\AppData\Local\Temp\ccCzur1R.s:178    .text.spara_logg:00000000000000a0 .L0 
C:\Users\Uzair\AppData\Local\Temp\ccCzur1R.s:179    .text.spara_logg:00000000000000a0 .L0 
C:\Users\Uzair\AppData\Local\Temp\ccCzur1R.s:185    .text.spara_logg:00000000000000a4 .L0 
C:\Users\Uzair\AppData\Local\Temp\ccCzur1R.s:186    .text.spara_logg:00000000000000a6 .L0 
C:\Users\Uzair\AppData\Local\Temp\ccCzur1R.s:187    .text.spara_logg:00000000000000a6 .L0 
C:\Users\Uzair\AppData\Local\Temp\ccCzur1R.s:189    .text.spara_logg:00000000000000a8 .L0 
C:\Users\Uzair\AppData\Local\Temp\ccCzur1R.s:191    .text.spara_logg:00000000000000aa .L0 
C:\Users\Uzair\AppData\Local\Temp\ccCzur1R.s:193    .text.spara_logg:00000000000000ac .L0 
C:\Users\Uzair\AppData\Local\Temp\ccCzur1R.s:195    .text.spara_logg:00000000000000ae .L0 
C:\Users\Uzair\AppData\Local\Temp\ccCzur1R.s:197    .text.spara_logg:00000000000000b0 .L0 
C:\Users\Uzair\AppData\Local\Temp\ccCzur1R.s:199    .text.spara_logg:00000000000000b2 .L0 
C:\Users\Uzair\AppData\Local\Temp\ccCzur1R.s:202    .text.spara_logg:00000000000000b4 .L0 
C:\Users\Uzair\AppData\Local\Temp\ccCzur1R.s:207    .text.spara_logg:00000000000000b6 .L0 
C:\Users\Uzair\AppData\Local\Temp\ccCzur1R.s:213    .text.spara_logg:00000000000000b6 .L0 
C:\Users\Uzair\AppData\Local\Temp\ccCzur1R.s:214    .text.spara_logg:00000000000000b6 .L0 
C:\Users\Uzair\AppData\Local\Temp\ccCzur1R.s:217    .text.spara_logg:00000000000000b8 .L0 
C:\Users\Uzair\AppData\Local\Temp\ccCzur1R.s:222    .text.spara_logg:00000000000000bc .L0 
C:\Users\Uzair\AppData\Local\Temp\ccCzur1R.s:233    .text.spara_logg:00000000000000de .L0 
C:\Users\Uzair\AppData\Local\Temp\ccCzur1R.s:244    .text.spara_logg:00000000000000f4 .L0 
C:\Users\Uzair\AppData\Local\Temp\ccCzur1R.s:245    .text.spara_logg:00000000000000f4 .L0 
C:\Users\Uzair\AppData\Local\Temp\ccCzur1R.s:246    .text.spara_logg:00000000000000f4 .L0 
C:\Users\Uzair\AppData\Local\Temp\ccCzur1R.s:247    .text.spara_logg:00000000000000f4 .L0 
C:\Users\Uzair\AppData\Local\Temp\ccCzur1R.s:248    .text.spara_logg:00000000000000f4 .L0 
C:\Users\Uzair\AppData\Local\Temp\ccCzur1R.s:249    .text.spara_logg:00000000000000f4 .L0 
C:\Users\Uzair\AppData\Local\Temp\ccCzur1R.s:250    .text.spara_logg:00000000000000f4 .L0 
C:\Users\Uzair\AppData\Local\Temp\ccCzur1R.s:251    .text.spara_logg:00000000000000f4 .L0 
C:\Users\Uzair\AppData\Local\Temp\ccCzur1R.s:257    .text.spara_logg:00000000000000f6 .L0 
C:\Users\Uzair\AppData\Local\Temp\ccCzur1R.s:264    .text.interrupt_config:0000000000000000 interrupt_config
C:\Users\Uzair\AppData\Local\Temp\ccCzur1R.s:267    .text.interrupt_config:0000000000000000 .L0 
C:\Users\Uzair\AppData\Local\Temp\ccCzur1R.s:268    .text.interrupt_config:0000000000000000 .L0 
C:\Users\Uzair\AppData\Local\Temp\ccCzur1R.s:269    .text.interrupt_config:0000000000000000 .L0 
C:\Users\Uzair\AppData\Local\Temp\ccCzur1R.s:270    .text.interrupt_config:0000000000000000 .L0 
C:\Users\Uzair\AppData\Local\Temp\ccCzur1R.s:271    .text.interrupt_config:0000000000000000 .L0 
C:\Users\Uzair\AppData\Local\Temp\ccCzur1R.s:272    .text.interrupt_config:0000000000000000 .L0 
C:\Users\Uzair\AppData\Local\Temp\ccCzur1R.s:274    .text.interrupt_config:0000000000000002 .L0 
C:\Users\Uzair\AppData\Local\Temp\ccCzur1R.s:276    .text.interrupt_config:0000000000000002 .L0 
C:\Users\Uzair\AppData\Local\Temp\ccCzur1R.s:280    .text.interrupt_config:000000000000000a .L0 
C:\Users\Uzair\AppData\Local\Temp\ccCzur1R.s:282    .text.interrupt_config:000000000000000e .L0 
C:\Users\Uzair\AppData\Local\Temp\ccCzur1R.s:283    .text.interrupt_config:000000000000000e .L0 
C:\Users\Uzair\AppData\Local\Temp\ccCzur1R.s:285    .text.interrupt_config:000000000000000e .L0 
C:\Users\Uzair\AppData\Local\Temp\ccCzur1R.s:288    .text.interrupt_config:0000000000000016 .L0 
C:\Users\Uzair\AppData\Local\Temp\ccCzur1R.s:292    .text.interrupt_config:0000000000000022 .L0 
C:\Users\Uzair\AppData\Local\Temp\ccCzur1R.s:296    .text.interrupt_config:000000000000002e .L0 
C:\Users\Uzair\AppData\Local\Temp\ccCzur1R.s:300    .text.interrupt_config:0000000000000038 .L0 
C:\Users\Uzair\AppData\Local\Temp\ccCzur1R.s:301    .text.interrupt_config:0000000000000038 .L0 
C:\Users\Uzair\AppData\Local\Temp\ccCzur1R.s:302    .text.interrupt_config:0000000000000038 .L0 
C:\Users\Uzair\AppData\Local\Temp\ccCzur1R.s:303    .text.interrupt_config:0000000000000038 .L0 
C:\Users\Uzair\AppData\Local\Temp\ccCzur1R.s:306    .text.interrupt_config:000000000000003e .L0 
C:\Users\Uzair\AppData\Local\Temp\ccCzur1R.s:308    .text.interrupt_config:0000000000000040 .L0 
C:\Users\Uzair\AppData\Local\Temp\ccCzur1R.s:310    .text.interrupt_config:0000000000000042 .L0 
C:\Users\Uzair\AppData\Local\Temp\ccCzur1R.s:312    .text.interrupt_config:0000000000000046 .L0 
GAS LISTING C:\Users\Uzair\AppData\Local\Temp\ccCzur1R.s 			page 28


C:\Users\Uzair\AppData\Local\Temp\ccCzur1R.s:314    .text.interrupt_config:0000000000000048 .L0 
C:\Users\Uzair\AppData\Local\Temp\ccCzur1R.s:316    .text.interrupt_config:000000000000004a .L0 
C:\Users\Uzair\AppData\Local\Temp\ccCzur1R.s:318    .text.interrupt_config:000000000000004e .L0 
C:\Users\Uzair\AppData\Local\Temp\ccCzur1R.s:319    .text.interrupt_config:000000000000004e .L0 
C:\Users\Uzair\AppData\Local\Temp\ccCzur1R.s:320    .text.interrupt_config:000000000000004e .L0 
C:\Users\Uzair\AppData\Local\Temp\ccCzur1R.s:322    .text.interrupt_config:0000000000000052 .L0 
C:\Users\Uzair\AppData\Local\Temp\ccCzur1R.s:325    .text.interrupt_config:000000000000005a .L0 
C:\Users\Uzair\AppData\Local\Temp\ccCzur1R.s:329    .text.interrupt_config:0000000000000064 .L0 
C:\Users\Uzair\AppData\Local\Temp\ccCzur1R.s:330    .text.interrupt_config:0000000000000064 .L0 
C:\Users\Uzair\AppData\Local\Temp\ccCzur1R.s:334    .text.interrupt_config:000000000000006c .L0 
C:\Users\Uzair\AppData\Local\Temp\ccCzur1R.s:336    .text.interrupt_config:0000000000000070 .L0 
C:\Users\Uzair\AppData\Local\Temp\ccCzur1R.s:337    .text.interrupt_config:0000000000000070 .L0 
C:\Users\Uzair\AppData\Local\Temp\ccCzur1R.s:339    .text.interrupt_config:0000000000000074 .L0 
C:\Users\Uzair\AppData\Local\Temp\ccCzur1R.s:340    .text.interrupt_config:0000000000000074 .L0 
C:\Users\Uzair\AppData\Local\Temp\ccCzur1R.s:342    .text.interrupt_config:0000000000000078 .L0 
C:\Users\Uzair\AppData\Local\Temp\ccCzur1R.s:345    .text.interrupt_config:0000000000000080 .L0 
C:\Users\Uzair\AppData\Local\Temp\ccCzur1R.s:352    .text.interrupt_config:0000000000000094 .L0 
C:\Users\Uzair\AppData\Local\Temp\ccCzur1R.s:358    .text.interrupt_config:00000000000000a4 .L0 
C:\Users\Uzair\AppData\Local\Temp\ccCzur1R.s:364    .text.interrupt_config:00000000000000b4 .L0 
C:\Users\Uzair\AppData\Local\Temp\ccCzur1R.s:369    .text.interrupt_config:00000000000000c2 .L0 
C:\Users\Uzair\AppData\Local\Temp\ccCzur1R.s:374    .text.interrupt_config:00000000000000d0 .L0 
C:\Users\Uzair\AppData\Local\Temp\ccCzur1R.s:378    .text.interrupt_config:00000000000000dc .L0 
C:\Users\Uzair\AppData\Local\Temp\ccCzur1R.s:379    .text.interrupt_config:00000000000000de .L0 
C:\Users\Uzair\AppData\Local\Temp\ccCzur1R.s:381    .text.interrupt_config:00000000000000e0 .L0 
C:\Users\Uzair\AppData\Local\Temp\ccCzur1R.s:384    .text.interrupt_config:00000000000000e2 .L0 
C:\Users\Uzair\AppData\Local\Temp\ccCzur1R.s:386    .text.interrupt_config:00000000000000e4 .L0 
C:\Users\Uzair\AppData\Local\Temp\ccCzur1R.s:393    .text.TIMER1_IRQHandler:0000000000000000 TIMER1_IRQHandler
C:\Users\Uzair\AppData\Local\Temp\ccCzur1R.s:396    .text.TIMER1_IRQHandler:0000000000000000 .L0 
C:\Users\Uzair\AppData\Local\Temp\ccCzur1R.s:397    .text.TIMER1_IRQHandler:0000000000000000 .L0 
C:\Users\Uzair\AppData\Local\Temp\ccCzur1R.s:398    .text.TIMER1_IRQHandler:0000000000000000 .L0 
C:\Users\Uzair\AppData\Local\Temp\ccCzur1R.s:399    .text.TIMER1_IRQHandler:0000000000000000 .L0 
C:\Users\Uzair\AppData\Local\Temp\ccCzur1R.s:401    .text.TIMER1_IRQHandler:0000000000000002 .L0 
C:\Users\Uzair\AppData\Local\Temp\ccCzur1R.s:403    .text.TIMER1_IRQHandler:0000000000000002 .L0 
C:\Users\Uzair\AppData\Local\Temp\ccCzur1R.s:406    .text.TIMER1_IRQHandler:0000000000000008 .L0 
C:\Users\Uzair\AppData\Local\Temp\ccCzur1R.s:407    .text.TIMER1_IRQHandler:000000000000000a .L0 
C:\Users\Uzair\AppData\Local\Temp\ccCzur1R.s:409    .text.TIMER1_IRQHandler:000000000000000a .L0 
C:\Users\Uzair\AppData\Local\Temp\ccCzur1R.s:412    .text.TIMER1_IRQHandler:0000000000000012 .L0 
C:\Users\Uzair\AppData\Local\Temp\ccCzur1R.s:415    .text.TIMER1_IRQHandler:0000000000000018 .L0 
C:\Users\Uzair\AppData\Local\Temp\ccCzur1R.s:416    .text.TIMER1_IRQHandler:0000000000000018 .L0 
C:\Users\Uzair\AppData\Local\Temp\ccCzur1R.s:420    .text.TIMER1_IRQHandler:0000000000000022 .L0 
C:\Users\Uzair\AppData\Local\Temp\ccCzur1R.s:421    .text.TIMER1_IRQHandler:0000000000000024 .L0 
C:\Users\Uzair\AppData\Local\Temp\ccCzur1R.s:422    .text.TIMER1_IRQHandler:0000000000000024 .L0 
C:\Users\Uzair\AppData\Local\Temp\ccCzur1R.s:424    .text.TIMER1_IRQHandler:0000000000000024 .L0 
C:\Users\Uzair\AppData\Local\Temp\ccCzur1R.s:426    .text.TIMER1_IRQHandler:0000000000000026 .L0 
C:\Users\Uzair\AppData\Local\Temp\ccCzur1R.s:429    .text.TIMER1_IRQHandler:000000000000002a .L0 
C:\Users\Uzair\AppData\Local\Temp\ccCzur1R.s:430    .text.TIMER1_IRQHandler:000000000000002a .L0 
C:\Users\Uzair\AppData\Local\Temp\ccCzur1R.s:431    .text.TIMER1_IRQHandler:000000000000002a .L0 
C:\Users\Uzair\AppData\Local\Temp\ccCzur1R.s:433    .text.TIMER1_IRQHandler:000000000000002e .L0 
C:\Users\Uzair\AppData\Local\Temp\ccCzur1R.s:435    .text.TIMER1_IRQHandler:0000000000000030 .L0 
C:\Users\Uzair\AppData\Local\Temp\ccCzur1R.s:437    .text.TIMER1_IRQHandler:0000000000000030 .L0 
C:\Users\Uzair\AppData\Local\Temp\ccCzur1R.s:441    .text.TIMER1_IRQHandler:0000000000000038 .L0 
C:\Users\Uzair\AppData\Local\Temp\ccCzur1R.s:443    .text.TIMER1_IRQHandler:0000000000000038 .L0 
C:\Users\Uzair\AppData\Local\Temp\ccCzur1R.s:444    .text.TIMER1_IRQHandler:000000000000003a .L0 
C:\Users\Uzair\AppData\Local\Temp\ccCzur1R.s:447    .text.TIMER1_IRQHandler:000000000000003c .L0 
C:\Users\Uzair\AppData\Local\Temp\ccCzur1R.s:449    .text.TIMER1_IRQHandler:000000000000003e .L0 
C:\Users\Uzair\AppData\Local\Temp\ccCzur1R.s:464    .text.startup.main:0000000000000000 main
C:\Users\Uzair\AppData\Local\Temp\ccCzur1R.s:467    .text.startup.main:0000000000000000 .L0 
GAS LISTING C:\Users\Uzair\AppData\Local\Temp\ccCzur1R.s 			page 29


C:\Users\Uzair\AppData\Local\Temp\ccCzur1R.s:468    .text.startup.main:0000000000000000 .L0 
C:\Users\Uzair\AppData\Local\Temp\ccCzur1R.s:469    .text.startup.main:0000000000000000 .L0 
C:\Users\Uzair\AppData\Local\Temp\ccCzur1R.s:471    .text.startup.main:0000000000000000 .L0 
C:\Users\Uzair\AppData\Local\Temp\ccCzur1R.s:472    .text.startup.main:0000000000000000 .L0 
C:\Users\Uzair\AppData\Local\Temp\ccCzur1R.s:473    .text.startup.main:0000000000000000 .L0 
C:\Users\Uzair\AppData\Local\Temp\ccCzur1R.s:474    .text.startup.main:0000000000000000 .L0 
C:\Users\Uzair\AppData\Local\Temp\ccCzur1R.s:475    .text.startup.main:0000000000000000 .L0 
C:\Users\Uzair\AppData\Local\Temp\ccCzur1R.s:476    .text.startup.main:0000000000000000 .L0 
C:\Users\Uzair\AppData\Local\Temp\ccCzur1R.s:478    .text.startup.main:0000000000000002 .L0 
C:\Users\Uzair\AppData\Local\Temp\ccCzur1R.s:492    .text.startup.main:000000000000001c .L0 
C:\Users\Uzair\AppData\Local\Temp\ccCzur1R.s:493    .text.startup.main:000000000000001c .L0 
C:\Users\Uzair\AppData\Local\Temp\ccCzur1R.s:494    .text.startup.main:000000000000001c .L0 
C:\Users\Uzair\AppData\Local\Temp\ccCzur1R.s:495    .text.startup.main:000000000000001c .L0 
C:\Users\Uzair\AppData\Local\Temp\ccCzur1R.s:496    .text.startup.main:000000000000001c .L0 
C:\Users\Uzair\AppData\Local\Temp\ccCzur1R.s:497    .text.startup.main:000000000000001c .L0 
C:\Users\Uzair\AppData\Local\Temp\ccCzur1R.s:498    .text.startup.main:000000000000001c .L0 
C:\Users\Uzair\AppData\Local\Temp\ccCzur1R.s:499    .text.startup.main:000000000000001c .L0 
C:\Users\Uzair\AppData\Local\Temp\ccCzur1R.s:500    .text.startup.main:000000000000001c .L0 
C:\Users\Uzair\AppData\Local\Temp\ccCzur1R.s:501    .text.startup.main:000000000000001c .L0 
C:\Users\Uzair\AppData\Local\Temp\ccCzur1R.s:502    .text.startup.main:000000000000001c .L0 
C:\Users\Uzair\AppData\Local\Temp\ccCzur1R.s:503    .text.startup.main:000000000000001c .L0 
C:\Users\Uzair\AppData\Local\Temp\ccCzur1R.s:504    .text.startup.main:000000000000001c .L0 
C:\Users\Uzair\AppData\Local\Temp\ccCzur1R.s:506    .text.startup.main:000000000000001c .L0 
C:\Users\Uzair\AppData\Local\Temp\ccCzur1R.s:510    .text.startup.main:0000000000000024 .L0 
C:\Users\Uzair\AppData\Local\Temp\ccCzur1R.s:511    .text.startup.main:0000000000000024 .L0 
C:\Users\Uzair\AppData\Local\Temp\ccCzur1R.s:514    .text.startup.main:000000000000002c .L0 
C:\Users\Uzair\AppData\Local\Temp\ccCzur1R.s:516    .text.startup.main:0000000000000030 .L0 
C:\Users\Uzair\AppData\Local\Temp\ccCzur1R.s:520    .text.startup.main:000000000000003c .L0 
C:\Users\Uzair\AppData\Local\Temp\ccCzur1R.s:524    .text.startup.main:0000000000000048 .L0 
C:\Users\Uzair\AppData\Local\Temp\ccCzur1R.s:532    .text.startup.main:0000000000000060 .L0 
C:\Users\Uzair\AppData\Local\Temp\ccCzur1R.s:536    .text.startup.main:000000000000006c .L0 
C:\Users\Uzair\AppData\Local\Temp\ccCzur1R.s:543    .text.startup.main:000000000000007e .L0 
C:\Users\Uzair\AppData\Local\Temp\ccCzur1R.s:550    .text.startup.main:0000000000000092 .L0 
C:\Users\Uzair\AppData\Local\Temp\ccCzur1R.s:554    .text.startup.main:000000000000009e .L0 
C:\Users\Uzair\AppData\Local\Temp\ccCzur1R.s:561    .text.startup.main:00000000000000b2 .L0 
C:\Users\Uzair\AppData\Local\Temp\ccCzur1R.s:566    .text.startup.main:00000000000000c2 .L0 
C:\Users\Uzair\AppData\Local\Temp\ccCzur1R.s:569    .text.startup.main:00000000000000ca .L0 
C:\Users\Uzair\AppData\Local\Temp\ccCzur1R.s:574    .text.startup.main:00000000000000d4 .L0 
C:\Users\Uzair\AppData\Local\Temp\ccCzur1R.s:575    .text.startup.main:00000000000000d4 .L0 
C:\Users\Uzair\AppData\Local\Temp\ccCzur1R.s:578    .text.startup.main:00000000000000d8 .L0 
C:\Users\Uzair\AppData\Local\Temp\ccCzur1R.s:582    .text.startup.main:00000000000000dc .L0 
C:\Users\Uzair\AppData\Local\Temp\ccCzur1R.s:585    .text.startup.main:00000000000000e4 .L0 
C:\Users\Uzair\AppData\Local\Temp\ccCzur1R.s:586    .text.startup.main:00000000000000e4 .L0 
C:\Users\Uzair\AppData\Local\Temp\ccCzur1R.s:588    .text.startup.main:00000000000000e6 .L0 
C:\Users\Uzair\AppData\Local\Temp\ccCzur1R.s:591    .text.startup.main:00000000000000ee .L0 
C:\Users\Uzair\AppData\Local\Temp\ccCzur1R.s:593    .text.startup.main:00000000000000f0 .L0 
C:\Users\Uzair\AppData\Local\Temp\ccCzur1R.s:595    .text.startup.main:00000000000000f2 .L0 
C:\Users\Uzair\AppData\Local\Temp\ccCzur1R.s:598    .text.startup.main:00000000000000f6 .L0 
C:\Users\Uzair\AppData\Local\Temp\ccCzur1R.s:603    .text.startup.main:0000000000000102 .L0 
C:\Users\Uzair\AppData\Local\Temp\ccCzur1R.s:605    .text.startup.main:0000000000000106 .L0 
C:\Users\Uzair\AppData\Local\Temp\ccCzur1R.s:612    .text.startup.main:000000000000010a .L0 
C:\Users\Uzair\AppData\Local\Temp\ccCzur1R.s:613    .text.startup.main:000000000000010a .L0 
C:\Users\Uzair\AppData\Local\Temp\ccCzur1R.s:617    .text.startup.main:0000000000000114 .L0 
C:\Users\Uzair\AppData\Local\Temp\ccCzur1R.s:618    .text.startup.main:0000000000000114 .L0 
C:\Users\Uzair\AppData\Local\Temp\ccCzur1R.s:623    .text.startup.main:0000000000000120 .L0 
C:\Users\Uzair\AppData\Local\Temp\ccCzur1R.s:625    .text.startup.main:0000000000000122 .L0 
C:\Users\Uzair\AppData\Local\Temp\ccCzur1R.s:627    .text.startup.main:0000000000000124 .L0 
GAS LISTING C:\Users\Uzair\AppData\Local\Temp\ccCzur1R.s 			page 30


C:\Users\Uzair\AppData\Local\Temp\ccCzur1R.s:631    .text.startup.main:000000000000012e .L0 
C:\Users\Uzair\AppData\Local\Temp\ccCzur1R.s:636    .text.startup.main:000000000000013a .L0 
C:\Users\Uzair\AppData\Local\Temp\ccCzur1R.s:641    .text.startup.main:000000000000014a .L0 
C:\Users\Uzair\AppData\Local\Temp\ccCzur1R.s:642    .text.startup.main:000000000000014a .L0 
C:\Users\Uzair\AppData\Local\Temp\ccCzur1R.s:645    .text.startup.main:0000000000000152 .L0 
C:\Users\Uzair\AppData\Local\Temp\ccCzur1R.s:651    .text.startup.main:0000000000000160 .L0 
C:\Users\Uzair\AppData\Local\Temp\ccCzur1R.s:653    .text.startup.main:0000000000000164 .L0 
C:\Users\Uzair\AppData\Local\Temp\ccCzur1R.s:660    .text.startup.main:0000000000000178 .L0 
C:\Users\Uzair\AppData\Local\Temp\ccCzur1R.s:668    .text.startup.main:000000000000018c .L0 
C:\Users\Uzair\AppData\Local\Temp\ccCzur1R.s:671    .text.startup.main:0000000000000194 .L0 
C:\Users\Uzair\AppData\Local\Temp\ccCzur1R.s:673    .text.startup.main:0000000000000198 .L0 
C:\Users\Uzair\AppData\Local\Temp\ccCzur1R.s:676    .text.startup.main:000000000000019a .L0 
C:\Users\Uzair\AppData\Local\Temp\ccCzur1R.s:677    .text.startup.main:000000000000019a .L0 
C:\Users\Uzair\AppData\Local\Temp\ccCzur1R.s:682    .text.startup.main:00000000000001a6 .L0 
C:\Users\Uzair\AppData\Local\Temp\ccCzur1R.s:684    .text.startup.main:00000000000001a8 .L0 
C:\Users\Uzair\AppData\Local\Temp\ccCzur1R.s:687    .text.startup.main:00000000000001ac .L0 
C:\Users\Uzair\AppData\Local\Temp\ccCzur1R.s:688    .text.startup.main:00000000000001ac .L0 
C:\Users\Uzair\AppData\Local\Temp\ccCzur1R.s:689    .text.startup.main:00000000000001ac .L0 
C:\Users\Uzair\AppData\Local\Temp\ccCzur1R.s:693    .text.startup.main:00000000000001b8 .L0 
C:\Users\Uzair\AppData\Local\Temp\ccCzur1R.s:697    .text.startup.main:00000000000001c4 .L0 
C:\Users\Uzair\AppData\Local\Temp\ccCzur1R.s:699    .text.startup.main:00000000000001c6 .L0 
C:\Users\Uzair\AppData\Local\Temp\ccCzur1R.s:703    .text.startup.main:00000000000001c8 .L0 
C:\Users\Uzair\AppData\Local\Temp\ccCzur1R.s:704    .text.startup.main:00000000000001c8 .L0 
C:\Users\Uzair\AppData\Local\Temp\ccCzur1R.s:711    .text.startup.main:00000000000001d6 .L0 
C:\Users\Uzair\AppData\Local\Temp\ccCzur1R.s:731    .text.startup.main:000000000000020e .L0 
C:\Users\Uzair\AppData\Local\Temp\ccCzur1R.s:744    .text.startup.main:0000000000000234 .L0 
C:\Users\Uzair\AppData\Local\Temp\ccCzur1R.s:748    .text.startup.main:000000000000023e .L0 
C:\Users\Uzair\AppData\Local\Temp\ccCzur1R.s:752    .text.startup.main:000000000000024a .L0 
C:\Users\Uzair\AppData\Local\Temp\ccCzur1R.s:753    .text.startup.main:000000000000024a .L0 
C:\Users\Uzair\AppData\Local\Temp\ccCzur1R.s:757    .text.startup.main:000000000000024e .L0 
C:\Users\Uzair\AppData\Local\Temp\ccCzur1R.s:758    .text.startup.main:000000000000024e .L0 
C:\Users\Uzair\AppData\Local\Temp\ccCzur1R.s:767    .text.startup.main:0000000000000266 .L0 
C:\Users\Uzair\AppData\Local\Temp\ccCzur1R.s:773    .text.startup.main:000000000000027a .L0 
C:\Users\Uzair\AppData\Local\Temp\ccCzur1R.s:774    .text.startup.main:000000000000027a .L0 
C:\Users\Uzair\AppData\Local\Temp\ccCzur1R.s:777    .text.startup.main:000000000000027c .L0 
C:\Users\Uzair\AppData\Local\Temp\ccCzur1R.s:778    .text.startup.main:000000000000027c .L0 
C:\Users\Uzair\AppData\Local\Temp\ccCzur1R.s:779    .text.startup.main:000000000000027c .L0 
C:\Users\Uzair\AppData\Local\Temp\ccCzur1R.s:781    .text.startup.main:0000000000000280 .L0 
C:\Users\Uzair\AppData\Local\Temp\ccCzur1R.s:785    .text.startup.main:000000000000028a .L0 
C:\Users\Uzair\AppData\Local\Temp\ccCzur1R.s:788    .text.startup.main:0000000000000292 .L0 
C:\Users\Uzair\AppData\Local\Temp\ccCzur1R.s:789    .text.startup.main:0000000000000292 .L0 
C:\Users\Uzair\AppData\Local\Temp\ccCzur1R.s:792    .text.startup.main:0000000000000296 .L0 
C:\Users\Uzair\AppData\Local\Temp\ccCzur1R.s:795    .text.startup.main:000000000000029e .L0 
C:\Users\Uzair\AppData\Local\Temp\ccCzur1R.s:796    .text.startup.main:000000000000029e .L0 
C:\Users\Uzair\AppData\Local\Temp\ccCzur1R.s:800    .text.startup.main:00000000000002a8 .L0 
C:\Users\Uzair\AppData\Local\Temp\ccCzur1R.s:802    .text.startup.main:00000000000002aa .L0 
C:\Users\Uzair\AppData\Local\Temp\ccCzur1R.s:804    .text.startup.main:00000000000002ac .L0 
C:\Users\Uzair\AppData\Local\Temp\ccCzur1R.s:806    .text.startup.main:00000000000002b0 .L0 
C:\Users\Uzair\AppData\Local\Temp\ccCzur1R.s:808    .text.startup.main:00000000000002b4 .L0 
C:\Users\Uzair\AppData\Local\Temp\ccCzur1R.s:812    .text.startup.main:00000000000002bc .L0 
C:\Users\Uzair\AppData\Local\Temp\ccCzur1R.s:813    .text.startup.main:00000000000002bc .L0 
C:\Users\Uzair\AppData\Local\Temp\ccCzur1R.s:816    .text.startup.main:00000000000002c4 .L0 
C:\Users\Uzair\AppData\Local\Temp\ccCzur1R.s:818    .text.startup.main:00000000000002c8 .L0 
C:\Users\Uzair\AppData\Local\Temp\ccCzur1R.s:820    .text.startup.main:00000000000002ca .L0 
C:\Users\Uzair\AppData\Local\Temp\ccCzur1R.s:821    .text.startup.main:00000000000002ca .L0 
C:\Users\Uzair\AppData\Local\Temp\ccCzur1R.s:822    .text.startup.main:00000000000002ca .L0 
C:\Users\Uzair\AppData\Local\Temp\ccCzur1R.s:825    .text.startup.main:00000000000002d0 .L0 
GAS LISTING C:\Users\Uzair\AppData\Local\Temp\ccCzur1R.s 			page 31


C:\Users\Uzair\AppData\Local\Temp\ccCzur1R.s:826    .text.startup.main:00000000000002d0 .L0 
C:\Users\Uzair\AppData\Local\Temp\ccCzur1R.s:828    .text.startup.main:00000000000002d2 .L0 
C:\Users\Uzair\AppData\Local\Temp\ccCzur1R.s:831    .text.startup.main:00000000000002d6 .L0 
C:\Users\Uzair\AppData\Local\Temp\ccCzur1R.s:834    .text.startup.main:00000000000002de .L0 
C:\Users\Uzair\AppData\Local\Temp\ccCzur1R.s:835    .text.startup.main:00000000000002de .L0 
C:\Users\Uzair\AppData\Local\Temp\ccCzur1R.s:837    .text.startup.main:00000000000002e0 .L0 
C:\Users\Uzair\AppData\Local\Temp\ccCzur1R.s:841    .text.startup.main:00000000000002e4 .L0 
C:\Users\Uzair\AppData\Local\Temp\ccCzur1R.s:844    .text.startup.main:00000000000002ec .L0 
C:\Users\Uzair\AppData\Local\Temp\ccCzur1R.s:845    .text.startup.main:00000000000002ec .L0 
C:\Users\Uzair\AppData\Local\Temp\ccCzur1R.s:848    .text.startup.main:00000000000002f0 .L0 
C:\Users\Uzair\AppData\Local\Temp\ccCzur1R.s:851    .text.startup.main:00000000000002f8 .L0 
C:\Users\Uzair\AppData\Local\Temp\ccCzur1R.s:852    .text.startup.main:00000000000002f8 .L0 
C:\Users\Uzair\AppData\Local\Temp\ccCzur1R.s:854    .text.startup.main:00000000000002fc .L0 
C:\Users\Uzair\AppData\Local\Temp\ccCzur1R.s:857    .text.startup.main:0000000000000302 .L0 
C:\Users\Uzair\AppData\Local\Temp\ccCzur1R.s:859    .text.startup.main:0000000000000306 .L0 
C:\Users\Uzair\AppData\Local\Temp\ccCzur1R.s:861    .text.startup.main:000000000000030a .L0 
C:\Users\Uzair\AppData\Local\Temp\ccCzur1R.s:864    .text.startup.main:0000000000000312 .L0 
C:\Users\Uzair\AppData\Local\Temp\ccCzur1R.s:865    .text.startup.main:0000000000000312 .L0 
C:\Users\Uzair\AppData\Local\Temp\ccCzur1R.s:872    .text.startup.main:0000000000000318 .L0 
C:\Users\Uzair\AppData\Local\Temp\ccCzur1R.s:880    .text.startup.main:0000000000000326 .L0 
C:\Users\Uzair\AppData\Local\Temp\ccCzur1R.s:888    .text.startup.main:0000000000000334 .L0 
C:\Users\Uzair\AppData\Local\Temp\ccCzur1R.s:889    .text.startup.main:0000000000000334 .L0 
C:\Users\Uzair\AppData\Local\Temp\ccCzur1R.s:895    .text.startup.main:0000000000000344 .L0 
C:\Users\Uzair\AppData\Local\Temp\ccCzur1R.s:901    .text.startup.main:0000000000000358 .L0 
C:\Users\Uzair\AppData\Local\Temp\ccCzur1R.s:902    .text.startup.main:0000000000000358 .L0 
C:\Users\Uzair\AppData\Local\Temp\ccCzur1R.s:906    .text.startup.main:000000000000035c .L0 
C:\Users\Uzair\AppData\Local\Temp\ccCzur1R.s:911    .rodata:0000000000000000 .LANCHOR2
C:\Users\Uzair\AppData\Local\Temp\ccCzur1R.s:937    .sbss.antal_avvikelser:0000000000000000 .LANCHOR1
C:\Users\Uzair\AppData\Local\Temp\ccCzur1R.s:944    .sbss.millis:0000000000000000 .LANCHOR3
C:\Users\Uzair\AppData\Local\Temp\ccCzur1R.s:951    .sbss.sd_monterad:0000000000000000 .LANCHOR0
C:\Users\Uzair\AppData\Local\Temp\ccCzur1R.s:958    .sbss.senaste_sparning:0000000000000000 .LANCHOR4
C:\Users\Uzair\AppData\Local\Temp\ccCzur1R.s:77     .text.sd_init:0000000000000052 .L0 
C:\Users\Uzair\AppData\Local\Temp\ccCzur1R.s:260    .text.spara_logg:00000000000000f6 .L0 
C:\Users\Uzair\AppData\Local\Temp\ccCzur1R.s:389    .text.interrupt_config:00000000000000e4 .L0 
C:\Users\Uzair\AppData\Local\Temp\ccCzur1R.s:460    .text.TIMER1_IRQHandler:000000000000003e .L0 
C:\Users\Uzair\AppData\Local\Temp\ccCzur1R.s:909    .text.startup.main:000000000000035c .L0 
                     .debug_frame:0000000000000000 .L0 
C:\Users\Uzair\AppData\Local\Temp\ccCzur1R.s:912    .rodata:0000000000000000 .LC0
C:\Users\Uzair\AppData\Local\Temp\ccCzur1R.s:65     .text.sd_init:000000000000004c .L1
C:\Users\Uzair\AppData\Local\Temp\ccCzur1R.s:242    .text.spara_logg:00000000000000f4 .L15
C:\Users\Uzair\AppData\Local\Temp\ccCzur1R.s:181    .text.spara_logg:00000000000000a4 .L4
C:\Users\Uzair\AppData\Local\Temp\ccCzur1R.s:147    .text.spara_logg:000000000000006e .L8
C:\Users\Uzair\AppData\Local\Temp\ccCzur1R.s:205    .text.spara_logg:00000000000000b6 .L10
C:\Users\Uzair\AppData\Local\Temp\ccCzur1R.s:162    .text.spara_logg:0000000000000080 .L9
C:\Users\Uzair\AppData\Local\Temp\ccCzur1R.s:439    .text.TIMER1_IRQHandler:0000000000000038 .L20
C:\Users\Uzair\AppData\Local\Temp\ccCzur1R.s:868    .text.startup.main:0000000000000318 .L25
C:\Users\Uzair\AppData\Local\Temp\ccCzur1R.s:877    .text.startup.main:0000000000000326 .L27
C:\Users\Uzair\AppData\Local\Temp\ccCzur1R.s:607    .text.startup.main:000000000000010a .L26
C:\Users\Uzair\AppData\Local\Temp\ccCzur1R.s:885    .text.startup.main:0000000000000334 .L38
C:\Users\Uzair\AppData\Local\Temp\ccCzur1R.s:839    .text.startup.main:00000000000002e4 .L32
C:\Users\Uzair\AppData\Local\Temp\ccCzur1R.s:829    .text.startup.main:00000000000002d6 .L33
C:\Users\Uzair\AppData\Local\Temp\ccCzur1R.s:509    .text.startup.main:0000000000000024 .L24
C:\Users\Uzair\AppData\Local\Temp\ccCzur1R.s:701    .text.startup.main:00000000000001c8 .L28
C:\Users\Uzair\AppData\Local\Temp\ccCzur1R.s:7278   .debug_abbrev:0000000000000000 .Ldebug_abbrev0
C:\Users\Uzair\AppData\Local\Temp\ccCzur1R.s:8773   .debug_str:000000000000030f .LASF578
C:\Users\Uzair\AppData\Local\Temp\ccCzur1R.s:9265   .debug_str:0000000000000f0e .LASF579
C:\Users\Uzair\AppData\Local\Temp\ccCzur1R.s:9347   .debug_str:0000000000001102 .LASF580
GAS LISTING C:\Users\Uzair\AppData\Local\Temp\ccCzur1R.s 			page 32


C:\Users\Uzair\AppData\Local\Temp\ccCzur1R.s:8587   .debug_ranges:0000000000000000 .Ldebug_ranges0
C:\Users\Uzair\AppData\Local\Temp\ccCzur1R.s:8643   .debug_line:0000000000000000 .Ldebug_line0
C:\Users\Uzair\AppData\Local\Temp\ccCzur1R.s:9263   .debug_str:0000000000000f07 .LASF0
C:\Users\Uzair\AppData\Local\Temp\ccCzur1R.s:9299   .debug_str:0000000000000fde .LASF1
C:\Users\Uzair\AppData\Local\Temp\ccCzur1R.s:9311   .debug_str:0000000000001028 .LASF2
C:\Users\Uzair\AppData\Local\Temp\ccCzur1R.s:9747   .debug_str:0000000000001a1f .LASF3
C:\Users\Uzair\AppData\Local\Temp\ccCzur1R.s:9233   .debug_str:0000000000000e62 .LASF4
C:\Users\Uzair\AppData\Local\Temp\ccCzur1R.s:9409   .debug_str:00000000000012d0 .LASF5
C:\Users\Uzair\AppData\Local\Temp\ccCzur1R.s:9553   .debug_str:00000000000015ce .LASF7
C:\Users\Uzair\AppData\Local\Temp\ccCzur1R.s:8903   .debug_str:000000000000066d .LASF6
C:\Users\Uzair\AppData\Local\Temp\ccCzur1R.s:8807   .debug_str:000000000000044b .LASF8
C:\Users\Uzair\AppData\Local\Temp\ccCzur1R.s:8923   .debug_str:000000000000070c .LASF9
C:\Users\Uzair\AppData\Local\Temp\ccCzur1R.s:9613   .debug_str:0000000000001724 .LASF10
C:\Users\Uzair\AppData\Local\Temp\ccCzur1R.s:9007   .debug_str:00000000000008fa .LASF11
C:\Users\Uzair\AppData\Local\Temp\ccCzur1R.s:8835   .debug_str:00000000000004e0 .LASF12
C:\Users\Uzair\AppData\Local\Temp\ccCzur1R.s:9225   .debug_str:0000000000000e3a .LASF13
C:\Users\Uzair\AppData\Local\Temp\ccCzur1R.s:9127   .debug_str:0000000000000bd9 .LASF14
C:\Users\Uzair\AppData\Local\Temp\ccCzur1R.s:9459   .debug_str:00000000000013df .LASF15
C:\Users\Uzair\AppData\Local\Temp\ccCzur1R.s:9731   .debug_str:00000000000019c7 .LASF16
C:\Users\Uzair\AppData\Local\Temp\ccCzur1R.s:9441   .debug_str:0000000000001381 .LASF17
C:\Users\Uzair\AppData\Local\Temp\ccCzur1R.s:8661   .debug_str:000000000000007c .LASF18
C:\Users\Uzair\AppData\Local\Temp\ccCzur1R.s:8805   .debug_str:0000000000000445 .LASF19
C:\Users\Uzair\AppData\Local\Temp\ccCzur1R.s:9443   .debug_str:0000000000001389 .LASF20
C:\Users\Uzair\AppData\Local\Temp\ccCzur1R.s:9379   .debug_str:00000000000011e9 .LASF21
C:\Users\Uzair\AppData\Local\Temp\ccCzur1R.s:8669   .debug_str:00000000000000ab .LASF22
C:\Users\Uzair\AppData\Local\Temp\ccCzur1R.s:9535   .debug_str:000000000000157d .LASF23
C:\Users\Uzair\AppData\Local\Temp\ccCzur1R.s:9699   .debug_str:0000000000001922 .LASF24
C:\Users\Uzair\AppData\Local\Temp\ccCzur1R.s:9159   .debug_str:0000000000000ca7 .LASF25
C:\Users\Uzair\AppData\Local\Temp\ccCzur1R.s:9519   .debug_str:0000000000001536 .LASF26
C:\Users\Uzair\AppData\Local\Temp\ccCzur1R.s:9179   .debug_str:0000000000000d0d .LASF31
C:\Users\Uzair\AppData\Local\Temp\ccCzur1R.s:9561   .debug_str:0000000000001600 .LASF27
C:\Users\Uzair\AppData\Local\Temp\ccCzur1R.s:9189   .debug_str:0000000000000d4f .LASF28
C:\Users\Uzair\AppData\Local\Temp\ccCzur1R.s:9289   .debug_str:0000000000000f9e .LASF29
C:\Users\Uzair\AppData\Local\Temp\ccCzur1R.s:9075   .debug_str:0000000000000a8e .LASF30
C:\Users\Uzair\AppData\Local\Temp\ccCzur1R.s:8721   .debug_str:00000000000001da .LASF32
C:\Users\Uzair\AppData\Local\Temp\ccCzur1R.s:8727   .debug_str:00000000000001f6 .LASF33
C:\Users\Uzair\AppData\Local\Temp\ccCzur1R.s:9797   .debug_str:0000000000001b41 .LASF34
C:\Users\Uzair\AppData\Local\Temp\ccCzur1R.s:9751   .debug_str:0000000000001a3b .LASF35
C:\Users\Uzair\AppData\Local\Temp\ccCzur1R.s:9341   .debug_str:00000000000010e6 .LASF36
C:\Users\Uzair\AppData\Local\Temp\ccCzur1R.s:8875   .debug_str:00000000000005c7 .LASF37
C:\Users\Uzair\AppData\Local\Temp\ccCzur1R.s:9643   .debug_str:00000000000017c4 .LASF38
C:\Users\Uzair\AppData\Local\Temp\ccCzur1R.s:9405   .debug_str:00000000000012bb .LASF39
C:\Users\Uzair\AppData\Local\Temp\ccCzur1R.s:9415   .debug_str:00000000000012ed .LASF40
C:\Users\Uzair\AppData\Local\Temp\ccCzur1R.s:9781   .debug_str:0000000000001af6 .LASF41
C:\Users\Uzair\AppData\Local\Temp\ccCzur1R.s:8819   .debug_str:000000000000048d .LASF42
C:\Users\Uzair\AppData\Local\Temp\ccCzur1R.s:9777   .debug_str:0000000000001ae2 .LASF43
C:\Users\Uzair\AppData\Local\Temp\ccCzur1R.s:9469   .debug_str:000000000000141c .LASF44
C:\Users\Uzair\AppData\Local\Temp\ccCzur1R.s:9633   .debug_str:000000000000178e .LASF45
C:\Users\Uzair\AppData\Local\Temp\ccCzur1R.s:9675   .debug_str:0000000000001881 .LASF46
C:\Users\Uzair\AppData\Local\Temp\ccCzur1R.s:9369   .debug_str:00000000000011b5 .LASF47
C:\Users\Uzair\AppData\Local\Temp\ccCzur1R.s:9665   .debug_str:0000000000001845 .LASF48
C:\Users\Uzair\AppData\Local\Temp\ccCzur1R.s:8995   .debug_str:00000000000008c4 .LASF49
C:\Users\Uzair\AppData\Local\Temp\ccCzur1R.s:9673   .debug_str:000000000000187a .LASF50
C:\Users\Uzair\AppData\Local\Temp\ccCzur1R.s:9499   .debug_str:00000000000014c0 .LASF51
C:\Users\Uzair\AppData\Local\Temp\ccCzur1R.s:8843   .debug_str:0000000000000505 .LASF52
C:\Users\Uzair\AppData\Local\Temp\ccCzur1R.s:9141   .debug_str:0000000000000c40 .LASF53
C:\Users\Uzair\AppData\Local\Temp\ccCzur1R.s:9365   .debug_str:00000000000011a3 .LASF54
GAS LISTING C:\Users\Uzair\AppData\Local\Temp\ccCzur1R.s 			page 33


C:\Users\Uzair\AppData\Local\Temp\ccCzur1R.s:8817   .debug_str:0000000000000487 .LASF55
C:\Users\Uzair\AppData\Local\Temp\ccCzur1R.s:9661   .debug_str:0000000000001837 .LASF56
C:\Users\Uzair\AppData\Local\Temp\ccCzur1R.s:9071   .debug_str:0000000000000a7e .LASF57
C:\Users\Uzair\AppData\Local\Temp\ccCzur1R.s:8685   .debug_str:00000000000000fc .LASF58
C:\Users\Uzair\AppData\Local\Temp\ccCzur1R.s:8691   .debug_str:0000000000000132 .LASF59
C:\Users\Uzair\AppData\Local\Temp\ccCzur1R.s:9435   .debug_str:0000000000001356 .LASF60
C:\Users\Uzair\AppData\Local\Temp\ccCzur1R.s:8997   .debug_str:00000000000008c9 .LASF61
C:\Users\Uzair\AppData\Local\Temp\ccCzur1R.s:9349   .debug_str:0000000000001156 .LASF62
C:\Users\Uzair\AppData\Local\Temp\ccCzur1R.s:8725   .debug_str:00000000000001f0 .LASF63
C:\Users\Uzair\AppData\Local\Temp\ccCzur1R.s:9489   .debug_str:0000000000001489 .LASF64
C:\Users\Uzair\AppData\Local\Temp\ccCzur1R.s:9093   .debug_str:0000000000000b0f .LASF65
C:\Users\Uzair\AppData\Local\Temp\ccCzur1R.s:9565   .debug_str:000000000000160e .LASF66
C:\Users\Uzair\AppData\Local\Temp\ccCzur1R.s:8767   .debug_str:00000000000002f2 .LASF67
C:\Users\Uzair\AppData\Local\Temp\ccCzur1R.s:9357   .debug_str:0000000000001177 .LASF68
C:\Users\Uzair\AppData\Local\Temp\ccCzur1R.s:9145   .debug_str:0000000000000c53 .LASF69
C:\Users\Uzair\AppData\Local\Temp\ccCzur1R.s:8955   .debug_str:00000000000007bd .LASF70
C:\Users\Uzair\AppData\Local\Temp\ccCzur1R.s:9167   .debug_str:0000000000000cce .LASF71
C:\Users\Uzair\AppData\Local\Temp\ccCzur1R.s:9017   .debug_str:0000000000000941 .LASF72
C:\Users\Uzair\AppData\Local\Temp\ccCzur1R.s:9477   .debug_str:000000000000143d .LASF73
C:\Users\Uzair\AppData\Local\Temp\ccCzur1R.s:9353   .debug_str:0000000000001161 .LASF74
C:\Users\Uzair\AppData\Local\Temp\ccCzur1R.s:9663   .debug_str:0000000000001840 .LASF75
C:\Users\Uzair\AppData\Local\Temp\ccCzur1R.s:9227   .debug_str:0000000000000e45 .LASF76
C:\Users\Uzair\AppData\Local\Temp\ccCzur1R.s:8941   .debug_str:0000000000000774 .LASF77
C:\Users\Uzair\AppData\Local\Temp\ccCzur1R.s:9697   .debug_str:000000000000191a .LASF78
C:\Users\Uzair\AppData\Local\Temp\ccCzur1R.s:9143   .debug_str:0000000000000c48 .LASF79
C:\Users\Uzair\AppData\Local\Temp\ccCzur1R.s:9199   .debug_str:0000000000000d88 .LASF80
C:\Users\Uzair\AppData\Local\Temp\ccCzur1R.s:9713   .debug_str:000000000000196a .LASF81
C:\Users\Uzair\AppData\Local\Temp\ccCzur1R.s:8841   .debug_str:00000000000004fb .LASF82
C:\Users\Uzair\AppData\Local\Temp\ccCzur1R.s:9125   .debug_str:0000000000000bd4 .LASF83
C:\Users\Uzair\AppData\Local\Temp\ccCzur1R.s:9281   .debug_str:0000000000000f7a .LASF84
C:\Users\Uzair\AppData\Local\Temp\ccCzur1R.s:8701   .debug_str:000000000000016f .LASF85
C:\Users\Uzair\AppData\Local\Temp\ccCzur1R.s:9097   .debug_str:0000000000000b22 .LASF86
C:\Users\Uzair\AppData\Local\Temp\ccCzur1R.s:9485   .debug_str:0000000000001473 .LASF87
C:\Users\Uzair\AppData\Local\Temp\ccCzur1R.s:9201   .debug_str:0000000000000d92 .LASF88
C:\Users\Uzair\AppData\Local\Temp\ccCzur1R.s:9083   .debug_str:0000000000000ab7 .LASF89
C:\Users\Uzair\AppData\Local\Temp\ccCzur1R.s:9255   .debug_str:0000000000000ed9 .LASF90
C:\Users\Uzair\AppData\Local\Temp\ccCzur1R.s:8675   .debug_str:00000000000000c7 .LASF91
C:\Users\Uzair\AppData\Local\Temp\ccCzur1R.s:8989   .debug_str:000000000000089b .LASF92
C:\Users\Uzair\AppData\Local\Temp\ccCzur1R.s:9525   .debug_str:0000000000001551 .LASF93
C:\Users\Uzair\AppData\Local\Temp\ccCzur1R.s:9287   .debug_str:0000000000000f98 .LASF94
C:\Users\Uzair\AppData\Local\Temp\ccCzur1R.s:9247   .debug_str:0000000000000eab .LASF95
C:\Users\Uzair\AppData\Local\Temp\ccCzur1R.s:9283   .debug_str:0000000000000f84 .LASF96
C:\Users\Uzair\AppData\Local\Temp\ccCzur1R.s:9475   .debug_str:0000000000001435 .LASF97
C:\Users\Uzair\AppData\Local\Temp\ccCzur1R.s:9427   .debug_str:0000000000001328 .LASF98
C:\Users\Uzair\AppData\Local\Temp\ccCzur1R.s:8777   .debug_str:00000000000003a5 .LASF99
C:\Users\Uzair\AppData\Local\Temp\ccCzur1R.s:9737   .debug_str:00000000000019ea .LASF100
C:\Users\Uzair\AppData\Local\Temp\ccCzur1R.s:8901   .debug_str:0000000000000660 .LASF101
C:\Users\Uzair\AppData\Local\Temp\ccCzur1R.s:9505   .debug_str:00000000000014d8 .LASF102
C:\Users\Uzair\AppData\Local\Temp\ccCzur1R.s:8699   .debug_str:0000000000000162 .LASF103
C:\Users\Uzair\AppData\Local\Temp\ccCzur1R.s:8855   .debug_str:0000000000000557 .LASF104
C:\Users\Uzair\AppData\Local\Temp\ccCzur1R.s:9271   .debug_str:0000000000000f31 .LASF105
C:\Users\Uzair\AppData\Local\Temp\ccCzur1R.s:9361   .debug_str:000000000000118f .LASF106
C:\Users\Uzair\AppData\Local\Temp\ccCzur1R.s:9543   .debug_str:00000000000015a8 .LASF107
C:\Users\Uzair\AppData\Local\Temp\ccCzur1R.s:9609   .debug_str:000000000000170e .LASF108
C:\Users\Uzair\AppData\Local\Temp\ccCzur1R.s:9451   .debug_str:00000000000013b7 .LASF109
C:\Users\Uzair\AppData\Local\Temp\ccCzur1R.s:9355   .debug_str:0000000000001169 .LASF110
C:\Users\Uzair\AppData\Local\Temp\ccCzur1R.s:8737   .debug_str:000000000000022b .LASF111
GAS LISTING C:\Users\Uzair\AppData\Local\Temp\ccCzur1R.s 			page 34


C:\Users\Uzair\AppData\Local\Temp\ccCzur1R.s:9173   .debug_str:0000000000000ced .LASF112
C:\Users\Uzair\AppData\Local\Temp\ccCzur1R.s:9799   .debug_str:0000000000001b4a .LASF113
C:\Users\Uzair\AppData\Local\Temp\ccCzur1R.s:8833   .debug_str:00000000000004d2 .LASF114
C:\Users\Uzair\AppData\Local\Temp\ccCzur1R.s:9513   .debug_str:0000000000001507 .LASF115
C:\Users\Uzair\AppData\Local\Temp\ccCzur1R.s:9763   .debug_str:0000000000001a7e .LASF116
C:\Users\Uzair\AppData\Local\Temp\ccCzur1R.s:9335   .debug_str:00000000000010c9 .LASF117
C:\Users\Uzair\AppData\Local\Temp\ccCzur1R.s:8723   .debug_str:00000000000001df .LASF118
C:\Users\Uzair\AppData\Local\Temp\ccCzur1R.s:9323   .debug_str:000000000000107c .LASF119
C:\Users\Uzair\AppData\Local\Temp\ccCzur1R.s:9681   .debug_str:000000000000189f .LASF120
C:\Users\Uzair\AppData\Local\Temp\ccCzur1R.s:9261   .debug_str:0000000000000efe .LASF121
C:\Users\Uzair\AppData\Local\Temp\ccCzur1R.s:8719   .debug_str:00000000000001d2 .LASF122
C:\Users\Uzair\AppData\Local\Temp\ccCzur1R.s:8667   .debug_str:00000000000000a0 .LASF581
C:\Users\Uzair\AppData\Local\Temp\ccCzur1R.s:8837   .debug_str:00000000000004e9 .LASF123
C:\Users\Uzair\AppData\Local\Temp\ccCzur1R.s:8959   .debug_str:00000000000007d1 .LASF124
C:\Users\Uzair\AppData\Local\Temp\ccCzur1R.s:9487   .debug_str:0000000000001478 .LASF128
C:\Users\Uzair\AppData\Local\Temp\ccCzur1R.s:9671   .debug_str:000000000000186c .LASF125
C:\Users\Uzair\AppData\Local\Temp\ccCzur1R.s:9597   .debug_str:00000000000016a9 .LASF126
C:\Users\Uzair\AppData\Local\Temp\ccCzur1R.s:9119   .debug_str:0000000000000bb2 .LASF127
C:\Users\Uzair\AppData\Local\Temp\ccCzur1R.s:8867   .debug_str:0000000000000596 .LASF129
C:\Users\Uzair\AppData\Local\Temp\ccCzur1R.s:9315   .debug_str:0000000000001041 .LASF130
C:\Users\Uzair\AppData\Local\Temp\ccCzur1R.s:9803   .debug_str:0000000000001b62 .LASF131
C:\Users\Uzair\AppData\Local\Temp\ccCzur1R.s:9137   .debug_str:0000000000000c24 .LASF132
C:\Users\Uzair\AppData\Local\Temp\ccCzur1R.s:8887   .debug_str:000000000000060f .LASF133
C:\Users\Uzair\AppData\Local\Temp\ccCzur1R.s:9419   .debug_str:00000000000012fc .LASF134
C:\Users\Uzair\AppData\Local\Temp\ccCzur1R.s:9575   .debug_str:000000000000163e .LASF135
C:\Users\Uzair\AppData\Local\Temp\ccCzur1R.s:9687   .debug_str:00000000000018de .LASF136
C:\Users\Uzair\AppData\Local\Temp\ccCzur1R.s:8857   .debug_str:0000000000000566 .LASF137
C:\Users\Uzair\AppData\Local\Temp\ccCzur1R.s:9805   .debug_str:0000000000001b6f .LASF138
C:\Users\Uzair\AppData\Local\Temp\ccCzur1R.s:9453   .debug_str:00000000000013c5 .LASF139
C:\Users\Uzair\AppData\Local\Temp\ccCzur1R.s:9587   .debug_str:0000000000001679 .LASF140
C:\Users\Uzair\AppData\Local\Temp\ccCzur1R.s:9571   .debug_str:000000000000162c .LASF141
C:\Users\Uzair\AppData\Local\Temp\ccCzur1R.s:9099   .debug_str:0000000000000b2a .LASF142
C:\Users\Uzair\AppData\Local\Temp\ccCzur1R.s:8653   .debug_str:000000000000002f .LASF143
C:\Users\Uzair\AppData\Local\Temp\ccCzur1R.s:9759   .debug_str:0000000000001a6c .LASF144
C:\Users\Uzair\AppData\Local\Temp\ccCzur1R.s:9743   .debug_str:0000000000001a01 .LASF145
C:\Users\Uzair\AppData\Local\Temp\ccCzur1R.s:8809   .debug_str:0000000000000455 .LASF146
C:\Users\Uzair\AppData\Local\Temp\ccCzur1R.s:8745   .debug_str:0000000000000251 .LASF147
C:\Users\Uzair\AppData\Local\Temp\ccCzur1R.s:9449   .debug_str:00000000000013a4 .LASF148
C:\Users\Uzair\AppData\Local\Temp\ccCzur1R.s:9013   .debug_str:0000000000000924 .LASF149
C:\Users\Uzair\AppData\Local\Temp\ccCzur1R.s:8931   .debug_str:000000000000073c .LASF150
C:\Users\Uzair\AppData\Local\Temp\ccCzur1R.s:9647   .debug_str:00000000000017d7 .LASF151
C:\Users\Uzair\AppData\Local\Temp\ccCzur1R.s:9181   .debug_str:0000000000000d15 .LASF152
C:\Users\Uzair\AppData\Local\Temp\ccCzur1R.s:8987   .debug_str:000000000000088f .LASF153
C:\Users\Uzair\AppData\Local\Temp\ccCzur1R.s:8865   .debug_str:0000000000000589 .LASF154
C:\Users\Uzair\AppData\Local\Temp\ccCzur1R.s:9197   .debug_str:0000000000000d7a .LASF155
C:\Users\Uzair\AppData\Local\Temp\ccCzur1R.s:8775   .debug_str:0000000000000397 .LASF156
C:\Users\Uzair\AppData\Local\Temp\ccCzur1R.s:9615   .debug_str:000000000000172e .LASF157
C:\Users\Uzair\AppData\Local\Temp\ccCzur1R.s:9605   .debug_str:00000000000016de .LASF158
C:\Users\Uzair\AppData\Local\Temp\ccCzur1R.s:8681   .debug_str:00000000000000df .LASF159
C:\Users\Uzair\AppData\Local\Temp\ccCzur1R.s:9625   .debug_str:000000000000175b .LASF160
C:\Users\Uzair\AppData\Local\Temp\ccCzur1R.s:9669   .debug_str:0000000000001858 .LASF161
C:\Users\Uzair\AppData\Local\Temp\ccCzur1R.s:9221   .debug_str:0000000000000e1c .LASF162
C:\Users\Uzair\AppData\Local\Temp\ccCzur1R.s:9811   .debug_str:0000000000001b8b .LASF163
C:\Users\Uzair\AppData\Local\Temp\ccCzur1R.s:8791   .debug_str:0000000000000400 .LASF164
C:\Users\Uzair\AppData\Local\Temp\ccCzur1R.s:9497   .debug_str:00000000000014b4 .LASF165
C:\Users\Uzair\AppData\Local\Temp\ccCzur1R.s:9629   .debug_str:0000000000001776 .LASF166
C:\Users\Uzair\AppData\Local\Temp\ccCzur1R.s:8683   .debug_str:00000000000000ef .LASF167
GAS LISTING C:\Users\Uzair\AppData\Local\Temp\ccCzur1R.s 			page 35


C:\Users\Uzair\AppData\Local\Temp\ccCzur1R.s:9057   .debug_str:0000000000000a3d .LASF168
C:\Users\Uzair\AppData\Local\Temp\ccCzur1R.s:8951   .debug_str:00000000000007a8 .LASF169
C:\Users\Uzair\AppData\Local\Temp\ccCzur1R.s:9693   .debug_str:0000000000001904 .LASF170
C:\Users\Uzair\AppData\Local\Temp\ccCzur1R.s:9253   .debug_str:0000000000000ecf .LASF171
C:\Users\Uzair\AppData\Local\Temp\ccCzur1R.s:9397   .debug_str:0000000000001269 .LASF172
C:\Users\Uzair\AppData\Local\Temp\ccCzur1R.s:9479   .debug_str:0000000000001445 .LASF173
C:\Users\Uzair\AppData\Local\Temp\ccCzur1R.s:9039   .debug_str:00000000000009ce .LASF174
C:\Users\Uzair\AppData\Local\Temp\ccCzur1R.s:9029   .debug_str:000000000000098e .LASF175
C:\Users\Uzair\AppData\Local\Temp\ccCzur1R.s:9557   .debug_str:00000000000015df .LASF176
C:\Users\Uzair\AppData\Local\Temp\ccCzur1R.s:9257   .debug_str:0000000000000ee1 .LASF177
C:\Users\Uzair\AppData\Local\Temp\ccCzur1R.s:8715   .debug_str:00000000000001be .LASF178
C:\Users\Uzair\AppData\Local\Temp\ccCzur1R.s:9433   .debug_str:000000000000134a .LASF179
C:\Users\Uzair\AppData\Local\Temp\ccCzur1R.s:8813   .debug_str:000000000000046d .LASF180
C:\Users\Uzair\AppData\Local\Temp\ccCzur1R.s:9733   .debug_str:00000000000019ce .LASF181
C:\Users\Uzair\AppData\Local\Temp\ccCzur1R.s:9295   .debug_str:0000000000000fb9 .LASF182
C:\Users\Uzair\AppData\Local\Temp\ccCzur1R.s:9001   .debug_str:00000000000008db .LASF183
C:\Users\Uzair\AppData\Local\Temp\ccCzur1R.s:9695   .debug_str:000000000000190e .LASF184
C:\Users\Uzair\AppData\Local\Temp\ccCzur1R.s:9399   .debug_str:0000000000001275 .LASF185
C:\Users\Uzair\AppData\Local\Temp\ccCzur1R.s:8971   .debug_str:000000000000081d .LASF186
C:\Users\Uzair\AppData\Local\Temp\ccCzur1R.s:9493   .debug_str:000000000000149a .LASF187
C:\Users\Uzair\AppData\Local\Temp\ccCzur1R.s:9603   .debug_str:00000000000016cb .LASF188
C:\Users\Uzair\AppData\Local\Temp\ccCzur1R.s:9745   .debug_str:0000000000001a0c .LASF189
C:\Users\Uzair\AppData\Local\Temp\ccCzur1R.s:9101   .debug_str:0000000000000b35 .LASF190
C:\Users\Uzair\AppData\Local\Temp\ccCzur1R.s:9011   .debug_str:0000000000000916 .LASF191
C:\Users\Uzair\AppData\Local\Temp\ccCzur1R.s:9715   .debug_str:0000000000001972 .LASF192
C:\Users\Uzair\AppData\Local\Temp\ccCzur1R.s:8803   .debug_str:0000000000000436 .LASF193
C:\Users\Uzair\AppData\Local\Temp\ccCzur1R.s:9809   .debug_str:0000000000001b80 .LASF194
C:\Users\Uzair\AppData\Local\Temp\ccCzur1R.s:9279   .debug_str:0000000000000f65 .LASF195
C:\Users\Uzair\AppData\Local\Temp\ccCzur1R.s:8905   .debug_str:0000000000000679 .LASF196
C:\Users\Uzair\AppData\Local\Temp\ccCzur1R.s:9467   .debug_str:0000000000001413 .LASF197
C:\Users\Uzair\AppData\Local\Temp\ccCzur1R.s:9701   .debug_str:000000000000192a .LASF198
C:\Users\Uzair\AppData\Local\Temp\ccCzur1R.s:9147   .debug_str:0000000000000c5b .LASF199
C:\Users\Uzair\AppData\Local\Temp\ccCzur1R.s:9531   .debug_str:0000000000001570 .LASF200
C:\Users\Uzair\AppData\Local\Temp\ccCzur1R.s:9545   .debug_str:00000000000015ad .LASF201
C:\Users\Uzair\AppData\Local\Temp\ccCzur1R.s:9547   .debug_str:00000000000015b6 .LASF202
C:\Users\Uzair\AppData\Local\Temp\ccCzur1R.s:9317   .debug_str:0000000000001053 .LASF203
C:\Users\Uzair\AppData\Local\Temp\ccCzur1R.s:9679   .debug_str:0000000000001896 .LASF204
C:\Users\Uzair\AppData\Local\Temp\ccCzur1R.s:9193   .debug_str:0000000000000d68 .LASF205
C:\Users\Uzair\AppData\Local\Temp\ccCzur1R.s:8731   .debug_str:000000000000020a .LASF206
C:\Users\Uzair\AppData\Local\Temp\ccCzur1R.s:8733   .debug_str:0000000000000215 .LASF207
C:\Users\Uzair\AppData\Local\Temp\ccCzur1R.s:8735   .debug_str:0000000000000220 .LASF208
C:\Users\Uzair\AppData\Local\Temp\ccCzur1R.s:9507   .debug_str:00000000000014e5 .LASF209
C:\Users\Uzair\AppData\Local\Temp\ccCzur1R.s:8739   .debug_str:0000000000000235 .LASF210
C:\Users\Uzair\AppData\Local\Temp\ccCzur1R.s:8741   .debug_str:0000000000000240 .LASF211
C:\Users\Uzair\AppData\Local\Temp\ccCzur1R.s:9375   .debug_str:00000000000011ce .LASF212
C:\Users\Uzair\AppData\Local\Temp\ccCzur1R.s:8895   .debug_str:0000000000000647 .LASF213
C:\Users\Uzair\AppData\Local\Temp\ccCzur1R.s:8897   .debug_str:0000000000000650 .LASF214
C:\Users\Uzair\AppData\Local\Temp\ccCzur1R.s:8757   .debug_str:00000000000002c2 .LASF215
C:\Users\Uzair\AppData\Local\Temp\ccCzur1R.s:8759   .debug_str:00000000000002cd .LASF216
C:\Users\Uzair\AppData\Local\Temp\ccCzur1R.s:8709   .debug_str:0000000000000190 .LASF217
C:\Users\Uzair\AppData\Local\Temp\ccCzur1R.s:8711   .debug_str:000000000000019a .LASF218
C:\Users\Uzair\AppData\Local\Temp\ccCzur1R.s:9705   .debug_str:0000000000001945 .LASF219
C:\Users\Uzair\AppData\Local\Temp\ccCzur1R.s:9707   .debug_str:000000000000194e .LASF220
C:\Users\Uzair\AppData\Local\Temp\ccCzur1R.s:8977   .debug_str:0000000000000849 .LASF221
C:\Users\Uzair\AppData\Local\Temp\ccCzur1R.s:8979   .debug_str:0000000000000852 .LASF222
C:\Users\Uzair\AppData\Local\Temp\ccCzur1R.s:9645   .debug_str:00000000000017ce .LASF223
C:\Users\Uzair\AppData\Local\Temp\ccCzur1R.s:8689   .debug_str:000000000000012a .LASF224
GAS LISTING C:\Users\Uzair\AppData\Local\Temp\ccCzur1R.s 			page 36


C:\Users\Uzair\AppData\Local\Temp\ccCzur1R.s:8907   .debug_str:0000000000000681 .LASF225
C:\Users\Uzair\AppData\Local\Temp\ccCzur1R.s:9421   .debug_str:000000000000130b .LASF226
C:\Users\Uzair\AppData\Local\Temp\ccCzur1R.s:9157   .debug_str:0000000000000ca0 .LASF227
C:\Users\Uzair\AppData\Local\Temp\ccCzur1R.s:9237   .debug_str:0000000000000e79 .LASF228
C:\Users\Uzair\AppData\Local\Temp\ccCzur1R.s:9239   .debug_str:0000000000000e83 .LASF229
C:\Users\Uzair\AppData\Local\Temp\ccCzur1R.s:9241   .debug_str:0000000000000e8d .LASF230
C:\Users\Uzair\AppData\Local\Temp\ccCzur1R.s:9243   .debug_str:0000000000000e97 .LASF231
C:\Users\Uzair\AppData\Local\Temp\ccCzur1R.s:9245   .debug_str:0000000000000ea1 .LASF232
C:\Users\Uzair\AppData\Local\Temp\ccCzur1R.s:9229   .debug_str:0000000000000e50 .LASF233
C:\Users\Uzair\AppData\Local\Temp\ccCzur1R.s:9231   .debug_str:0000000000000e59 .LASF234
C:\Users\Uzair\AppData\Local\Temp\ccCzur1R.s:8729   .debug_str:00000000000001ff .LASF235
C:\Users\Uzair\AppData\Local\Temp\ccCzur1R.s:8893   .debug_str:000000000000063e .LASF236
C:\Users\Uzair\AppData\Local\Temp\ccCzur1R.s:8755   .debug_str:00000000000002b7 .LASF237
C:\Users\Uzair\AppData\Local\Temp\ccCzur1R.s:9121   .debug_str:0000000000000bc2 .LASF238
C:\Users\Uzair\AppData\Local\Temp\ccCzur1R.s:9207   .debug_str:0000000000000da9 .LASF239
C:\Users\Uzair\AppData\Local\Temp\ccCzur1R.s:9183   .debug_str:0000000000000d28 .LASF240
C:\Users\Uzair\AppData\Local\Temp\ccCzur1R.s:9523   .debug_str:000000000000154a .LASF241
C:\Users\Uzair\AppData\Local\Temp\ccCzur1R.s:8985   .debug_str:0000000000000881 .LASF242
C:\Users\Uzair\AppData\Local\Temp\ccCzur1R.s:8787   .debug_str:00000000000003e5 .LASF243
C:\Users\Uzair\AppData\Local\Temp\ccCzur1R.s:9307   .debug_str:000000000000100c .LASF244
C:\Users\Uzair\AppData\Local\Temp\ccCzur1R.s:9187   .debug_str:0000000000000d43 .LASF245
C:\Users\Uzair\AppData\Local\Temp\ccCzur1R.s:9291   .debug_str:0000000000000fa4 .LASF246
C:\Users\Uzair\AppData\Local\Temp\ccCzur1R.s:8999   .debug_str:00000000000008d0 .LASF247
C:\Users\Uzair\AppData\Local\Temp\ccCzur1R.s:9719   .debug_str:000000000000198a .LASF248
C:\Users\Uzair\AppData\Local\Temp\ccCzur1R.s:8677   .debug_str:00000000000000cc .LASF249
C:\Users\Uzair\AppData\Local\Temp\ccCzur1R.s:9343   .debug_str:00000000000010f0 .LASF250
C:\Users\Uzair\AppData\Local\Temp\ccCzur1R.s:9117   .debug_str:0000000000000b98 .LASF251
C:\Users\Uzair\AppData\Local\Temp\ccCzur1R.s:8763   .debug_str:00000000000002de .LASF252
C:\Users\Uzair\AppData\Local\Temp\ccCzur1R.s:9025   .debug_str:000000000000097f .LASF253
C:\Users\Uzair\AppData\Local\Temp\ccCzur1R.s:8811   .debug_str:0000000000000468 .LASF254
C:\Users\Uzair\AppData\Local\Temp\ccCzur1R.s:9417   .debug_str:00000000000012f7 .LASF255
C:\Users\Uzair\AppData\Local\Temp\ccCzur1R.s:9383   .debug_str:00000000000011fe .LASF256
C:\Users\Uzair\AppData\Local\Temp\ccCzur1R.s:9021   .debug_str:0000000000000967 .LASF257
C:\Users\Uzair\AppData\Local\Temp\ccCzur1R.s:8945   .debug_str:0000000000000794 .LASF258
C:\Users\Uzair\AppData\Local\Temp\ccCzur1R.s:9345   .debug_str:00000000000010fd .LASF259
C:\Users\Uzair\AppData\Local\Temp\ccCzur1R.s:9373   .debug_str:00000000000011c7 .LASF260
C:\Users\Uzair\AppData\Local\Temp\ccCzur1R.s:9785   .debug_str:0000000000001b0d .LASF261
C:\Users\Uzair\AppData\Local\Temp\ccCzur1R.s:9329   .debug_str:000000000000109d .LASF262
C:\Users\Uzair\AppData\Local\Temp\ccCzur1R.s:9445   .debug_str:0000000000001390 .LASF263
C:\Users\Uzair\AppData\Local\Temp\ccCzur1R.s:9411   .debug_str:00000000000012dc .LASF264
C:\Users\Uzair\AppData\Local\Temp\ccCzur1R.s:8797   .debug_str:000000000000041d .LASF265
C:\Users\Uzair\AppData\Local\Temp\ccCzur1R.s:9085   .debug_str:0000000000000ac1 .LASF266
C:\Users\Uzair\AppData\Local\Temp\ccCzur1R.s:9003   .debug_str:00000000000008e7 .LASF267
C:\Users\Uzair\AppData\Local\Temp\ccCzur1R.s:8761   .debug_str:00000000000002d8 .LASF268
C:\Users\Uzair\AppData\Local\Temp\ccCzur1R.s:9503   .debug_str:00000000000014d0 .LASF269
C:\Users\Uzair\AppData\Local\Temp\ccCzur1R.s:9171   .debug_str:0000000000000ce5 .LASF270
C:\Users\Uzair\AppData\Local\Temp\ccCzur1R.s:8935   .debug_str:000000000000075e .LASF271
C:\Users\Uzair\AppData\Local\Temp\ccCzur1R.s:9455   .debug_str:00000000000013ce .LASF272
C:\Users\Uzair\AppData\Local\Temp\ccCzur1R.s:8651   .debug_str:0000000000000027 .LASF273
C:\Users\Uzair\AppData\Local\Temp\ccCzur1R.s:9621   .debug_str:000000000000174c .LASF274
C:\Users\Uzair\AppData\Local\Temp\ccCzur1R.s:9161   .debug_str:0000000000000cb9 .LASF275
C:\Users\Uzair\AppData\Local\Temp\ccCzur1R.s:9203   .debug_str:0000000000000d9b .LASF276
C:\Users\Uzair\AppData\Local\Temp\ccCzur1R.s:9533   .debug_str:0000000000001576 .LASF277
C:\Users\Uzair\AppData\Local\Temp\ccCzur1R.s:9617   .debug_str:000000000000173d .LASF278
C:\Users\Uzair\AppData\Local\Temp\ccCzur1R.s:8909   .debug_str:0000000000000689 .LASF279
C:\Users\Uzair\AppData\Local\Temp\ccCzur1R.s:9337   .debug_str:00000000000010d8 .LASF280
C:\Users\Uzair\AppData\Local\Temp\ccCzur1R.s:9351   .debug_str:000000000000115c .LASF281
GAS LISTING C:\Users\Uzair\AppData\Local\Temp\ccCzur1R.s 			page 37


C:\Users\Uzair\AppData\Local\Temp\ccCzur1R.s:8883   .debug_str:0000000000000601 .LASF282
C:\Users\Uzair\AppData\Local\Temp\ccCzur1R.s:8821   .debug_str:000000000000049b .LASF283
C:\Users\Uzair\AppData\Local\Temp\ccCzur1R.s:8917   .debug_str:00000000000006d3 .LASF284
C:\Users\Uzair\AppData\Local\Temp\ccCzur1R.s:9579   .debug_str:0000000000001659 .LASF285
C:\Users\Uzair\AppData\Local\Temp\ccCzur1R.s:9725   .debug_str:00000000000019a9 .LASF286
C:\Users\Uzair\AppData\Local\Temp\ccCzur1R.s:9691   .debug_str:00000000000018f8 .LASF287
C:\Users\Uzair\AppData\Local\Temp\ccCzur1R.s:8881   .debug_str:00000000000005f6 .LASF288
C:\Users\Uzair\AppData\Local\Temp\ccCzur1R.s:8957   .debug_str:00000000000007c4 .LASF289
C:\Users\Uzair\AppData\Local\Temp\ccCzur1R.s:9413   .debug_str:00000000000012e2 .LASF290
C:\Users\Uzair\AppData\Local\Temp\ccCzur1R.s:9059   .debug_str:0000000000000a4a .LASF291
C:\Users\Uzair\AppData\Local\Temp\ccCzur1R.s:9215   .debug_str:0000000000000de8 .LASF292
C:\Users\Uzair\AppData\Local\Temp\ccCzur1R.s:9015   .debug_str:0000000000000937 .LASF293
C:\Users\Uzair\AppData\Local\Temp\ccCzur1R.s:9749   .debug_str:0000000000001a32 .LASF294
C:\Users\Uzair\AppData\Local\Temp\ccCzur1R.s:9251   .debug_str:0000000000000ebd .LASF295
C:\Users\Uzair\AppData\Local\Temp\ccCzur1R.s:8869   .debug_str:000000000000059b .LASF296
C:\Users\Uzair\AppData\Local\Temp\ccCzur1R.s:9077   .debug_str:0000000000000a93 .LASF297
C:\Users\Uzair\AppData\Local\Temp\ccCzur1R.s:9389   .debug_str:0000000000001230 .LASF298
C:\Users\Uzair\AppData\Local\Temp\ccCzur1R.s:9765   .debug_str:0000000000001a8f .LASF299
C:\Users\Uzair\AppData\Local\Temp\ccCzur1R.s:9391   .debug_str:000000000000123f .LASF300
C:\Users\Uzair\AppData\Local\Temp\ccCzur1R.s:8705   .debug_str:0000000000000180 .LASF301
C:\Users\Uzair\AppData\Local\Temp\ccCzur1R.s:9223   .debug_str:0000000000000e30 .LASF302
C:\Users\Uzair\AppData\Local\Temp\ccCzur1R.s:9319   .debug_str:000000000000105b .LASF303
C:\Users\Uzair\AppData\Local\Temp\ccCzur1R.s:8919   .debug_str:00000000000006dc .LASF304
C:\Users\Uzair\AppData\Local\Temp\ccCzur1R.s:8781   .debug_str:00000000000003b6 .LASF305
C:\Users\Uzair\AppData\Local\Temp\ccCzur1R.s:9063   .debug_str:0000000000000a5d .LASF306
C:\Users\Uzair\AppData\Local\Temp\ccCzur1R.s:8939   .debug_str:000000000000076d .LASF307
C:\Users\Uzair\AppData\Local\Temp\ccCzur1R.s:9235   .debug_str:0000000000000e70 .LASF308
C:\Users\Uzair\AppData\Local\Temp\ccCzur1R.s:9049   .debug_str:0000000000000a01 .LASF309
C:\Users\Uzair\AppData\Local\Temp\ccCzur1R.s:9591   .debug_str:0000000000001693 .LASF310
C:\Users\Uzair\AppData\Local\Temp\ccCzur1R.s:9073   .debug_str:0000000000000a86 .LASF311
C:\Users\Uzair\AppData\Local\Temp\ccCzur1R.s:9767   .debug_str:0000000000001aa0 .LASF312
C:\Users\Uzair\AppData\Local\Temp\ccCzur1R.s:9619   .debug_str:0000000000001745 .LASF313
C:\Users\Uzair\AppData\Local\Temp\ccCzur1R.s:8823   .debug_str:00000000000004a0 .LASF314
C:\Users\Uzair\AppData\Local\Temp\ccCzur1R.s:9775   .debug_str:0000000000001ada .LASF315
C:\Users\Uzair\AppData\Local\Temp\ccCzur1R.s:9573   .debug_str:0000000000001637 .LASF316
C:\Users\Uzair\AppData\Local\Temp\ccCzur1R.s:9773   .debug_str:0000000000001ac6 .LASF317
C:\Users\Uzair\AppData\Local\Temp\ccCzur1R.s:9727   .debug_str:00000000000019af .LASF318
C:\Users\Uzair\AppData\Local\Temp\ccCzur1R.s:9055   .debug_str:0000000000000a32 .LASF319
C:\Users\Uzair\AppData\Local\Temp\ccCzur1R.s:9047   .debug_str:00000000000009fb .LASF320
C:\Users\Uzair\AppData\Local\Temp\ccCzur1R.s:9089   .debug_str:0000000000000af1 .LASF321
C:\Users\Uzair\AppData\Local\Temp\ccCzur1R.s:9771   .debug_str:0000000000001abe .LASF322
C:\Users\Uzair\AppData\Local\Temp\ccCzur1R.s:8663   .debug_str:0000000000000085 .LASF323
C:\Users\Uzair\AppData\Local\Temp\ccCzur1R.s:9761   .debug_str:0000000000001a77 .LASF324
C:\Users\Uzair\AppData\Local\Temp\ccCzur1R.s:9309   .debug_str:0000000000001023 .LASF325
C:\Users\Uzair\AppData\Local\Temp\ccCzur1R.s:8899   .debug_str:0000000000000659 .LASF326
C:\Users\Uzair\AppData\Local\Temp\ccCzur1R.s:9425   .debug_str:000000000000131c .LASF327
C:\Users\Uzair\AppData\Local\Temp\ccCzur1R.s:9711   .debug_str:0000000000001960 .LASF328
C:\Users\Uzair\AppData\Local\Temp\ccCzur1R.s:9563   .debug_str:0000000000001606 .LASF329
C:\Users\Uzair\AppData\Local\Temp\ccCzur1R.s:9757   .debug_str:0000000000001a62 .LASF330
C:\Users\Uzair\AppData\Local\Temp\ccCzur1R.s:9789   .debug_str:0000000000001b1a .LASF331
C:\Users\Uzair\AppData\Local\Temp\ccCzur1R.s:9111   .debug_str:0000000000000b7d .LASF332
C:\Users\Uzair\AppData\Local\Temp\ccCzur1R.s:9045   .debug_str:00000000000009f2 .LASF333
C:\Users\Uzair\AppData\Local\Temp\ccCzur1R.s:9739   .debug_str:00000000000019ef .LASF334
C:\Users\Uzair\AppData\Local\Temp\ccCzur1R.s:9583   .debug_str:000000000000166b .LASF335
C:\Users\Uzair\AppData\Local\Temp\ccCzur1R.s:9495   .debug_str:00000000000014ad .LASF336
C:\Users\Uzair\AppData\Local\Temp\ccCzur1R.s:8861   .debug_str:0000000000000579 .LASF337
C:\Users\Uzair\AppData\Local\Temp\ccCzur1R.s:9339   .debug_str:00000000000010dd .LASF338
GAS LISTING C:\Users\Uzair\AppData\Local\Temp\ccCzur1R.s 			page 38


C:\Users\Uzair\AppData\Local\Temp\ccCzur1R.s:8679   .debug_str:00000000000000d8 .LASF339
C:\Users\Uzair\AppData\Local\Temp\ccCzur1R.s:8949   .debug_str:00000000000007a3 .LASF340
C:\Users\Uzair\AppData\Local\Temp\ccCzur1R.s:9471   .debug_str:0000000000001428 .LASF341
C:\Users\Uzair\AppData\Local\Temp\ccCzur1R.s:8743   .debug_str:000000000000024b .LASF342
C:\Users\Uzair\AppData\Local\Temp\ccCzur1R.s:8975   .debug_str:000000000000083e .LASF343
C:\Users\Uzair\AppData\Local\Temp\ccCzur1R.s:9185   .debug_str:0000000000000d39 .LASF344
C:\Users\Uzair\AppData\Local\Temp\ccCzur1R.s:9005   .debug_str:00000000000008f0 .LASF345
C:\Users\Uzair\AppData\Local\Temp\ccCzur1R.s:9795   .debug_str:0000000000001b39 .LASF346
C:\Users\Uzair\AppData\Local\Temp\ccCzur1R.s:8717   .debug_str:00000000000001c8 .LASF347
C:\Users\Uzair\AppData\Local\Temp\ccCzur1R.s:9033   .debug_str:00000000000009b2 .LASF348
C:\Users\Uzair\AppData\Local\Temp\ccCzur1R.s:9035   .debug_str:00000000000009bd .LASF349
C:\Users\Uzair\AppData\Local\Temp\ccCzur1R.s:9721   .debug_str:0000000000001996 .LASF350
C:\Users\Uzair\AppData\Local\Temp\ccCzur1R.s:9473   .debug_str:000000000000142d .LASF351
C:\Users\Uzair\AppData\Local\Temp\ccCzur1R.s:8829   .debug_str:00000000000004c0 .LASF352
C:\Users\Uzair\AppData\Local\Temp\ccCzur1R.s:8673   .debug_str:00000000000000bb .LASF353
C:\Users\Uzair\AppData\Local\Temp\ccCzur1R.s:9491   .debug_str:0000000000001492 .LASF354
C:\Users\Uzair\AppData\Local\Temp\ccCzur1R.s:8831   .debug_str:00000000000004c8 .LASF355
C:\Users\Uzair\AppData\Local\Temp\ccCzur1R.s:9429   .debug_str:000000000000132e .LASF356
C:\Users\Uzair\AppData\Local\Temp\ccCzur1R.s:9095   .debug_str:0000000000000b17 .LASF357
C:\Users\Uzair\AppData\Local\Temp\ccCzur1R.s:9801   .debug_str:0000000000001b57 .LASF358
C:\Users\Uzair\AppData\Local\Temp\ccCzur1R.s:9641   .debug_str:00000000000017bd .LASF359
C:\Users\Uzair\AppData\Local\Temp\ccCzur1R.s:9649   .debug_str:00000000000017ea .LASF360
C:\Users\Uzair\AppData\Local\Temp\ccCzur1R.s:8967   .debug_str:000000000000080b .LASF361
C:\Users\Uzair\AppData\Local\Temp\ccCzur1R.s:8703   .debug_str:0000000000000177 .LASF362
C:\Users\Uzair\AppData\Local\Temp\ccCzur1R.s:8873   .debug_str:00000000000005bf .LASF363
C:\Users\Uzair\AppData\Local\Temp\ccCzur1R.s:8929   .debug_str:0000000000000730 .LASF364
C:\Users\Uzair\AppData\Local\Temp\ccCzur1R.s:9393   .debug_str:000000000000124f .LASF365
C:\Users\Uzair\AppData\Local\Temp\ccCzur1R.s:9175   .debug_str:0000000000000cf9 .LASF366
C:\Users\Uzair\AppData\Local\Temp\ccCzur1R.s:8885   .debug_str:0000000000000607 .LASF367
C:\Users\Uzair\AppData\Local\Temp\ccCzur1R.s:9051   .debug_str:0000000000000a08 .LASF368
C:\Users\Uzair\AppData\Local\Temp\ccCzur1R.s:9273   .debug_str:0000000000000f40 .LASF369
C:\Users\Uzair\AppData\Local\Temp\ccCzur1R.s:9627   .debug_str:000000000000176a .LASF370
C:\Users\Uzair\AppData\Local\Temp\ccCzur1R.s:8847   .debug_str:0000000000000515 .LASF371
C:\Users\Uzair\AppData\Local\Temp\ccCzur1R.s:9067   .debug_str:0000000000000a6c .LASF372
C:\Users\Uzair\AppData\Local\Temp\ccCzur1R.s:8839   .debug_str:00000000000004f5 .LASF373
C:\Users\Uzair\AppData\Local\Temp\ccCzur1R.s:9593   .debug_str:000000000000169a .LASF374
C:\Users\Uzair\AppData\Local\Temp\ccCzur1R.s:9585   .debug_str:0000000000001674 .LASF375
C:\Users\Uzair\AppData\Local\Temp\ccCzur1R.s:9163   .debug_str:0000000000000cbe .LASF376
C:\Users\Uzair\AppData\Local\Temp\ccCzur1R.s:8793   .debug_str:000000000000040c .LASF377
C:\Users\Uzair\AppData\Local\Temp\ccCzur1R.s:9437   .debug_str:000000000000135c .LASF378
C:\Users\Uzair\AppData\Local\Temp\ccCzur1R.s:9581   .debug_str:0000000000001661 .LASF379
C:\Users\Uzair\AppData\Local\Temp\ccCzur1R.s:9217   .debug_str:0000000000000df8 .LASF380
C:\Users\Uzair\AppData\Local\Temp\ccCzur1R.s:8925   .debug_str:000000000000071a .LASF381
C:\Users\Uzair\AppData\Local\Temp\ccCzur1R.s:9363   .debug_str:000000000000119a .LASF382
C:\Users\Uzair\AppData\Local\Temp\ccCzur1R.s:8943   .debug_str:000000000000078d .LASF383
C:\Users\Uzair\AppData\Local\Temp\ccCzur1R.s:9463   .debug_str:0000000000001404 .LASF384
C:\Users\Uzair\AppData\Local\Temp\ccCzur1R.s:9079   .debug_str:0000000000000aa4 .LASF385
C:\Users\Uzair\AppData\Local\Temp\ccCzur1R.s:9195   .debug_str:0000000000000d72 .LASF386
C:\Users\Uzair\AppData\Local\Temp\ccCzur1R.s:9377   .debug_str:00000000000011d8 .LASF387
C:\Users\Uzair\AppData\Local\Temp\ccCzur1R.s:9457   .debug_str:00000000000013d7 .LASF388
C:\Users\Uzair\AppData\Local\Temp\ccCzur1R.s:9105   .debug_str:0000000000000b53 .LASF389
C:\Users\Uzair\AppData\Local\Temp\ccCzur1R.s:9023   .debug_str:000000000000096f .LASF390
C:\Users\Uzair\AppData\Local\Temp\ccCzur1R.s:8973   .debug_str:0000000000000830 .LASF391
C:\Users\Uzair\AppData\Local\Temp\ccCzur1R.s:8969   .debug_str:0000000000000816 .LASF392
C:\Users\Uzair\AppData\Local\Temp\ccCzur1R.s:8785   .debug_str:00000000000003de .LASF393
C:\Users\Uzair\AppData\Local\Temp\ccCzur1R.s:9589   .debug_str:0000000000001686 .LASF394
C:\Users\Uzair\AppData\Local\Temp\ccCzur1R.s:8697   .debug_str:0000000000000152 .LASF395
GAS LISTING C:\Users\Uzair\AppData\Local\Temp\ccCzur1R.s 			page 39


C:\Users\Uzair\AppData\Local\Temp\ccCzur1R.s:8827   .debug_str:00000000000004b0 .LASF396
C:\Users\Uzair\AppData\Local\Temp\ccCzur1R.s:9133   .debug_str:0000000000000c06 .LASF397
C:\Users\Uzair\AppData\Local\Temp\ccCzur1R.s:9515   .debug_str:0000000000001516 .LASF398
C:\Users\Uzair\AppData\Local\Temp\ccCzur1R.s:9501   .debug_str:00000000000014c6 .LASF399
C:\Users\Uzair\AppData\Local\Temp\ccCzur1R.s:9027   .debug_str:0000000000000984 .LASF400
C:\Users\Uzair\AppData\Local\Temp\ccCzur1R.s:9285   .debug_str:0000000000000f8a .LASF401
C:\Users\Uzair\AppData\Local\Temp\ccCzur1R.s:8645   .debug_str:0000000000000000 .LASF402
C:\Users\Uzair\AppData\Local\Temp\ccCzur1R.s:9135   .debug_str:0000000000000c16 .LASF403
C:\Users\Uzair\AppData\Local\Temp\ccCzur1R.s:9129   .debug_str:0000000000000beb .LASF404
C:\Users\Uzair\AppData\Local\Temp\ccCzur1R.s:9259   .debug_str:0000000000000ef1 .LASF405
C:\Users\Uzair\AppData\Local\Temp\ccCzur1R.s:8993   .debug_str:00000000000008b3 .LASF406
C:\Users\Uzair\AppData\Local\Temp\ccCzur1R.s:9481   .debug_str:0000000000001451 .LASF407
C:\Users\Uzair\AppData\Local\Temp\ccCzur1R.s:9325   .debug_str:0000000000001085 .LASF408
C:\Users\Uzair\AppData\Local\Temp\ccCzur1R.s:9331   .debug_str:00000000000010a6 .LASF409
C:\Users\Uzair\AppData\Local\Temp\ccCzur1R.s:9359   .debug_str:0000000000001180 .LASF410
C:\Users\Uzair\AppData\Local\Temp\ccCzur1R.s:9209   .debug_str:0000000000000db5 .LASF411
C:\Users\Uzair\AppData\Local\Temp\ccCzur1R.s:9717   .debug_str:0000000000001980 .LASF412
C:\Users\Uzair\AppData\Local\Temp\ccCzur1R.s:9169   .debug_str:0000000000000cd5 .LASF413
C:\Users\Uzair\AppData\Local\Temp\ccCzur1R.s:8915   .debug_str:00000000000006c5 .LASF414
C:\Users\Uzair\AppData\Local\Temp\ccCzur1R.s:9635   .debug_str:0000000000001797 .LASF415
C:\Users\Uzair\AppData\Local\Temp\ccCzur1R.s:8649   .debug_str:0000000000000015 .LASF416
C:\Users\Uzair\AppData\Local\Temp\ccCzur1R.s:9153   .debug_str:0000000000000c83 .LASF417
C:\Users\Uzair\AppData\Local\Temp\ccCzur1R.s:8815   .debug_str:0000000000000477 .LASF418
C:\Users\Uzair\AppData\Local\Temp\ccCzur1R.s:9567   .debug_str:0000000000001614 .LASF419
C:\Users\Uzair\AppData\Local\Temp\ccCzur1R.s:8889   .debug_str:000000000000061d .LASF420
C:\Users\Uzair\AppData\Local\Temp\ccCzur1R.s:9537   .debug_str:0000000000001588 .LASF421
C:\Users\Uzair\AppData\Local\Temp\ccCzur1R.s:8655   .debug_str:000000000000003a .LASF422
C:\Users\Uzair\AppData\Local\Temp\ccCzur1R.s:9729   .debug_str:00000000000019ba .LASF423
C:\Users\Uzair\AppData\Local\Temp\ccCzur1R.s:8665   .debug_str:000000000000008f .LASF424
C:\Users\Uzair\AppData\Local\Temp\ccCzur1R.s:9269   .debug_str:0000000000000f22 .LASF425
C:\Users\Uzair\AppData\Local\Temp\ccCzur1R.s:8845   .debug_str:000000000000050b .LASF426
C:\Users\Uzair\AppData\Local\Temp\ccCzur1R.s:9113   .debug_str:0000000000000b84 .LASF427
C:\Users\Uzair\AppData\Local\Temp\ccCzur1R.s:9741   .debug_str:00000000000019f7 .LASF428
C:\Users\Uzair\AppData\Local\Temp\ccCzur1R.s:9177   .debug_str:0000000000000d02 .LASF429
C:\Users\Uzair\AppData\Local\Temp\ccCzur1R.s:9611   .debug_str:000000000000171b .LASF430
C:\Users\Uzair\AppData\Local\Temp\ccCzur1R.s:8859   .debug_str:0000000000000572 .LASF431
C:\Users\Uzair\AppData\Local\Temp\ccCzur1R.s:8771   .debug_str:0000000000000301 .LASF432
C:\Users\Uzair\AppData\Local\Temp\ccCzur1R.s:9061   .debug_str:0000000000000a55 .LASF433
C:\Users\Uzair\AppData\Local\Temp\ccCzur1R.s:9631   .debug_str:0000000000001783 .LASF434
C:\Users\Uzair\AppData\Local\Temp\ccCzur1R.s:9651   .debug_str:00000000000017f2 .LASF435
C:\Users\Uzair\AppData\Local\Temp\ccCzur1R.s:9395   .debug_str:000000000000125a .LASF436
C:\Users\Uzair\AppData\Local\Temp\ccCzur1R.s:9447   .debug_str:000000000000139a .LASF437
C:\Users\Uzair\AppData\Local\Temp\ccCzur1R.s:9527   .debug_str:0000000000001558 .LASF438
C:\Users\Uzair\AppData\Local\Temp\ccCzur1R.s:9313   .debug_str:0000000000001035 .LASF439
C:\Users\Uzair\AppData\Local\Temp\ccCzur1R.s:9599   .debug_str:00000000000016b8 .LASF440
C:\Users\Uzair\AppData\Local\Temp\ccCzur1R.s:8825   .debug_str:00000000000004a8 .LASF441
C:\Users\Uzair\AppData\Local\Temp\ccCzur1R.s:9423   .debug_str:0000000000001313 .LASF442
C:\Users\Uzair\AppData\Local\Temp\ccCzur1R.s:8671   .debug_str:00000000000000b3 .LASF443
C:\Users\Uzair\AppData\Local\Temp\ccCzur1R.s:9249   .debug_str:0000000000000eb2 .LASF444
C:\Users\Uzair\AppData\Local\Temp\ccCzur1R.s:9601   .debug_str:00000000000016c1 .LASF445
C:\Users\Uzair\AppData\Local\Temp\ccCzur1R.s:9703   .debug_str:0000000000001933 .LASF446
C:\Users\Uzair\AppData\Local\Temp\ccCzur1R.s:9041   .debug_str:00000000000009da .LASF447
C:\Users\Uzair\AppData\Local\Temp\ccCzur1R.s:8937   .debug_str:0000000000000766 .LASF448
C:\Users\Uzair\AppData\Local\Temp\ccCzur1R.s:9267   .debug_str:0000000000000f15 .LASF449
C:\Users\Uzair\AppData\Local\Temp\ccCzur1R.s:9371   .debug_str:00000000000011bd .LASF450
C:\Users\Uzair\AppData\Local\Temp\ccCzur1R.s:9213   .debug_str:0000000000000de0 .LASF451
C:\Users\Uzair\AppData\Local\Temp\ccCzur1R.s:8647   .debug_str:0000000000000009 .LASF452
GAS LISTING C:\Users\Uzair\AppData\Local\Temp\ccCzur1R.s 			page 40


C:\Users\Uzair\AppData\Local\Temp\ccCzur1R.s:9595   .debug_str:00000000000016a1 .LASF453
C:\Users\Uzair\AppData\Local\Temp\ccCzur1R.s:8927   .debug_str:0000000000000728 .LASF454
C:\Users\Uzair\AppData\Local\Temp\ccCzur1R.s:9709   .debug_str:0000000000001957 .LASF455
C:\Users\Uzair\AppData\Local\Temp\ccCzur1R.s:8983   .debug_str:0000000000000877 .LASF456
C:\Users\Uzair\AppData\Local\Temp\ccCzur1R.s:9149   .debug_str:0000000000000c6b .LASF457
C:\Users\Uzair\AppData\Local\Temp\ccCzur1R.s:8769   .debug_str:00000000000002f8 .LASF458
C:\Users\Uzair\AppData\Local\Temp\ccCzur1R.s:9327   .debug_str:0000000000001094 .LASF459
C:\Users\Uzair\AppData\Local\Temp\ccCzur1R.s:9723   .debug_str:000000000000199e .LASF460
C:\Users\Uzair\AppData\Local\Temp\ccCzur1R.s:8965   .debug_str:0000000000000800 .LASF461
C:\Users\Uzair\AppData\Local\Temp\ccCzur1R.s:9623   .debug_str:0000000000001752 .LASF462
C:\Users\Uzair\AppData\Local\Temp\ccCzur1R.s:9081   .debug_str:0000000000000aac .LASF463
C:\Users\Uzair\AppData\Local\Temp\ccCzur1R.s:9807   .debug_str:0000000000001b78 .LASF464
C:\Users\Uzair\AppData\Local\Temp\ccCzur1R.s:9755   .debug_str:0000000000001a51 .LASF465
C:\Users\Uzair\AppData\Local\Temp\ccCzur1R.s:9551   .debug_str:00000000000015c9 .LASF466
C:\Users\Uzair\AppData\Local\Temp\ccCzur1R.s:9541   .debug_str:0000000000001598 .LASF467
C:\Users\Uzair\AppData\Local\Temp\ccCzur1R.s:9465   .debug_str:000000000000140b .LASF468
C:\Users\Uzair\AppData\Local\Temp\ccCzur1R.s:8879   .debug_str:00000000000005ec .LASF469
C:\Users\Uzair\AppData\Local\Temp\ccCzur1R.s:9569   .debug_str:0000000000001627 .LASF470
C:\Users\Uzair\AppData\Local\Temp\ccCzur1R.s:9043   .debug_str:00000000000009eb .LASF471
C:\Users\Uzair\AppData\Local\Temp\ccCzur1R.s:9387   .debug_str:0000000000001227 .LASF472
C:\Users\Uzair\AppData\Local\Temp\ccCzur1R.s:8801   .debug_str:000000000000042e .LASF473
C:\Users\Uzair\AppData\Local\Temp\ccCzur1R.s:8963   .debug_str:00000000000007f7 .LASF474
C:\Users\Uzair\AppData\Local\Temp\ccCzur1R.s:8991   .debug_str:00000000000008a0 .LASF475
C:\Users\Uzair\AppData\Local\Temp\ccCzur1R.s:9305   .debug_str:0000000000000ff8 .LASF476
C:\Users\Uzair\AppData\Local\Temp\ccCzur1R.s:9529   .debug_str:0000000000001561 .LASF477
C:\Users\Uzair\AppData\Local\Temp\ccCzur1R.s:9667   .debug_str:000000000000184a .LASF478
C:\Users\Uzair\AppData\Local\Temp\ccCzur1R.s:8765   .debug_str:00000000000002eb .LASF479
C:\Users\Uzair\AppData\Local\Temp\ccCzur1R.s:9301   .debug_str:0000000000000fe4 .LASF480
C:\Users\Uzair\AppData\Local\Temp\ccCzur1R.s:9303   .debug_str:0000000000000fed .LASF481
C:\Users\Uzair\AppData\Local\Temp\ccCzur1R.s:9461   .debug_str:00000000000013f6 .LASF482
C:\Users\Uzair\AppData\Local\Temp\ccCzur1R.s:9511   .debug_str:00000000000014fd .LASF483
C:\Users\Uzair\AppData\Local\Temp\ccCzur1R.s:9521   .debug_str:000000000000153f .LASF484
C:\Users\Uzair\AppData\Local\Temp\ccCzur1R.s:9539   .debug_str:0000000000001593 .LASF485
C:\Users\Uzair\AppData\Local\Temp\ccCzur1R.s:9293   .debug_str:0000000000000fb1 .LASF486
C:\Users\Uzair\AppData\Local\Temp\ccCzur1R.s:9367   .debug_str:00000000000011aa .LASF487
C:\Users\Uzair\AppData\Local\Temp\ccCzur1R.s:9637   .debug_str:00000000000017a8 .LASF488
C:\Users\Uzair\AppData\Local\Temp\ccCzur1R.s:9577   .debug_str:0000000000001649 .LASF489
C:\Users\Uzair\AppData\Local\Temp\ccCzur1R.s:8961   .debug_str:00000000000007e4 .LASF490
C:\Users\Uzair\AppData\Local\Temp\ccCzur1R.s:9787   .debug_str:0000000000001b13 .LASF491
C:\Users\Uzair\AppData\Local\Temp\ccCzur1R.s:9683   .debug_str:00000000000018a6 .LASF492
C:\Users\Uzair\AppData\Local\Temp\ccCzur1R.s:8913   .debug_str:00000000000006b6 .LASF493
C:\Users\Uzair\AppData\Local\Temp\ccCzur1R.s:8933   .debug_str:000000000000074f .LASF494
C:\Users\Uzair\AppData\Local\Temp\ccCzur1R.s:8747   .debug_str:0000000000000264 .LASF495
C:\Users\Uzair\AppData\Local\Temp\ccCzur1R.s:9385   .debug_str:0000000000001204 .LASF496
C:\Users\Uzair\AppData\Local\Temp\ccCzur1R.s:9689   .debug_str:00000000000018e7 .LASF497
C:\Users\Uzair\AppData\Local\Temp\ccCzur1R.s:9009   .debug_str:0000000000000905 .LASF498
C:\Users\Uzair\AppData\Local\Temp\ccCzur1R.s:8911   .debug_str:0000000000000691 .LASF499
C:\Users\Uzair\AppData\Local\Temp\ccCzur1R.s:8853   .debug_str:0000000000000540 .LASF500
C:\Users\Uzair\AppData\Local\Temp\ccCzur1R.s:9655   .debug_str:0000000000001809 .LASF501
C:\Users\Uzair\AppData\Local\Temp\ccCzur1R.s:8877   .debug_str:00000000000005d0 .LASF502
C:\Users\Uzair\AppData\Local\Temp\ccCzur1R.s:9103   .debug_str:0000000000000b42 .LASF503
C:\Users\Uzair\AppData\Local\Temp\ccCzur1R.s:8783   .debug_str:00000000000003cb .LASF504
C:\Users\Uzair\AppData\Local\Temp\ccCzur1R.s:8713   .debug_str:00000000000001a4 .LASF505
C:\Users\Uzair\AppData\Local\Temp\ccCzur1R.s:8981   .debug_str:000000000000085b .LASF506
C:\Users\Uzair\AppData\Local\Temp\ccCzur1R.s:9297   .debug_str:0000000000000fc4 .LASF507
C:\Users\Uzair\AppData\Local\Temp\ccCzur1R.s:8659   .debug_str:0000000000000063 .LASF508
C:\Users\Uzair\AppData\Local\Temp\ccCzur1R.s:8687   .debug_str:0000000000000102 .LASF509
GAS LISTING C:\Users\Uzair\AppData\Local\Temp\ccCzur1R.s 			page 41


C:\Users\Uzair\AppData\Local\Temp\ccCzur1R.s:9677   .debug_str:0000000000001889 .LASF510
C:\Users\Uzair\AppData\Local\Temp\ccCzur1R.s:9685   .debug_str:00000000000018cc .LASF511
C:\Users\Uzair\AppData\Local\Temp\ccCzur1R.s:8851   .debug_str:0000000000000527 .LASF512
C:\Users\Uzair\AppData\Local\Temp\ccCzur1R.s:8693   .debug_str:0000000000000139 .LASF513
C:\Users\Uzair\AppData\Local\Temp\ccCzur1R.s:9165   .debug_str:0000000000000cc4 .LASF514
C:\Users\Uzair\AppData\Local\Temp\ccCzur1R.s:9277   .debug_str:0000000000000f59 .LASF515
C:\Users\Uzair\AppData\Local\Temp\ccCzur1R.s:8753   .debug_str:00000000000002a8 .LASF516
C:\Users\Uzair\AppData\Local\Temp\ccCzur1R.s:9107   .debug_str:0000000000000b63 .LASF517
C:\Users\Uzair\AppData\Local\Temp\ccCzur1R.s:9753   .debug_str:0000000000001a45 .LASF518
C:\Users\Uzair\AppData\Local\Temp\ccCzur1R.s:9123   .debug_str:0000000000000bcc .LASF519
C:\Users\Uzair\AppData\Local\Temp\ccCzur1R.s:9657   .debug_str:000000000000181d .LASF520
C:\Users\Uzair\AppData\Local\Temp\ccCzur1R.s:8751   .debug_str:000000000000029e .LASF521
C:\Users\Uzair\AppData\Local\Temp\ccCzur1R.s:9779   .debug_str:0000000000001aea .LASF522
C:\Users\Uzair\AppData\Local\Temp\ccCzur1R.s:9131   .debug_str:0000000000000c01 .LASF523
C:\Users\Uzair\AppData\Local\Temp\ccCzur1R.s:9191   .debug_str:0000000000000d57 .LASF524
C:\Users\Uzair\AppData\Local\Temp\ccCzur1R.s:8795   .debug_str:0000000000000416 .LASF525
C:\Users\Uzair\AppData\Local\Temp\ccCzur1R.s:9783   .debug_str:0000000000001b01 .LASF526
C:\Users\Uzair\AppData\Local\Temp\ccCzur1R.s:9735   .debug_str:00000000000019d9 .LASF527
C:\Users\Uzair\AppData\Local\Temp\ccCzur1R.s:8863   .debug_str:0000000000000584 .LASF582
C:\Users\Uzair\AppData\Local\Temp\ccCzur1R.s:465    .text.startup.main:0000000000000000 .LFB11
C:\Users\Uzair\AppData\Local\Temp\ccCzur1R.s:907    .text.startup.main:000000000000035c .LFE11
C:\Users\Uzair\AppData\Local\Temp\ccCzur1R.s:8246   .debug_loc:0000000000000000 .LLST7
C:\Users\Uzair\AppData\Local\Temp\ccCzur1R.s:8789   .debug_str:00000000000003f7 .LASF528
C:\Users\Uzair\AppData\Local\Temp\ccCzur1R.s:8779   .debug_str:00000000000003ab .LASF529
C:\Users\Uzair\AppData\Local\Temp\ccCzur1R.s:8259   .debug_loc:0000000000000021 .LLST8
C:\Users\Uzair\AppData\Local\Temp\ccCzur1R.s:9333   .debug_str:00000000000010ba .LASF530
C:\Users\Uzair\AppData\Local\Temp\ccCzur1R.s:8290   .debug_loc:0000000000000075 .LLST9
C:\Users\Uzair\AppData\Local\Temp\ccCzur1R.s:8953   .debug_str:00000000000007b5 .LASF531
C:\Users\Uzair\AppData\Local\Temp\ccCzur1R.s:8330   .debug_loc:00000000000000da .LLST10
C:\Users\Uzair\AppData\Local\Temp\ccCzur1R.s:8695   .debug_str:0000000000000145 .LASF532
C:\Users\Uzair\AppData\Local\Temp\ccCzur1R.s:8365   .debug_loc:0000000000000133 .LLST11
C:\Users\Uzair\AppData\Local\Temp\ccCzur1R.s:9407   .debug_str:00000000000012c5 .LASF533
C:\Users\Uzair\AppData\Local\Temp\ccCzur1R.s:8386   .debug_loc:0000000000000169 .LLST12
C:\Users\Uzair\AppData\Local\Temp\ccCzur1R.s:9659   .debug_str:0000000000001826 .LASF534
C:\Users\Uzair\AppData\Local\Temp\ccCzur1R.s:8398   .debug_loc:0000000000000181 .LLST13
C:\Users\Uzair\AppData\Local\Temp\ccCzur1R.s:8413   .debug_loc:00000000000001aa .LLST14
C:\Users\Uzair\AppData\Local\Temp\ccCzur1R.s:9321   .debug_str:000000000000106e .LASF535
C:\Users\Uzair\AppData\Local\Temp\ccCzur1R.s:8428   .debug_loc:00000000000001d3 .LLST15
C:\Users\Uzair\AppData\Local\Temp\ccCzur1R.s:771    .text.startup.main:000000000000027a .LVL83
C:\Users\Uzair\AppData\Local\Temp\ccCzur1R.s:786    .text.startup.main:0000000000000292 .LVL85
C:\Users\Uzair\AppData\Local\Temp\ccCzur1R.s:793    .text.startup.main:000000000000029e .LVL87
C:\Users\Uzair\AppData\Local\Temp\ccCzur1R.s:832    .text.startup.main:00000000000002de .LVL88
C:\Users\Uzair\AppData\Local\Temp\ccCzur1R.s:842    .text.startup.main:00000000000002ec .LVL90
C:\Users\Uzair\AppData\Local\Temp\ccCzur1R.s:849    .text.startup.main:00000000000002f8 .LVL92
C:\Users\Uzair\AppData\Local\Temp\ccCzur1R.s:862    .text.startup.main:0000000000000312 .LVL93
C:\Users\Uzair\AppData\Local\Temp\ccCzur1R.s:899    .text.startup.main:0000000000000358 .LVL100
C:\Users\Uzair\AppData\Local\Temp\ccCzur1R.s:615    .text.startup.main:0000000000000114 .LVL49
C:\Users\Uzair\AppData\Local\Temp\ccCzur1R.s:639    .text.startup.main:000000000000014a .LVL54
C:\Users\Uzair\AppData\Local\Temp\ccCzur1R.s:658    .text.startup.main:0000000000000178 .LVL58
C:\Users\Uzair\AppData\Local\Temp\ccCzur1R.s:680    .text.startup.main:00000000000001a6 .LVL63
C:\Users\Uzair\AppData\Local\Temp\ccCzur1R.s:691    .text.startup.main:00000000000001b8 .LVL65
C:\Users\Uzair\AppData\Local\Temp\ccCzur1R.s:695    .text.startup.main:00000000000001c4 .LVL66
C:\Users\Uzair\AppData\Local\Temp\ccCzur1R.s:729    .text.startup.main:000000000000020e .LVL74
C:\Users\Uzair\AppData\Local\Temp\ccCzur1R.s:742    .text.startup.main:0000000000000234 .LVL77
C:\Users\Uzair\AppData\Local\Temp\ccCzur1R.s:746    .text.startup.main:000000000000023e .LVL78
C:\Users\Uzair\AppData\Local\Temp\ccCzur1R.s:750    .text.startup.main:000000000000024a .LVL79
C:\Users\Uzair\AppData\Local\Temp\ccCzur1R.s:882    .text.startup.main:0000000000000332 .LVL97
GAS LISTING C:\Users\Uzair\AppData\Local\Temp\ccCzur1R.s 			page 42


C:\Users\Uzair\AppData\Local\Temp\ccCzur1R.s:507    .text.startup.main:0000000000000024 .LVL33
C:\Users\Uzair\AppData\Local\Temp\ccCzur1R.s:512    .text.startup.main:000000000000002c .LVL34
C:\Users\Uzair\AppData\Local\Temp\ccCzur1R.s:518    .text.startup.main:000000000000003c .LVL35
C:\Users\Uzair\AppData\Local\Temp\ccCzur1R.s:522    .text.startup.main:0000000000000048 .LVL36
C:\Users\Uzair\AppData\Local\Temp\ccCzur1R.s:530    .text.startup.main:0000000000000060 .LVL37
C:\Users\Uzair\AppData\Local\Temp\ccCzur1R.s:534    .text.startup.main:000000000000006c .LVL38
C:\Users\Uzair\AppData\Local\Temp\ccCzur1R.s:541    .text.startup.main:000000000000007e .LVL39
C:\Users\Uzair\AppData\Local\Temp\ccCzur1R.s:548    .text.startup.main:0000000000000092 .LVL40
C:\Users\Uzair\AppData\Local\Temp\ccCzur1R.s:552    .text.startup.main:000000000000009e .LVL41
C:\Users\Uzair\AppData\Local\Temp\ccCzur1R.s:559    .text.startup.main:00000000000000b2 .LVL42
C:\Users\Uzair\AppData\Local\Temp\ccCzur1R.s:564    .text.startup.main:00000000000000c2 .LVL43
C:\Users\Uzair\AppData\Local\Temp\ccCzur1R.s:567    .text.startup.main:00000000000000ca .LVL44
C:\Users\Uzair\AppData\Local\Temp\ccCzur1R.s:571    .text.startup.main:00000000000000d4 .LVL45
C:\Users\Uzair\AppData\Local\Temp\ccCzur1R.s:583    .text.startup.main:00000000000000e4 .LVL46
C:\Users\Uzair\AppData\Local\Temp\ccCzur1R.s:589    .text.startup.main:00000000000000ee .LVL47
C:\Users\Uzair\AppData\Local\Temp\ccCzur1R.s:874    .text.startup.main:0000000000000324 .LVL95
C:\Users\Uzair\AppData\Local\Temp\ccCzur1R.s:9559   .debug_str:00000000000015ee .LASF536
C:\Users\Uzair\AppData\Local\Temp\ccCzur1R.s:394    .text.TIMER1_IRQHandler:0000000000000000 .LFB10
C:\Users\Uzair\AppData\Local\Temp\ccCzur1R.s:450    .text.TIMER1_IRQHandler:000000000000003e .LFE10
C:\Users\Uzair\AppData\Local\Temp\ccCzur1R.s:8435   .debug_loc:00000000000001e6 .LLST6
C:\Users\Uzair\AppData\Local\Temp\ccCzur1R.s:410    .text.TIMER1_IRQHandler:0000000000000012 .LVL30
C:\Users\Uzair\AppData\Local\Temp\ccCzur1R.s:438    .text.TIMER1_IRQHandler:0000000000000038 .LVL31
C:\Users\Uzair\AppData\Local\Temp\ccCzur1R.s:9791   .debug_str:0000000000001b21 .LASF537
C:\Users\Uzair\AppData\Local\Temp\ccCzur1R.s:265    .text.interrupt_config:0000000000000000 .LFB9
C:\Users\Uzair\AppData\Local\Temp\ccCzur1R.s:387    .text.interrupt_config:00000000000000e4 .LFE9
C:\Users\Uzair\AppData\Local\Temp\ccCzur1R.s:8463   .debug_loc:000000000000022a .LLST5
C:\Users\Uzair\AppData\Local\Temp\ccCzur1R.s:9275   .debug_str:0000000000000f48 .LASF538
C:\Users\Uzair\AppData\Local\Temp\ccCzur1R.s:9155   .debug_str:0000000000000c91 .LASF539
C:\Users\Uzair\AppData\Local\Temp\ccCzur1R.s:286    .text.interrupt_config:0000000000000016 .LVL17
C:\Users\Uzair\AppData\Local\Temp\ccCzur1R.s:290    .text.interrupt_config:0000000000000022 .LVL18
C:\Users\Uzair\AppData\Local\Temp\ccCzur1R.s:294    .text.interrupt_config:000000000000002e .LVL19
C:\Users\Uzair\AppData\Local\Temp\ccCzur1R.s:298    .text.interrupt_config:0000000000000038 .LVL20
C:\Users\Uzair\AppData\Local\Temp\ccCzur1R.s:323    .text.interrupt_config:000000000000005a .LVL21
C:\Users\Uzair\AppData\Local\Temp\ccCzur1R.s:327    .text.interrupt_config:0000000000000064 .LVL22
C:\Users\Uzair\AppData\Local\Temp\ccCzur1R.s:343    .text.interrupt_config:0000000000000080 .LVL23
C:\Users\Uzair\AppData\Local\Temp\ccCzur1R.s:350    .text.interrupt_config:0000000000000094 .LVL24
C:\Users\Uzair\AppData\Local\Temp\ccCzur1R.s:356    .text.interrupt_config:00000000000000a4 .LVL25
C:\Users\Uzair\AppData\Local\Temp\ccCzur1R.s:362    .text.interrupt_config:00000000000000b4 .LVL26
C:\Users\Uzair\AppData\Local\Temp\ccCzur1R.s:367    .text.interrupt_config:00000000000000c2 .LVL27
C:\Users\Uzair\AppData\Local\Temp\ccCzur1R.s:372    .text.interrupt_config:00000000000000d0 .LVL28
C:\Users\Uzair\AppData\Local\Temp\ccCzur1R.s:376    .text.interrupt_config:00000000000000dc .LVL29
C:\Users\Uzair\AppData\Local\Temp\ccCzur1R.s:9403   .debug_str:00000000000012b0 .LASF583
C:\Users\Uzair\AppData\Local\Temp\ccCzur1R.s:9069   .debug_str:0000000000000a76 .LASF540
C:\Users\Uzair\AppData\Local\Temp\ccCzur1R.s:22     .text.sd_init:0000000000000000 .LFB7
C:\Users\Uzair\AppData\Local\Temp\ccCzur1R.s:74     .text.sd_init:0000000000000052 .LFE7
C:\Users\Uzair\AppData\Local\Temp\ccCzur1R.s:8481   .debug_loc:0000000000000256 .LLST0
C:\Users\Uzair\AppData\Local\Temp\ccCzur1R.s:43     .text.sd_init:000000000000001a .LVL0
C:\Users\Uzair\AppData\Local\Temp\ccCzur1R.s:47     .text.sd_init:0000000000000026 .LVL1
C:\Users\Uzair\AppData\Local\Temp\ccCzur1R.s:56     .text.sd_init:0000000000000040 .LVL2
C:\Users\Uzair\AppData\Local\Temp\ccCzur1R.s:82     .text.spara_logg:0000000000000000 .LFB8
C:\Users\Uzair\AppData\Local\Temp\ccCzur1R.s:258    .text.spara_logg:00000000000000f6 .LFE8
C:\Users\Uzair\AppData\Local\Temp\ccCzur1R.s:8499   .debug_loc:0000000000000282 .LLST1
C:\Users\Uzair\AppData\Local\Temp\ccCzur1R.s:8527   .debug_loc:00000000000002c8 .LLST2
C:\Users\Uzair\AppData\Local\Temp\ccCzur1R.s:130    .text.spara_logg:000000000000004c .LBB8
C:\Users\Uzair\AppData\Local\Temp\ccCzur1R.s:8534   .debug_loc:00000000000002db .LLST3
C:\Users\Uzair\AppData\Local\Temp\ccCzur1R.s:8555   .debug_loc:0000000000000311 .LLST4
C:\Users\Uzair\AppData\Local\Temp\ccCzur1R.s:231    .text.spara_logg:00000000000000de .LVL13
GAS LISTING C:\Users\Uzair\AppData\Local\Temp\ccCzur1R.s 			page 43


C:\Users\Uzair\AppData\Local\Temp\ccCzur1R.s:239    .text.spara_logg:00000000000000f2 .LVL15
C:\Users\Uzair\AppData\Local\Temp\ccCzur1R.s:146    .text.spara_logg:000000000000006e .LVL5
C:\Users\Uzair\AppData\Local\Temp\ccCzur1R.s:172    .text.spara_logg:0000000000000094 .LVL7
C:\Users\Uzair\AppData\Local\Temp\ccCzur1R.s:176    .text.spara_logg:00000000000000a0 .LVL8
C:\Users\Uzair\AppData\Local\Temp\ccCzur1R.s:125    .text.spara_logg:0000000000000046 .LVL3
C:\Users\Uzair\AppData\Local\Temp\ccCzur1R.s:9509   .debug_str:00000000000014f0 .LASF541
C:\Users\Uzair\AppData\Local\Temp\ccCzur1R.s:9019   .debug_str:0000000000000948 .LASF542
C:\Users\Uzair\AppData\Local\Temp\ccCzur1R.s:9211   .debug_str:0000000000000dc2 .LASF543
C:\Users\Uzair\AppData\Local\Temp\ccCzur1R.s:9139   .debug_str:0000000000000c31 .LASF544
C:\Users\Uzair\AppData\Local\Temp\ccCzur1R.s:9431   .debug_str:0000000000001339 .LASF545
C:\Users\Uzair\AppData\Local\Temp\ccCzur1R.s:8707   .debug_str:000000000000018b .LASF546
C:\Users\Uzair\AppData\Local\Temp\ccCzur1R.s:9037   .debug_str:00000000000009c8 .LASF547
C:\Users\Uzair\AppData\Local\Temp\ccCzur1R.s:9091   .debug_str:0000000000000afc .LASF548
C:\Users\Uzair\AppData\Local\Temp\ccCzur1R.s:9555   .debug_str:00000000000015d5 .LASF549
C:\Users\Uzair\AppData\Local\Temp\ccCzur1R.s:9065   .debug_str:0000000000000a65 .LASF550
C:\Users\Uzair\AppData\Local\Temp\ccCzur1R.s:9793   .debug_str:0000000000001b32 .LASF551
C:\Users\Uzair\AppData\Local\Temp\ccCzur1R.s:8891   .debug_str:0000000000000630 .LASF552
C:\Users\Uzair\AppData\Local\Temp\ccCzur1R.s:9031   .debug_str:000000000000099d .LASF553
C:\Users\Uzair\AppData\Local\Temp\ccCzur1R.s:9483   .debug_str:000000000000145e .LASF554
C:\Users\Uzair\AppData\Local\Temp\ccCzur1R.s:9769   .debug_str:0000000000001aa6 .LASF555
C:\Users\Uzair\AppData\Local\Temp\ccCzur1R.s:9549   .debug_str:00000000000015bf .LASF556
C:\Users\Uzair\AppData\Local\Temp\ccCzur1R.s:9151   .debug_str:0000000000000c73 .LASF557
C:\Users\Uzair\AppData\Local\Temp\ccCzur1R.s:8921   .debug_str:00000000000006f3 .LASF558
C:\Users\Uzair\AppData\Local\Temp\ccCzur1R.s:9219   .debug_str:0000000000000e01 .LASF559
C:\Users\Uzair\AppData\Local\Temp\ccCzur1R.s:8871   .debug_str:00000000000005ae .LASF560
C:\Users\Uzair\AppData\Local\Temp\ccCzur1R.s:9381   .debug_str:00000000000011f1 .LASF561
C:\Users\Uzair\AppData\Local\Temp\ccCzur1R.s:9517   .debug_str:000000000000151f .LASF562
C:\Users\Uzair\AppData\Local\Temp\ccCzur1R.s:9109   .debug_str:0000000000000b72 .LASF563
C:\Users\Uzair\AppData\Local\Temp\ccCzur1R.s:9087   .debug_str:0000000000000acb .LASF564
C:\Users\Uzair\AppData\Local\Temp\ccCzur1R.s:8657   .debug_str:0000000000000047 .LASF565
C:\Users\Uzair\AppData\Local\Temp\ccCzur1R.s:9401   .debug_str:0000000000001288 .LASF566
C:\Users\Uzair\AppData\Local\Temp\ccCzur1R.s:9053   .debug_str:0000000000000a11 .LASF567
C:\Users\Uzair\AppData\Local\Temp\ccCzur1R.s:9607   .debug_str:00000000000016eb .LASF568
C:\Users\Uzair\AppData\Local\Temp\ccCzur1R.s:9439   .debug_str:000000000000136a .LASF569
C:\Users\Uzair\AppData\Local\Temp\ccCzur1R.s:9653   .debug_str:00000000000017fc .LASF570
C:\Users\Uzair\AppData\Local\Temp\ccCzur1R.s:8749   .debug_str:0000000000000292 .LASF571
C:\Users\Uzair\AppData\Local\Temp\ccCzur1R.s:9639   .debug_str:00000000000017b5 .LASF572
C:\Users\Uzair\AppData\Local\Temp\ccCzur1R.s:9205   .debug_str:0000000000000da0 .LASF573
C:\Users\Uzair\AppData\Local\Temp\ccCzur1R.s:8849   .debug_str:000000000000051f .LASF574
C:\Users\Uzair\AppData\Local\Temp\ccCzur1R.s:8947   .debug_str:000000000000079c .LASF575
C:\Users\Uzair\AppData\Local\Temp\ccCzur1R.s:9115   .debug_str:0000000000000b90 .LASF576
C:\Users\Uzair\AppData\Local\Temp\ccCzur1R.s:8799   .debug_str:0000000000000427 .LASF577
C:\Users\Uzair\AppData\Local\Temp\ccCzur1R.s:477    .text.startup.main:0000000000000002 .LCFI12
C:\Users\Uzair\AppData\Local\Temp\ccCzur1R.s:470    .text.startup.main:0000000000000000 .LVL32
C:\Users\Uzair\AppData\Local\Temp\ccCzur1R.s:606    .text.startup.main:000000000000010a .LVL48
C:\Users\Uzair\AppData\Local\Temp\ccCzur1R.s:686    .text.startup.main:00000000000001ac .LVL64
C:\Users\Uzair\AppData\Local\Temp\ccCzur1R.s:700    .text.startup.main:00000000000001c8 .LVL67
C:\Users\Uzair\AppData\Local\Temp\ccCzur1R.s:867    .text.startup.main:0000000000000318 .LVL94
C:\Users\Uzair\AppData\Local\Temp\ccCzur1R.s:876    .text.startup.main:0000000000000326 .LVL96
C:\Users\Uzair\AppData\Local\Temp\ccCzur1R.s:754    .text.startup.main:000000000000024e .LVL80
C:\Users\Uzair\AppData\Local\Temp\ccCzur1R.s:884    .text.startup.main:0000000000000334 .LVL98
C:\Users\Uzair\AppData\Local\Temp\ccCzur1R.s:776    .text.startup.main:000000000000027c .LVL84
C:\Users\Uzair\AppData\Local\Temp\ccCzur1R.s:838    .text.startup.main:00000000000002e4 .LVL89
C:\Users\Uzair\AppData\Local\Temp\ccCzur1R.s:643    .text.startup.main:0000000000000152 .LVL55
C:\Users\Uzair\AppData\Local\Temp\ccCzur1R.s:674    .text.startup.main:000000000000019a .LVL61
C:\Users\Uzair\AppData\Local\Temp\ccCzur1R.s:678    .text.startup.main:000000000000019e .LVL62
C:\Users\Uzair\AppData\Local\Temp\ccCzur1R.s:764    .text.startup.main:0000000000000262 .LVL82
GAS LISTING C:\Users\Uzair\AppData\Local\Temp\ccCzur1R.s 			page 44


C:\Users\Uzair\AppData\Local\Temp\ccCzur1R.s:709    .text.startup.main:00000000000001d6 .LVL69
C:\Users\Uzair\AppData\Local\Temp\ccCzur1R.s:712    .text.startup.main:00000000000001d8 .LVL70
C:\Users\Uzair\AppData\Local\Temp\ccCzur1R.s:846    .text.startup.main:00000000000002f0 .LVL91
C:\Users\Uzair\AppData\Local\Temp\ccCzur1R.s:400    .text.TIMER1_IRQHandler:0000000000000002 .LCFI8
C:\Users\Uzair\AppData\Local\Temp\ccCzur1R.s:434    .text.TIMER1_IRQHandler:0000000000000030 .LCFI9
C:\Users\Uzair\AppData\Local\Temp\ccCzur1R.s:440    .text.TIMER1_IRQHandler:0000000000000038 .LCFI10
C:\Users\Uzair\AppData\Local\Temp\ccCzur1R.s:446    .text.TIMER1_IRQHandler:000000000000003c .LCFI11
C:\Users\Uzair\AppData\Local\Temp\ccCzur1R.s:273    .text.interrupt_config:0000000000000002 .LCFI6
C:\Users\Uzair\AppData\Local\Temp\ccCzur1R.s:383    .text.interrupt_config:00000000000000e2 .LCFI7
C:\Users\Uzair\AppData\Local\Temp\ccCzur1R.s:29     .text.sd_init:0000000000000002 .LCFI0
C:\Users\Uzair\AppData\Local\Temp\ccCzur1R.s:70     .text.sd_init:0000000000000050 .LCFI1
C:\Users\Uzair\AppData\Local\Temp\ccCzur1R.s:92     .text.spara_logg:000000000000000c .LCFI2
C:\Users\Uzair\AppData\Local\Temp\ccCzur1R.s:201    .text.spara_logg:00000000000000b4 .LCFI3
C:\Users\Uzair\AppData\Local\Temp\ccCzur1R.s:206    .text.spara_logg:00000000000000b6 .LCFI4
C:\Users\Uzair\AppData\Local\Temp\ccCzur1R.s:243    .text.spara_logg:00000000000000f4 .LCFI5
C:\Users\Uzair\AppData\Local\Temp\ccCzur1R.s:144    .text.spara_logg:0000000000000066 .LVL4
C:\Users\Uzair\AppData\Local\Temp\ccCzur1R.s:163    .text.spara_logg:0000000000000080 .LVL6
C:\Users\Uzair\AppData\Local\Temp\ccCzur1R.s:180    .text.spara_logg:00000000000000a4 .LVL9
C:\Users\Uzair\AppData\Local\Temp\ccCzur1R.s:204    .text.spara_logg:00000000000000b6 .LVL10
C:\Users\Uzair\AppData\Local\Temp\ccCzur1R.s:218    .text.spara_logg:00000000000000ba .LVL11
C:\Users\Uzair\AppData\Local\Temp\ccCzur1R.s:241    .text.spara_logg:00000000000000f4 .LVL16
C:\Users\Uzair\AppData\Local\Temp\ccCzur1R.s:237    .text.spara_logg:00000000000000ea .LVL14
C:\Users\Uzair\AppData\Local\Temp\ccCzur1R.s:993    .debug_info:0000000000000000 .Ldebug_info0
C:\Users\Uzair\AppData\Local\Temp\ccCzur1R.s:151    .text.spara_logg:0000000000000076 .LBE8
C:\Users\Uzair\AppData\Local\Temp\ccCzur1R.s:154    .text.spara_logg:0000000000000078 .LBB17
C:\Users\Uzair\AppData\Local\Temp\ccCzur1R.s:183    .text.spara_logg:00000000000000a4 .LBE17
C:\Users\Uzair\AppData\Local\Temp\ccCzur1R.s:208    .text.spara_logg:00000000000000b6 .LBB18
C:\Users\Uzair\AppData\Local\Temp\ccCzur1R.s:256    .text.spara_logg:00000000000000f6 .LBE18
C:\Users\Uzair\AppData\Local\Temp\ccCzur1R.s:156    .text.spara_logg:0000000000000078 .LBB10
C:\Users\Uzair\AppData\Local\Temp\ccCzur1R.s:168    .text.spara_logg:0000000000000088 .LBE10
C:\Users\Uzair\AppData\Local\Temp\ccCzur1R.s:210    .text.spara_logg:00000000000000b6 .LBB14
C:\Users\Uzair\AppData\Local\Temp\ccCzur1R.s:254    .text.spara_logg:00000000000000f6 .LBE14
C:\Users\Uzair\AppData\Local\Temp\ccCzur1R.s:157    .text.spara_logg:0000000000000078 .LBB11
C:\Users\Uzair\AppData\Local\Temp\ccCzur1R.s:164    .text.spara_logg:0000000000000080 .LBE11
C:\Users\Uzair\AppData\Local\Temp\ccCzur1R.s:211    .text.spara_logg:00000000000000b6 .LBB12
C:\Users\Uzair\AppData\Local\Temp\ccCzur1R.s:215    .text.spara_logg:00000000000000b8 .LBE12
C:\Users\Uzair\AppData\Local\Temp\ccCzur1R.s:220    .text.spara_logg:00000000000000bc .LBB13
C:\Users\Uzair\AppData\Local\Temp\ccCzur1R.s:253    .text.spara_logg:00000000000000f6 .LBE13
C:\Users\Uzair\AppData\Local\Temp\ccCzur1R.s:573    .text.startup.main:00000000000000d4 .LBB19
C:\Users\Uzair\AppData\Local\Temp\ccCzur1R.s:580    .text.startup.main:00000000000000dc .LBE19
C:\Users\Uzair\AppData\Local\Temp\ccCzur1R.s:596    .text.startup.main:00000000000000f6 .LBB24
C:\Users\Uzair\AppData\Local\Temp\ccCzur1R.s:609    .text.startup.main:000000000000010a .LBE24
C:\Users\Uzair\AppData\Local\Temp\ccCzur1R.s:611    .text.startup.main:000000000000010a .LBB25
C:\Users\Uzair\AppData\Local\Temp\ccCzur1R.s:870    .text.startup.main:0000000000000318 .LBE25
C:\Users\Uzair\AppData\Local\Temp\ccCzur1R.s:878    .text.startup.main:0000000000000326 .LBB26
C:\Users\Uzair\AppData\Local\Temp\ccCzur1R.s:905    .text.startup.main:000000000000035c .LBE26
C:\Users\Uzair\AppData\Local\Temp\ccCzur1R.s:576    .text.startup.main:00000000000000d8 .LBB20
C:\Users\Uzair\AppData\Local\Temp\ccCzur1R.s:579    .text.startup.main:00000000000000dc .LBE20
C:\Users\Uzair\AppData\Local\Temp\ccCzur1R.s:601    .text.startup.main:0000000000000102 .LBB21
C:\Users\Uzair\AppData\Local\Temp\ccCzur1R.s:608    .text.startup.main:000000000000010a .LBE21
C:\Users\Uzair\AppData\Local\Temp\ccCzur1R.s:755    .text.startup.main:000000000000024e .LBB22
C:\Users\Uzair\AppData\Local\Temp\ccCzur1R.s:869    .text.startup.main:0000000000000318 .LBE22
C:\Users\Uzair\AppData\Local\Temp\ccCzur1R.s:886    .text.startup.main:0000000000000334 .LBB23
C:\Users\Uzair\AppData\Local\Temp\ccCzur1R.s:904    .text.startup.main:000000000000035c .LBE23

UNDEFINED SYMBOLS
set_fattime
GAS LISTING C:\Users\Uzair\AppData\Local\Temp\ccCzur1R.s 			page 45


delay_1ms
f_mount
__fixsfsi
f_open
f_write
f_sync
f_close
snprintf
eclic_irq_enable
rcu_periph_clock_enable
timer_deinit
timer_struct_para_init
timer_init
timer_channel_output_struct_para_init
timer_channel_output_config
timer_channel_output_pulse_value_config
timer_channel_output_mode_config
timer_channel_output_shadow_config
timer_interrupt_enable
timer_interrupt_flag_clear
timer_enable
timer_interrupt_flag_get
__mulsf3
__addsf3
__extendsfdf2
__truncdfsf2
__muldf3
__subsf3
__gtsf2
__ltsf2
configure_usb_serial
usb_serial_available
usb_delay_1ms
gpio_init
mpu6500_install
mpu6500_getAccel
eclic_global_interrupt_enable
sqrt
atan2
gpio_input_bit_get
gpio_bit_set
printf
fflush
eclic_global_interrupt_disable
gpio_bit_reset
