GAS LISTING C:\Users\Uzair\AppData\Local\Temp\ccyYjKO3.s 			page 1


   1              		.file	"main.c"
   2              		.option nopic
   3              		.attribute arch, "rv32i2p0_m2p0_a2p0_c2p0"
   4              		.attribute unaligned_access, 0
   5              		.attribute stack_align, 16
   6              		.text
   7              	.Ltext0:
   8              		.cfi_sections	.debug_frame
   9              		.section	.text.sd_init,"ax",@progbits
  10              		.align	1
  11              		.globl	sd_init
  13              	sd_init:
  14              	.LFB6:
  15              		.file 1 "main.c"
   1:main.c        **** #include <math.h>
   2:main.c        **** #include "gd32vf103.h"
   3:main.c        **** #include "delay.h"
   4:main.c        **** #include "gd32v_mpu6500_if.h"
   5:main.c        **** #include "gd32v_tf_card_if.h"
   6:main.c        **** #include "stdio.h"
   7:main.c        **** #include "string.h"
   8:main.c        **** #include "systick.h"
   9:main.c        **** 
  10:main.c        **** #define VIBRATOR_PIN        GPIO_PIN_5
  11:main.c        **** #define MAX_AVVIKELSER      300
  12:main.c        **** 
  13:main.c        **** typedef struct {
  14:main.c        ****     uint32_t timme;
  15:main.c        ****     uint32_t minut;
  16:main.c        ****     float avvikelse;
  17:main.c        **** } avvikelse_t;
  18:main.c        **** 
  19:main.c        **** avvikelse_t logg[MAX_AVVIKELSER];
  20:main.c        **** int antal_avvikelser = 0;
  21:main.c        **** volatile uint32_t millis = 0;
  22:main.c        **** 
  23:main.c        **** FATFS fs;
  24:main.c        **** FIL fil;
  25:main.c        **** UINT bw;
  26:main.c        **** int sd_monterad = 0;
  27:main.c        **** uint32_t senaste_sparning = 0;
  28:main.c        **** 
  29:main.c        **** void sd_init(void) {
  16              		.loc 1 29 20
  17              		.cfi_startproc
  30:main.c        ****     set_fattime(1980, 1, 1, 0, 0, 0);
  18              		.loc 1 30 5
  29:main.c        ****     set_fattime(1980, 1, 1, 0, 0, 0);
  19              		.loc 1 29 20 is_stmt 0
  20 0000 4111     		addi	sp,sp,-16
  21              	.LCFI0:
  22              		.cfi_def_cfa_offset 16
  23              		.loc 1 30 5
  24 0002 0546     		li	a2,1
  25 0004 8545     		li	a1,1
  26 0006 8147     		li	a5,0
  27 0008 0147     		li	a4,0
GAS LISTING C:\Users\Uzair\AppData\Local\Temp\ccyYjKO3.s 			page 2


  28 000a 8146     		li	a3,0
  29 000c 1305C07B 		li	a0,1980
  29:main.c        ****     set_fattime(1980, 1, 1, 0, 0, 0);
  30              		.loc 1 29 20
  31 0010 06C6     		sw	ra,12(sp)
  32              		.cfi_offset 1, -4
  33              		.loc 1 30 5
  34 0012 97000000 		call	set_fattime
  34      E7800000 
  35              	.LVL0:
  31:main.c        ****     delay_1ms(100);
  36              		.loc 1 31 5 is_stmt 1
  37 001a 13054006 		li	a0,100
  38 001e 97000000 		call	delay_1ms
  38      E7800000 
  39              	.LVL1:
  32:main.c        ****     FRESULT fr = f_mount(&fs, "", 1);
  40              		.loc 1 32 5
  41              		.loc 1 32 18 is_stmt 0
  42 0026 B7050000 		lui	a1,%hi(.LC0)
  43 002a 37050000 		lui	a0,%hi(fs)
  44 002e 0546     		li	a2,1
  45 0030 93850500 		addi	a1,a1,%lo(.LC0)
  46 0034 13050500 		addi	a0,a0,%lo(fs)
  47 0038 97000000 		call	f_mount
  47      E7800000 
  48              	.LVL2:
  33:main.c        ****     if (fr == FR_OK) {
  49              		.loc 1 33 5 is_stmt 1
  50              		.loc 1 33 8 is_stmt 0
  51 0040 11E5     		bne	a0,zero,.L1
  34:main.c        ****         sd_monterad = 1;
  52              		.loc 1 34 9 is_stmt 1
  53              		.loc 1 34 21 is_stmt 0
  54 0042 B7070000 		lui	a5,%hi(.LANCHOR0)
  55 0046 0547     		li	a4,1
  56 0048 23A0E700 		sw	a4,%lo(.LANCHOR0)(a5)
  57              	.L1:
  35:main.c        ****     }
  36:main.c        **** }
  58              		.loc 1 36 1
  59 004c B240     		lw	ra,12(sp)
  60              		.cfi_restore 1
  61 004e 4101     		addi	sp,sp,16
  62              	.LCFI1:
  63              		.cfi_def_cfa_offset 0
  64 0050 8280     		jr	ra
  65              		.cfi_endproc
  66              	.LFE6:
  68              		.globl	__fixsfsi
  69              		.section	.text.spara_logg,"ax",@progbits
  70              		.align	1
  71              		.globl	spara_logg
  73              	spara_logg:
  74              	.LFB7:
  37:main.c        **** 
  38:main.c        **** 
GAS LISTING C:\Users\Uzair\AppData\Local\Temp\ccyYjKO3.s 			page 3


  39:main.c        **** void spara_logg(void) {
  75              		.loc 1 39 23 is_stmt 1
  76              		.cfi_startproc
  40:main.c        ****     if (!sd_monterad || antal_avvikelser == 0) return;
  77              		.loc 1 40 5
  78              		.loc 1 40 8 is_stmt 0
  79 0000 B7070000 		lui	a5,%hi(.LANCHOR0)
  80 0004 83A70700 		lw	a5,%lo(.LANCHOR0)(a5)
  81 0008 F5C7     		beq	a5,zero,.L15
  39:main.c        ****     if (!sd_monterad || antal_avvikelser == 0) return;
  82              		.loc 1 39 23 discriminator 2
  83 000a 1D71     		addi	sp,sp,-96
  84              	.LCFI2:
  85              		.cfi_def_cfa_offset 96
  86 000c CAC8     		sw	s2,80(sp)
  87              		.cfi_offset 18, -16
  88              		.loc 1 40 42 discriminator 2
  89 000e 37090000 		lui	s2,%hi(.LANCHOR1)
  90              		.loc 1 40 22 discriminator 2
  91 0012 83270900 		lw	a5,%lo(.LANCHOR1)(s2)
  39:main.c        ****     if (!sd_monterad || antal_avvikelser == 0) return;
  92              		.loc 1 39 23 discriminator 2
  93 0016 86CE     		sw	ra,92(sp)
  94 0018 A2CC     		sw	s0,88(sp)
  95 001a A6CA     		sw	s1,84(sp)
  96 001c CEC6     		sw	s3,76(sp)
  97 001e D2C4     		sw	s4,72(sp)
  98 0020 D6C2     		sw	s5,68(sp)
  99              		.cfi_offset 1, -4
 100              		.cfi_offset 8, -8
 101              		.cfi_offset 9, -12
 102              		.cfi_offset 19, -20
 103              		.cfi_offset 20, -24
 104              		.cfi_offset 21, -28
 105 0022 13090900 		addi	s2,s2,%lo(.LANCHOR1)
 106              		.loc 1 40 22 discriminator 2
 107 0026 B5CF     		beq	a5,zero,.L4
  41:main.c        **** 
  42:main.c        ****     FRESULT fr = f_open(&fil, "LOGG.CSV", FA_WRITE | FA_OPEN_APPEND);
 108              		.loc 1 42 5 is_stmt 1
 109              		.loc 1 42 18 is_stmt 0
 110 0028 B7050000 		lui	a1,%hi(.LC1)
 111 002c 37040000 		lui	s0,%hi(fil)
 112 0030 13062003 		li	a2,50
 113 0034 93850500 		addi	a1,a1,%lo(.LC1)
 114 0038 13050400 		addi	a0,s0,%lo(fil)
 115 003c 97000000 		call	f_open
 115      E7800000 
 116              	.LVL3:
  43:main.c        ****     if (fr != FR_OK) return;
 117              		.loc 1 43 5 is_stmt 1
 118              		.loc 1 43 8 is_stmt 0
 119 0044 39ED     		bne	a0,zero,.L4
 120              	.LBB8:
 121              	.LBB9:
  44:main.c        **** 
  45:main.c        ****     if (f_size(&fil) == 0) {
GAS LISTING C:\Users\Uzair\AppData\Local\Temp\ccyYjKO3.s 			page 4


 122              		.loc 1 45 5 is_stmt 1
 123              		.loc 1 45 9 is_stmt 0
 124 0046 93070400 		addi	a5,s0,%lo(fil)
 125              		.loc 1 45 8
 126 004a DC47     		lw	a5,12(a5)
 127 004c 85E3     		bne	a5,zero,.L8
  46:main.c        ****         f_write(&fil, "Timme,Minut,Avvikelse\n", 22, &bw);
 128              		.loc 1 46 9 is_stmt 1
 129 004e B7060000 		lui	a3,%hi(bw)
 130 0052 B7050000 		lui	a1,%hi(.LC2)
 131 0056 93860600 		addi	a3,a3,%lo(bw)
 132 005a 5946     		li	a2,22
 133 005c 93850500 		addi	a1,a1,%lo(.LC2)
 134 0060 13050400 		addi	a0,s0,%lo(fil)
 135              	.LVL4:
 136 0064 97000000 		call	f_write
 136      E7800000 
 137              	.LVL5:
 138              	.L8:
 139 006c B7040000 		lui	s1,%hi(logg)
 140 0070 93840400 		addi	s1,s1,%lo(logg)
 141              	.LBE9:
 142              	.LBE8:
  39:main.c        ****     if (!sd_monterad || antal_avvikelser == 0) return;
 143              		.loc 1 39 23 is_stmt 0
 144 0074 8149     		li	s3,0
 145              	.LBB17:
 146              	.LBB15:
 147              	.LBB10:
 148              	.LBB11:
  47:main.c        ****     }
  48:main.c        **** 
  49:main.c        ****     char rad[64];
  50:main.c        ****     for (int i = 0; i < antal_avvikelser; i++) {
  51:main.c        ****         int len = snprintf(rad, sizeof(rad), "%lu,%lu,%d\n",
 149              		.loc 1 51 19
 150 0076 370A0000 		lui	s4,%hi(.LC3)
  52:main.c        ****             logg[i].timme,
  53:main.c        ****             logg[i].minut,
  54:main.c        ****             (int)logg[i].avvikelse);
  55:main.c        ****         f_write(&fil, rad, len, &bw);
 151              		.loc 1 55 9
 152 007a B70A0000 		lui	s5,%hi(bw)
 153              	.L9:
 154              	.LVL6:
 155              	.LBE11:
  50:main.c        ****         int len = snprintf(rad, sizeof(rad), "%lu,%lu,%d\n",
 156              		.loc 1 50 5
 157 007e 83270900 		lw	a5,0(s2)
 158 0082 63C9F902 		blt	s3,a5,.L10
 159              	.LBE10:
  56:main.c        ****     }
  57:main.c        **** 
  58:main.c        ****     f_sync(&fil);
 160              		.loc 1 58 5 is_stmt 1
 161 0086 13050400 		addi	a0,s0,%lo(fil)
 162 008a 97000000 		call	f_sync
GAS LISTING C:\Users\Uzair\AppData\Local\Temp\ccyYjKO3.s 			page 5


 162      E7800000 
 163              	.LVL7:
  59:main.c        ****     f_close(&fil);
 164              		.loc 1 59 5
 165 0092 13050400 		addi	a0,s0,%lo(fil)
 166 0096 97000000 		call	f_close
 166      E7800000 
 167              	.LVL8:
  60:main.c        ****     
  61:main.c        ****     antal_avvikelser = 0; 
 168              		.loc 1 61 5
 169              		.loc 1 61 22 is_stmt 0
 170 009e 23200900 		sw	zero,0(s2)
 171              	.LVL9:
 172              	.L4:
 173              	.LBE15:
 174              	.LBE17:
  62:main.c        **** }
 175              		.loc 1 62 1
 176 00a2 F640     		lw	ra,92(sp)
 177              		.cfi_remember_state
 178              		.cfi_restore 1
 179 00a4 6644     		lw	s0,88(sp)
 180              		.cfi_restore 8
 181 00a6 D644     		lw	s1,84(sp)
 182              		.cfi_restore 9
 183 00a8 4649     		lw	s2,80(sp)
 184              		.cfi_restore 18
 185 00aa B649     		lw	s3,76(sp)
 186              		.cfi_restore 19
 187 00ac 264A     		lw	s4,72(sp)
 188              		.cfi_restore 20
 189 00ae 964A     		lw	s5,68(sp)
 190              		.cfi_restore 21
 191 00b0 2561     		addi	sp,sp,96
 192              	.LCFI3:
 193              		.cfi_def_cfa_offset 0
 194 00b2 8280     		jr	ra
 195              	.LVL10:
 196              	.L10:
 197              	.LCFI4:
 198              		.cfi_restore_state
 199              	.LBB18:
 200              	.LBB16:
 201              	.LBB14:
 202              	.LBB12:
  51:main.c        ****             logg[i].timme,
 203              		.loc 1 51 9 is_stmt 1
  51:main.c        ****             logg[i].timme,
 204              		.loc 1 51 19 is_stmt 0
 205 00b4 8844     		lw	a0,8(s1)
 206              	.LBE12:
  50:main.c        ****         int len = snprintf(rad, sizeof(rad), "%lu,%lu,%d\n",
 207              		.loc 1 50 44
 208 00b6 8509     		addi	s3,s3,1
 209              	.LVL11:
 210 00b8 B104     		addi	s1,s1,12
GAS LISTING C:\Users\Uzair\AppData\Local\Temp\ccyYjKO3.s 			page 6


 211              	.LBB13:
  51:main.c        ****             logg[i].timme,
 212              		.loc 1 51 19
 213 00ba 97000000 		call	__fixsfsi
 213      E7800000 
 214              	.LVL12:
 215 00c2 03A784FF 		lw	a4,-8(s1)
 216 00c6 83A644FF 		lw	a3,-12(s1)
 217 00ca AA87     		mv	a5,a0
 218 00cc 13060A00 		addi	a2,s4,%lo(.LC3)
 219 00d0 93050004 		li	a1,64
 220 00d4 0A85     		mv	a0,sp
 221 00d6 97000000 		call	snprintf
 221      E7800000 
 222              	.LVL13:
  55:main.c        ****     }
 223              		.loc 1 55 9 is_stmt 1
 224 00de 2A86     		mv	a2,a0
 225 00e0 93860A00 		addi	a3,s5,%lo(bw)
 226 00e4 8A85     		mv	a1,sp
 227 00e6 13050400 		addi	a0,s0,%lo(fil)
 228              	.LVL14:
 229 00ea 97000000 		call	f_write
 229      E7800000 
 230              	.LVL15:
 231 00f2 71B7     		j	.L9
 232              	.LVL16:
 233              	.L15:
 234              	.LCFI5:
 235              		.cfi_def_cfa_offset 0
 236              		.cfi_restore 1
 237              		.cfi_restore 8
 238              		.cfi_restore 9
 239              		.cfi_restore 18
 240              		.cfi_restore 19
 241              		.cfi_restore 20
 242              		.cfi_restore 21
 243 00f4 8280     		ret
 244              	.LBE13:
 245              	.LBE14:
 246              	.LBE16:
 247              	.LBE18:
 248              		.cfi_endproc
 249              	.LFE7:
 251              		.section	.text.interrupt_config,"ax",@progbits
 252              		.align	1
 253              		.globl	interrupt_config
 255              	interrupt_config:
 256              	.LFB8:
  63:main.c        **** 
  64:main.c        **** 
  65:main.c        **** void interrupt_config(void) {
 257              		.loc 1 65 29
 258              		.cfi_startproc
  66:main.c        ****     timer_oc_parameter_struct timer_ocinitpara;
 259              		.loc 1 66 5
  67:main.c        ****     timer_parameter_struct timer_initpara;
GAS LISTING C:\Users\Uzair\AppData\Local\Temp\ccyYjKO3.s 			page 7


 260              		.loc 1 67 5
  68:main.c        **** 
  69:main.c        ****     eclic_irq_enable(TIMER1_IRQn, 1, 0);
 261              		.loc 1 69 5
  65:main.c        ****     timer_oc_parameter_struct timer_ocinitpara;
 262              		.loc 1 65 29 is_stmt 0
 263 0000 7971     		addi	sp,sp,-48
 264              	.LCFI6:
 265              		.cfi_def_cfa_offset 48
 266              		.loc 1 69 5
 267 0002 0146     		li	a2,0
 268 0004 8545     		li	a1,1
 269 0006 1305F002 		li	a0,47
  65:main.c        ****     timer_oc_parameter_struct timer_ocinitpara;
 270              		.loc 1 65 29
 271 000a 06D6     		sw	ra,44(sp)
 272 000c 22D4     		sw	s0,40(sp)
 273              		.cfi_offset 1, -4
 274              		.cfi_offset 8, -8
 275              		.loc 1 69 5
 276 000e 97000000 		call	eclic_irq_enable
 276      E7800000 
 277              	.LVL17:
  70:main.c        ****     rcu_periph_clock_enable(RCU_TIMER1);
 278              		.loc 1 70 5 is_stmt 1
 279 0016 13050070 		li	a0,1792
 280 001a 97000000 		call	rcu_periph_clock_enable
 280      E7800000 
 281              	.LVL18:
  71:main.c        ****     timer_deinit(TIMER1);
 282              		.loc 1 71 5
 283 0022 37050040 		li	a0,1073741824
 284 0026 97000000 		call	timer_deinit
 284      E7800000 
 285              	.LVL19:
  72:main.c        ****     timer_struct_para_init(&timer_initpara);
 286              		.loc 1 72 5
 287 002e 0808     		addi	a0,sp,16
 288 0030 97000000 		call	timer_struct_para_init
 288      E7800000 
 289              	.LVL20:
  73:main.c        **** 
  74:main.c        ****     timer_initpara.prescaler        = 1;
 290              		.loc 1 74 5
  75:main.c        ****     timer_initpara.alignedmode      = TIMER_COUNTER_EDGE;
 291              		.loc 1 75 5
  76:main.c        ****     timer_initpara.counterdirection = TIMER_COUNTER_UP;
 292              		.loc 1 76 5
  77:main.c        ****     timer_initpara.period           = 54000;
 293              		.loc 1 77 37 is_stmt 0
 294 0038 B567     		li	a5,53248
 295 003a 9387072F 		addi	a5,a5,752
  78:main.c        ****     timer_initpara.clockdivision    = TIMER_CKDIV_DIV1;
  79:main.c        ****     timer_init(TIMER1, &timer_initpara);
 296              		.loc 1 79 5
 297 003e 0C08     		addi	a1,sp,16
  74:main.c        ****     timer_initpara.alignedmode      = TIMER_COUNTER_EDGE;
GAS LISTING C:\Users\Uzair\AppData\Local\Temp\ccyYjKO3.s 			page 8


 298              		.loc 1 74 37
 299 0040 0544     		li	s0,1
 300              		.loc 1 79 5
 301 0042 37050040 		li	a0,1073741824
  77:main.c        ****     timer_initpara.period           = 54000;
 302              		.loc 1 77 37
 303 0046 3ECC     		sw	a5,24(sp)
  74:main.c        ****     timer_initpara.alignedmode      = TIMER_COUNTER_EDGE;
 304              		.loc 1 74 37
 305 0048 22C8     		sw	s0,16(sp)
  76:main.c        ****     timer_initpara.period           = 54000;
 306              		.loc 1 76 37
 307 004a 231A0100 		sh	zero,20(sp)
  77:main.c        ****     timer_initpara.clockdivision    = TIMER_CKDIV_DIV1;
 308              		.loc 1 77 5 is_stmt 1
  78:main.c        ****     timer_init(TIMER1, &timer_initpara);
 309              		.loc 1 78 5
  78:main.c        ****     timer_init(TIMER1, &timer_initpara);
 310              		.loc 1 78 37 is_stmt 0
 311 004e 231E0100 		sh	zero,28(sp)
 312              		.loc 1 79 5 is_stmt 1
 313 0052 97000000 		call	timer_init
 313      E7800000 
 314              	.LVL21:
  80:main.c        **** 
  81:main.c        ****     timer_channel_output_struct_para_init(&timer_ocinitpara);
 315              		.loc 1 81 5
 316 005a 4800     		addi	a0,sp,4
 317 005c 97000000 		call	timer_channel_output_struct_para_init
 317      E7800000 
 318              	.LVL22:
  82:main.c        ****     timer_ocinitpara.outputstate  = TIMER_CCX_ENABLE;
 319              		.loc 1 82 5
  83:main.c        ****     timer_ocinitpara.ocpolarity   = TIMER_OC_POLARITY_HIGH;
  84:main.c        ****     timer_ocinitpara.ocidlestate  = TIMER_OC_IDLE_STATE_LOW;
  85:main.c        ****     timer_channel_output_config(TIMER1, TIMER_CH_0, &timer_ocinitpara);
 320              		.loc 1 85 5 is_stmt 0
 321 0064 5000     		addi	a2,sp,4
 322 0066 8145     		li	a1,0
 323 0068 37050040 		li	a0,1073741824
  82:main.c        ****     timer_ocinitpara.outputstate  = TIMER_CCX_ENABLE;
 324              		.loc 1 82 35
 325 006c 23128100 		sh	s0,4(sp)
  83:main.c        ****     timer_ocinitpara.ocpolarity   = TIMER_OC_POLARITY_HIGH;
 326              		.loc 1 83 5 is_stmt 1
  83:main.c        ****     timer_ocinitpara.ocpolarity   = TIMER_OC_POLARITY_HIGH;
 327              		.loc 1 83 35 is_stmt 0
 328 0070 23140100 		sh	zero,8(sp)
  84:main.c        ****     timer_channel_output_config(TIMER1, TIMER_CH_0, &timer_ocinitpara);
 329              		.loc 1 84 5 is_stmt 1
  84:main.c        ****     timer_channel_output_config(TIMER1, TIMER_CH_0, &timer_ocinitpara);
 330              		.loc 1 84 35 is_stmt 0
 331 0074 23160100 		sh	zero,12(sp)
 332              		.loc 1 85 5 is_stmt 1
 333 0078 97000000 		call	timer_channel_output_config
 333      E7800000 
 334              	.LVL23:
GAS LISTING C:\Users\Uzair\AppData\Local\Temp\ccyYjKO3.s 			page 9


  86:main.c        **** 
  87:main.c        ****     timer_channel_output_pulse_value_config(TIMER1, TIMER_CH_0, 54000/2);
 335              		.loc 1 87 5
 336 0080 1D66     		li	a2,28672
 337 0082 13068697 		addi	a2,a2,-1672
 338 0086 8145     		li	a1,0
 339 0088 37050040 		li	a0,1073741824
 340 008c 97000000 		call	timer_channel_output_pulse_value_config
 340      E7800000 
 341              	.LVL24:
  88:main.c        ****     timer_channel_output_mode_config(TIMER1, TIMER_CH_0, TIMER_OC_MODE_TIMING);
 342              		.loc 1 88 5
 343 0094 0146     		li	a2,0
 344 0096 8145     		li	a1,0
 345 0098 37050040 		li	a0,1073741824
 346 009c 97000000 		call	timer_channel_output_mode_config
 346      E7800000 
 347              	.LVL25:
  89:main.c        ****     timer_channel_output_shadow_config(TIMER1, TIMER_CH_0, TIMER_OC_SHADOW_DISABLE);
 348              		.loc 1 89 5
 349 00a4 0146     		li	a2,0
 350 00a6 8145     		li	a1,0
 351 00a8 37050040 		li	a0,1073741824
 352 00ac 97000000 		call	timer_channel_output_shadow_config
 352      E7800000 
 353              	.LVL26:
  90:main.c        **** 
  91:main.c        ****     timer_interrupt_enable(TIMER1, TIMER_INT_CH0);
 354              		.loc 1 91 5
 355 00b4 8945     		li	a1,2
 356 00b6 37050040 		li	a0,1073741824
 357 00ba 97000000 		call	timer_interrupt_enable
 357      E7800000 
 358              	.LVL27:
  92:main.c        ****     timer_interrupt_flag_clear(TIMER1, TIMER_INT_CH0);
 359              		.loc 1 92 5
 360 00c2 8945     		li	a1,2
 361 00c4 37050040 		li	a0,1073741824
 362 00c8 97000000 		call	timer_interrupt_flag_clear
 362      E7800000 
 363              	.LVL28:
  93:main.c        ****     timer_enable(TIMER1);
 364              		.loc 1 93 5
 365 00d0 37050040 		li	a0,1073741824
 366 00d4 97000000 		call	timer_enable
 366      E7800000 
 367              	.LVL29:
  94:main.c        **** }
 368              		.loc 1 94 1 is_stmt 0
 369 00dc B250     		lw	ra,44(sp)
 370              		.cfi_restore 1
 371 00de 2254     		lw	s0,40(sp)
 372              		.cfi_restore 8
 373 00e0 4561     		addi	sp,sp,48
 374              	.LCFI7:
 375              		.cfi_def_cfa_offset 0
 376 00e2 8280     		jr	ra
GAS LISTING C:\Users\Uzair\AppData\Local\Temp\ccyYjKO3.s 			page 10


 377              		.cfi_endproc
 378              	.LFE8:
 380              		.section	.text.TIMER1_IRQHandler,"ax",@progbits
 381              		.align	1
 382              		.globl	TIMER1_IRQHandler
 384              	TIMER1_IRQHandler:
 385              	.LFB9:
  95:main.c        **** 
  96:main.c        **** void TIMER1_IRQHandler(void) {
 386              		.loc 1 96 30 is_stmt 1
 387              		.cfi_startproc
  97:main.c        ****     if (SET == timer_interrupt_flag_get(TIMER1, TIMER_INT_CH0)) {
 388              		.loc 1 97 5
  96:main.c        ****     if (SET == timer_interrupt_flag_get(TIMER1, TIMER_INT_CH0)) {
 389              		.loc 1 96 30 is_stmt 0
 390 0000 4111     		addi	sp,sp,-16
 391              	.LCFI8:
 392              		.cfi_def_cfa_offset 16
 393              		.loc 1 97 16
 394 0002 8945     		li	a1,2
 395 0004 37050040 		li	a0,1073741824
  96:main.c        ****     if (SET == timer_interrupt_flag_get(TIMER1, TIMER_INT_CH0)) {
 396              		.loc 1 96 30
 397 0008 06C6     		sw	ra,12(sp)
 398              		.cfi_offset 1, -4
 399              		.loc 1 97 16
 400 000a 97000000 		call	timer_interrupt_flag_get
 400      E7800000 
 401              	.LVL30:
 402              		.loc 1 97 8
 403 0012 8547     		li	a5,1
 404 0014 6312F502 		bne	a0,a5,.L20
  98:main.c        ****         millis++;
 405              		.loc 1 98 9 is_stmt 1
 406              		.loc 1 98 15 is_stmt 0
 407 0018 B7070000 		lui	a5,%hi(.LANCHOR2)
 408 001c 93870700 		addi	a5,a5,%lo(.LANCHOR2)
 409 0020 9843     		lw	a4,0(a5)
  99:main.c        ****         timer_interrupt_flag_clear(TIMER1, TIMER_INT_CH0);
 100:main.c        ****     }
 101:main.c        **** }
 410              		.loc 1 101 1
 411 0022 B240     		lw	ra,12(sp)
 412              		.cfi_remember_state
 413              		.cfi_restore 1
  99:main.c        ****         timer_interrupt_flag_clear(TIMER1, TIMER_INT_CH0);
 414              		.loc 1 99 9
 415 0024 8945     		li	a1,2
  98:main.c        ****         millis++;
 416              		.loc 1 98 15
 417 0026 0507     		addi	a4,a4,1
 418 0028 98C3     		sw	a4,0(a5)
  99:main.c        ****         timer_interrupt_flag_clear(TIMER1, TIMER_INT_CH0);
 419              		.loc 1 99 9 is_stmt 1
 420              		.loc 1 101 1 is_stmt 0
  99:main.c        ****         timer_interrupt_flag_clear(TIMER1, TIMER_INT_CH0);
 421              		.loc 1 99 9
GAS LISTING C:\Users\Uzair\AppData\Local\Temp\ccyYjKO3.s 			page 11


 422 002a 37050040 		li	a0,1073741824
 423              		.loc 1 101 1
 424 002e 4101     		addi	sp,sp,16
 425              	.LCFI9:
 426              		.cfi_def_cfa_offset 0
  99:main.c        ****         timer_interrupt_flag_clear(TIMER1, TIMER_INT_CH0);
 427              		.loc 1 99 9
 428 0030 17030000 		tail	timer_interrupt_flag_clear
 428      67000300 
 429              	.LVL31:
 430              	.L20:
 431              	.LCFI10:
 432              		.cfi_restore_state
 433              		.loc 1 101 1
 434 0038 B240     		lw	ra,12(sp)
 435              		.cfi_restore 1
 436 003a 4101     		addi	sp,sp,16
 437              	.LCFI11:
 438              		.cfi_def_cfa_offset 0
 439 003c 8280     		jr	ra
 440              		.cfi_endproc
 441              	.LFE9:
 443              		.globl	__extendsfdf2
 444              		.globl	__muldf3
 445              		.globl	__truncdfsf2
 446              		.globl	__subsf3
 447              		.globl	__gtsf2
 448              		.globl	__ltsf2
 449              		.section	.text.startup.main,"ax",@progbits
 450              		.align	1
 451              		.globl	main
 453              	main:
 454              	.LFB10:
 102:main.c        **** 
 103:main.c        **** int main(void) {
 455              		.loc 1 103 16 is_stmt 1
 456              		.cfi_startproc
 104:main.c        ****     mpu_vector_t vec, vec_temp;
 457              		.loc 1 104 5
 105:main.c        ****     float nollvinkel = 0.0;
 458              		.loc 1 105 5
 459              	.LVL32:
 106:main.c        ****     int har_kalibrerat = 0;
 460              		.loc 1 106 5
 107:main.c        ****     int utanfor = 0;
 461              		.loc 1 107 5
 108:main.c        ****     uint32_t millis_kopia = 0; 
 462              		.loc 1 108 5
 109:main.c        **** 
 110:main.c        ****     rcu_periph_clock_enable(RCU_GPIOA);
 463              		.loc 1 110 5
 103:main.c        ****     mpu_vector_t vec, vec_temp;
 464              		.loc 1 103 16 is_stmt 0
 465 0000 5971     		addi	sp,sp,-112
 466              	.LCFI12:
 467              		.cfi_def_cfa_offset 112
 468              		.loc 1 110 5
GAS LISTING C:\Users\Uzair\AppData\Local\Temp\ccyYjKO3.s 			page 12


 469 0002 13052060 		li	a0,1538
 103:main.c        ****     mpu_vector_t vec, vec_temp;
 470              		.loc 1 103 16
 471 0006 86D6     		sw	ra,108(sp)
 472 0008 A2D4     		sw	s0,104(sp)
 473 000a A6D2     		sw	s1,100(sp)
 474              		.cfi_offset 1, -4
 475              		.cfi_offset 8, -8
 476              		.cfi_offset 9, -12
 111:main.c        ****     gpio_init(GPIOA, GPIO_MODE_IN_FLOATING, GPIO_OSPEED_50MHZ, GPIO_PIN_5);
 477              		.loc 1 111 5
 478 000c 37140140 		li	s0,1073811456
 103:main.c        ****     mpu_vector_t vec, vec_temp;
 479              		.loc 1 103 16
 480 0010 CECE     		sw	s3,92(sp)
 481 0012 D2CC     		sw	s4,88(sp)
 482 0014 D6CA     		sw	s5,84(sp)
 483 0016 DAC8     		sw	s6,80(sp)
 484 0018 DEC6     		sw	s7,76(sp)
 485 001a E2C4     		sw	s8,72(sp)
 486 001c E6C2     		sw	s9,68(sp)
 487 001e 6EDE     		sw	s11,60(sp)
 488 0020 CAD0     		sw	s2,96(sp)
 489 0022 EAC0     		sw	s10,64(sp)
 490              		.cfi_offset 19, -20
 491              		.cfi_offset 20, -24
 492              		.cfi_offset 21, -28
 493              		.cfi_offset 22, -32
 494              		.cfi_offset 23, -36
 495              		.cfi_offset 24, -40
 496              		.cfi_offset 25, -44
 497              		.cfi_offset 27, -52
 498              		.cfi_offset 18, -16
 499              		.cfi_offset 26, -48
 110:main.c        ****     gpio_init(GPIOA, GPIO_MODE_IN_FLOATING, GPIO_OSPEED_50MHZ, GPIO_PIN_5);
 500              		.loc 1 110 5
 501 0024 97000000 		call	rcu_periph_clock_enable
 501      E7800000 
 502              	.LVL33:
 503              		.loc 1 111 5 is_stmt 1
 504 002c 93060002 		li	a3,32
 505 0030 0D46     		li	a2,3
 506 0032 9145     		li	a1,4
 507 0034 13050480 		addi	a0,s0,-2048
 508 0038 97000000 		call	gpio_init
 508      E7800000 
 509              	.LVL34:
 112:main.c        **** 
 113:main.c        ****     rcu_periph_clock_enable(RCU_GPIOB);
 510              		.loc 1 113 5
 511 0040 13053060 		li	a0,1539
 512 0044 97000000 		call	rcu_periph_clock_enable
 512      E7800000 
 513              	.LVL35:
 114:main.c        ****     gpio_init(GPIOB, GPIO_MODE_OUT_PP, GPIO_OSPEED_50MHZ, GPIO_PIN_0);
 514              		.loc 1 114 5
 515 004c 8546     		li	a3,1
GAS LISTING C:\Users\Uzair\AppData\Local\Temp\ccyYjKO3.s 			page 13


 516 004e 0D46     		li	a2,3
 517 0050 C145     		li	a1,16
 518 0052 130504C0 		addi	a0,s0,-1024
 519 0056 97000000 		call	gpio_init
 519      E7800000 
 520              	.LVL36:
 115:main.c        ****     gpio_init(GPIOB, GPIO_MODE_OUT_PP, GPIO_OSPEED_50MHZ, VIBRATOR_PIN);
 521              		.loc 1 115 5
 522 005e 93060002 		li	a3,32
 523 0062 0D46     		li	a2,3
 524 0064 C145     		li	a1,16
 525 0066 130504C0 		addi	a0,s0,-1024
 526 006a 97000000 		call	gpio_init
 526      E7800000 
 527              	.LVL37:
 116:main.c        **** 
 117:main.c        ****     rcu_periph_clock_enable(RCU_I2C0);
 528              		.loc 1 117 5
 529 0072 13055071 		li	a0,1813
 530 0076 97000000 		call	rcu_periph_clock_enable
 530      E7800000 
 531              	.LVL38:
 118:main.c        ****     gpio_init(GPIOB, GPIO_MODE_AF_OD, GPIO_OSPEED_50MHZ, GPIO_PIN_6 | GPIO_PIN_7);
 532              		.loc 1 118 5
 533 007e 9306000C 		li	a3,192
 534 0082 0D46     		li	a2,3
 535 0084 F145     		li	a1,28
 536 0086 130504C0 		addi	a0,s0,-1024
 537 008a 97000000 		call	gpio_init
 537      E7800000 
 538              	.LVL39:
 119:main.c        ****     mpu6500_install(I2C0);
 539              		.loc 1 119 5
 540 0092 37550040 		li	a0,1073762304
 541 0096 13050540 		addi	a0,a0,1024
 542 009a 97000000 		call	mpu6500_install
 542      E7800000 
 543              	.LVL40:
 120:main.c        **** 
 121:main.c        ****     sd_init();
 544              		.loc 1 121 5
 545 00a2 97000000 		call	sd_init
 545      E7800000 
 546              	.LVL41:
 122:main.c        **** 
 123:main.c        ****     mpu6500_getAccel(&vec_temp);
 547              		.loc 1 123 5
 548 00aa 4810     		addi	a0,sp,36
 549 00ac 97000000 		call	mpu6500_getAccel
 549      E7800000 
 550              	.LVL42:
 124:main.c        **** 
 125:main.c        ****     eclic_global_interrupt_enable();
 551              		.loc 1 125 5
 552 00b4 97000000 		call	eclic_global_interrupt_enable
 552      E7800000 
 553              	.LVL43:
GAS LISTING C:\Users\Uzair\AppData\Local\Temp\ccyYjKO3.s 			page 14


 126:main.c        ****     interrupt_config();
 554              		.loc 1 126 5
 555 00bc 97000000 		call	interrupt_config
 555      E7800000 
 556              	.LVL44:
 557              	.LBB19:
 127:main.c        **** 
 128:main.c        ****     while (1) {
 129:main.c        ****         mpu6500_getAccel(&vec);
 130:main.c        ****         
 131:main.c        ****         float nuvarande_vinkel = -atan2(vec.x, vec.z) * (180.0 / M_PI); 
 558              		.loc 1 131 55 is_stmt 0
 559 00c4 B7070000 		lui	a5,%hi(.LC4)
 560 00c8 03AA0700 		lw	s4,%lo(.LC4)(a5)
 561 00cc 83AA4700 		lw	s5,%lo(.LC4+4)(a5)
 562              	.LBB20:
 132:main.c        **** 
 133:main.c        ****         millis_kopia = millis; 
 134:main.c        ****         
 135:main.c        ****         if (gpio_input_bit_get(GPIOA, GPIO_PIN_5) == 0) {
 136:main.c        ****             nollvinkel = nuvarande_vinkel;
 137:main.c        ****             har_kalibrerat = 1;
 138:main.c        ****             gpio_bit_set(GPIOB, GPIO_PIN_0);
 139:main.c        ****             delay_1ms(50);
 140:main.c        ****         } else {
 141:main.c        ****             gpio_bit_reset(GPIOB, GPIO_PIN_0);
 142:main.c        ****         }
 143:main.c        **** 
 144:main.c        ****         float avvikelse = nuvarande_vinkel - nollvinkel;
 145:main.c        **** 
 146:main.c        ****         if (har_kalibrerat == 1) {
 147:main.c        **** 
 148:main.c        ****             if (avvikelse > 25) {
 563              		.loc 1 148 16
 564 00d0 B7070000 		lui	a5,%hi(.LC5)
 565 00d4 03AC0700 		lw	s8,%lo(.LC5)(a5)
 149:main.c        ****                 gpio_bit_set(GPIOB, VIBRATOR_PIN);
 150:main.c        ****                 if (utanfor == 0) {
 151:main.c        ****                     utanfor = 1;
 152:main.c        ****                     if (antal_avvikelser < MAX_AVVIKELSER) {
 153:main.c        ****                         logg[antal_avvikelser].timme  = millis_kopia / 3600000;
 154:main.c        ****                         logg[antal_avvikelser].minut = (millis_kopia % 3600000) / 60000;
 155:main.c        ****                         logg[antal_avvikelser].avvikelse = avvikelse;
 156:main.c        ****                         antal_avvikelser++;
 157:main.c        ****                     }
 158:main.c        ****                     if (antal_avvikelser >= MAX_AVVIKELSER) {
 159:main.c        **** 
 160:main.c        ****                         antal_avvikelser = 0; 
 161:main.c        ****                         senaste_sparning = millis_kopia; 
 162:main.c        ****                     }
 163:main.c        ****                 }
 164:main.c        ****             } else if (avvikelse < 20) {
 566              		.loc 1 164 23
 567 00d8 B7070000 		lui	a5,%hi(.LC6)
 568 00dc 83AC0700 		lw	s9,%lo(.LC6)(a5)
 153:main.c        ****                         logg[antal_avvikelser].minut = (millis_kopia % 3600000) / 60000;
 569              		.loc 1 153 55
GAS LISTING C:\Users\Uzair\AppData\Local\Temp\ccyYjKO3.s 			page 15


 570 00e0 B7040000 		lui	s1,%hi(logg)
 571              	.LBE20:
 572              	.LBE19:
 107:main.c        ****     uint32_t millis_kopia = 0; 
 573              		.loc 1 107 9
 574 00e4 814D     		li	s11,0
 106:main.c        ****     int utanfor = 0;
 575              		.loc 1 106 9
 576 00e6 814B     		li	s7,0
 105:main.c        ****     int har_kalibrerat = 0;
 577              		.loc 1 105 11
 578 00e8 93090000 		mv	s3,zero
 579              	.LBB25:
 133:main.c        ****         
 580              		.loc 1 133 22
 581 00ec 370B0000 		lui	s6,%hi(.LANCHOR2)
 582              	.LBB21:
 153:main.c        ****                         logg[antal_avvikelser].minut = (millis_kopia % 3600000) / 60000;
 583              		.loc 1 153 55
 584 00f0 93840400 		addi	s1,s1,%lo(logg)
 585              	.LVL45:
 586              	.L24:
 587              	.LBE21:
 588              	.LBE25:
 128:main.c        ****         mpu6500_getAccel(&vec);
 589              		.loc 1 128 5 is_stmt 1
 590              	.LBB26:
 129:main.c        ****         
 591              		.loc 1 129 9
 592 00f4 2808     		addi	a0,sp,24
 593 00f6 97000000 		call	mpu6500_getAccel
 593      E7800000 
 594              	.LVL46:
 131:main.c        **** 
 595              		.loc 1 131 9
 131:main.c        **** 
 596              		.loc 1 131 35 is_stmt 0
 597 00fe 0255     		lw	a0,32(sp)
 598 0100 130D0B00 		addi	s10,s6,%lo(.LANCHOR2)
 599 0104 97000000 		call	__extendsfdf2
 599      E7800000 
 600              	.LVL47:
 601 010c 2AC4     		sw	a0,8(sp)
 602 010e 6245     		lw	a0,24(sp)
 603 0110 2EC6     		sw	a1,12(sp)
 604 0112 97000000 		call	__extendsfdf2
 604      E7800000 
 605              	.LVL48:
 606 011a 2246     		lw	a2,8(sp)
 607 011c B246     		lw	a3,12(sp)
 608 011e 97000000 		call	atan2
 608      E7800000 
 609              	.LVL49:
 131:main.c        **** 
 610              		.loc 1 131 55
 611 0126 B7070080 		li	a5,-2147483648
 612 012a AD8F     		xor	a5,a5,a1
GAS LISTING C:\Users\Uzair\AppData\Local\Temp\ccyYjKO3.s 			page 16


 613 012c 5286     		mv	a2,s4
 614 012e D686     		mv	a3,s5
 615 0130 BE85     		mv	a1,a5
 616 0132 97000000 		call	__muldf3
 616      E7800000 
 617              	.LVL50:
 131:main.c        **** 
 618              		.loc 1 131 15
 619 013a 97000000 		call	__truncdfsf2
 619      E7800000 
 620              	.LVL51:
 133:main.c        ****         
 621              		.loc 1 133 22
 622 0142 93070B00 		addi	a5,s6,%lo(.LANCHOR2)
 623 0146 03A90700 		lw	s2,0(a5)
 135:main.c        ****             nollvinkel = nuvarande_vinkel;
 624              		.loc 1 135 13
 625 014a B7170140 		li	a5,1073811456
 626 014e 93050002 		li	a1,32
 131:main.c        **** 
 627              		.loc 1 131 15
 628 0152 2A84     		mv	s0,a0
 629              	.LVL52:
 133:main.c        ****         
 630              		.loc 1 133 9 is_stmt 1
 135:main.c        ****             nollvinkel = nuvarande_vinkel;
 631              		.loc 1 135 9
 135:main.c        ****             nollvinkel = nuvarande_vinkel;
 632              		.loc 1 135 13 is_stmt 0
 633 0154 13850780 		addi	a0,a5,-2048
 634 0158 97000000 		call	gpio_input_bit_get
 634      E7800000 
 635              	.LVL53:
 135:main.c        ****             nollvinkel = nuvarande_vinkel;
 636              		.loc 1 135 12
 637 0160 B7170140 		li	a5,1073811456
 138:main.c        ****             delay_1ms(50);
 638              		.loc 1 138 13
 639 0164 8545     		li	a1,1
 135:main.c        ****             nollvinkel = nuvarande_vinkel;
 640              		.loc 1 135 12
 641 0166 3DED     		bne	a0,zero,.L25
 136:main.c        ****             har_kalibrerat = 1;
 642              		.loc 1 136 13 is_stmt 1
 643              	.LVL54:
 137:main.c        ****             gpio_bit_set(GPIOB, GPIO_PIN_0);
 644              		.loc 1 137 13
 138:main.c        ****             delay_1ms(50);
 645              		.loc 1 138 13
 646 0168 138507C0 		addi	a0,a5,-1024
 647 016c 97000000 		call	gpio_bit_set
 647      E7800000 
 648              	.LVL55:
 139:main.c        ****         } else {
 649              		.loc 1 139 13
 650 0174 13052003 		li	a0,50
 651 0178 97000000 		call	delay_1ms
GAS LISTING C:\Users\Uzair\AppData\Local\Temp\ccyYjKO3.s 			page 17


 651      E7800000 
 652              	.LVL56:
 144:main.c        **** 
 653              		.loc 1 144 9
 146:main.c        **** 
 654              		.loc 1 146 9
 136:main.c        ****             har_kalibrerat = 1;
 655              		.loc 1 136 24 is_stmt 0
 656 0180 A289     		mv	s3,s0
 657              	.LVL57:
 658              	.L26:
 144:main.c        **** 
 659              		.loc 1 144 15
 660 0182 CE85     		mv	a1,s3
 661 0184 2285     		mv	a0,s0
 662 0186 97000000 		call	__subsf3
 662      E7800000 
 663              	.LVL58:
 664              	.LBB22:
 148:main.c        ****                 gpio_bit_set(GPIOB, VIBRATOR_PIN);
 665              		.loc 1 148 16
 666 018e E285     		mv	a1,s8
 667              	.LBE22:
 144:main.c        **** 
 668              		.loc 1 144 15
 669 0190 AA8B     		mv	s7,a0
 670              	.LVL59:
 671              	.LBB23:
 148:main.c        ****                 gpio_bit_set(GPIOB, VIBRATOR_PIN);
 672              		.loc 1 148 13 is_stmt 1
 673 0192 37040000 		lui	s0,%hi(.LANCHOR3)
 674              	.LVL60:
 148:main.c        ****                 gpio_bit_set(GPIOB, VIBRATOR_PIN);
 675              		.loc 1 148 16 is_stmt 0
 676 0196 97000000 		call	__gtsf2
 676      E7800000 
 677              	.LVL61:
 678 019e 13040400 		addi	s0,s0,%lo(.LANCHOR3)
 679 01a2 6355A00A 		ble	a0,zero,.L39
 149:main.c        ****                 if (utanfor == 0) {
 680              		.loc 1 149 17 is_stmt 1
 681 01a6 37150140 		li	a0,1073811456
 682 01aa 93050002 		li	a1,32
 683 01ae 130505C0 		addi	a0,a0,-1024
 684 01b2 97000000 		call	gpio_bit_set
 684      E7800000 
 685              	.LVL62:
 150:main.c        ****                     utanfor = 1;
 686              		.loc 1 150 17
 150:main.c        ****                     utanfor = 1;
 687              		.loc 1 150 20 is_stmt 0
 688 01ba 638E0D02 		beq	s11,zero,.L30
 689              	.LVL63:
 690              	.L41:
 151:main.c        ****                     if (antal_avvikelser < MAX_AVVIKELSER) {
 691              		.loc 1 151 29
 692 01be 854D     		li	s11,1
GAS LISTING C:\Users\Uzair\AppData\Local\Temp\ccyYjKO3.s 			page 18


 693              	.L31:
 694              	.LVL64:
 165:main.c        ****                 gpio_bit_reset(GPIOB, VIBRATOR_PIN);
 166:main.c        ****                 utanfor = 0;
 167:main.c        ****             }
 168:main.c        **** 
 169:main.c        ****             uint32_t nuvarande_tid = millis;   
 695              		.loc 1 169 13 is_stmt 1
 696              		.loc 1 169 22 is_stmt 0
 697 01c0 03290D00 		lw	s2,0(s10)
 698              	.LVL65:
 170:main.c        **** 
 171:main.c        ****             if (nuvarande_tid - senaste_sparning >= 20000) {
 699              		.loc 1 171 13 is_stmt 1
 700              		.loc 1 171 31 is_stmt 0
 701 01c4 1840     		lw	a4,0(s0)
 702              		.loc 1 171 16
 703 01c6 9567     		li	a5,20480
 704 01c8 9387F7E1 		addi	a5,a5,-481
 705              		.loc 1 171 31
 706 01cc 3307E940 		sub	a4,s2,a4
 707 01d0 854B     		li	s7,1
 708              		.loc 1 171 16
 709 01d2 E3F1E7F2 		bleu	a4,a5,.L24
 172:main.c        ****                 spara_logg();
 710              		.loc 1 172 17 is_stmt 1
 711 01d6 97000000 		call	spara_logg
 711      E7800000 
 712              	.LVL66:
 173:main.c        ****                 senaste_sparning = nuvarande_tid; 
 713              		.loc 1 173 17
 714              		.loc 1 173 34 is_stmt 0
 715 01de 23202401 		sw	s2,0(s0)
 716 01e2 09BF     		j	.L24
 717              	.LVL67:
 718              	.L25:
 719              	.LBE23:
 141:main.c        ****         }
 720              		.loc 1 141 13 is_stmt 1
 721 01e4 138507C0 		addi	a0,a5,-1024
 722 01e8 97000000 		call	gpio_bit_reset
 722      E7800000 
 723              	.LVL68:
 144:main.c        **** 
 724              		.loc 1 144 9
 146:main.c        **** 
 725              		.loc 1 146 9
 146:main.c        **** 
 726              		.loc 1 146 12 is_stmt 0
 727 01f0 E3820BF0 		beq	s7,zero,.L24
 728 01f4 79B7     		j	.L26
 729              	.LVL69:
 730              	.L30:
 731              	.LBB24:
 151:main.c        ****                     if (antal_avvikelser < MAX_AVVIKELSER) {
 732              		.loc 1 151 21 is_stmt 1
 152:main.c        ****                         logg[antal_avvikelser].timme  = millis_kopia / 3600000;
GAS LISTING C:\Users\Uzair\AppData\Local\Temp\ccyYjKO3.s 			page 19


 733              		.loc 1 152 21
 152:main.c        ****                         logg[antal_avvikelser].timme  = millis_kopia / 3600000;
 734              		.loc 1 152 42 is_stmt 0
 735 01f6 37060000 		lui	a2,%hi(.LANCHOR1)
 736 01fa 83260600 		lw	a3,%lo(.LANCHOR1)(a2)
 152:main.c        ****                         logg[antal_avvikelser].timme  = millis_kopia / 3600000;
 737              		.loc 1 152 24
 738 01fe 9307B012 		li	a5,299
 739 0202 13060600 		addi	a2,a2,%lo(.LANCHOR1)
 740 0206 63D7D700 		ble	a3,a5,.L32
 741              	.L33:
 160:main.c        ****                         senaste_sparning = millis_kopia; 
 742              		.loc 1 160 25 is_stmt 1
 160:main.c        ****                         senaste_sparning = millis_kopia; 
 743              		.loc 1 160 42 is_stmt 0
 744 020a 23200600 		sw	zero,0(a2)
 161:main.c        ****                     }
 745              		.loc 1 161 25 is_stmt 1
 161:main.c        ****                     }
 746              		.loc 1 161 42 is_stmt 0
 747 020e 23202401 		sw	s2,0(s0)
 748 0212 75B7     		j	.L41
 749              	.L32:
 153:main.c        ****                         logg[antal_avvikelser].minut = (millis_kopia % 3600000) / 60000;
 750              		.loc 1 153 25 is_stmt 1
 153:main.c        ****                         logg[antal_avvikelser].minut = (millis_kopia % 3600000) / 60000;
 751              		.loc 1 153 70 is_stmt 0
 752 0214 B7F73600 		li	a5,3600384
 753 0218 938707E8 		addi	a5,a5,-384
 754 021c B355F902 		divu	a1,s2,a5
 153:main.c        ****                         logg[antal_avvikelser].minut = (millis_kopia % 3600000) / 60000;
 755              		.loc 1 153 55
 756 0220 3147     		li	a4,12
 154:main.c        ****                         logg[antal_avvikelser].avvikelse = avvikelse;
 757              		.loc 1 154 70
 758 0222 B377F902 		remu	a5,s2,a5
 153:main.c        ****                         logg[antal_avvikelser].minut = (millis_kopia % 3600000) / 60000;
 759              		.loc 1 153 55
 760 0226 3387E602 		mul	a4,a3,a4
 156:main.c        ****                     }
 761              		.loc 1 156 41
 762 022a 8506     		addi	a3,a3,1
 763 022c 14C2     		sw	a3,0(a2)
 153:main.c        ****                         logg[antal_avvikelser].minut = (millis_kopia % 3600000) / 60000;
 764              		.loc 1 153 55
 765 022e 2697     		add	a4,s1,a4
 766 0230 0CC3     		sw	a1,0(a4)
 154:main.c        ****                         logg[antal_avvikelser].avvikelse = avvikelse;
 767              		.loc 1 154 25 is_stmt 1
 154:main.c        ****                         logg[antal_avvikelser].avvikelse = avvikelse;
 768              		.loc 1 154 81 is_stmt 0
 769 0232 BD65     		li	a1,61440
 770 0234 938505A6 		addi	a1,a1,-1440
 771 0238 B3D7B702 		divu	a5,a5,a1
 155:main.c        ****                         antal_avvikelser++;
 772              		.loc 1 155 58
 773 023c 23247701 		sw	s7,8(a4)
GAS LISTING C:\Users\Uzair\AppData\Local\Temp\ccyYjKO3.s 			page 20


 154:main.c        ****                         logg[antal_avvikelser].avvikelse = avvikelse;
 774              		.loc 1 154 54
 775 0240 5CC3     		sw	a5,4(a4)
 155:main.c        ****                         antal_avvikelser++;
 776              		.loc 1 155 25 is_stmt 1
 156:main.c        ****                     }
 777              		.loc 1 156 25
 158:main.c        **** 
 778              		.loc 1 158 21
 158:main.c        **** 
 779              		.loc 1 158 24 is_stmt 0
 780 0242 9307C012 		li	a5,300
 781 0246 E39CF6F6 		bne	a3,a5,.L41
 782 024a C1B7     		j	.L33
 783              	.LVL70:
 784              	.L39:
 164:main.c        ****                 gpio_bit_reset(GPIOB, VIBRATOR_PIN);
 785              		.loc 1 164 20 is_stmt 1
 164:main.c        ****                 gpio_bit_reset(GPIOB, VIBRATOR_PIN);
 786              		.loc 1 164 23 is_stmt 0
 787 024c E685     		mv	a1,s9
 788 024e 5E85     		mv	a0,s7
 789 0250 97000000 		call	__ltsf2
 789      E7800000 
 790              	.LVL71:
 791 0258 E35405F6 		bge	a0,zero,.L31
 165:main.c        ****                 utanfor = 0;
 792              		.loc 1 165 17 is_stmt 1
 793 025c 37150140 		li	a0,1073811456
 794 0260 93050002 		li	a1,32
 795 0264 130505C0 		addi	a0,a0,-1024
 796 0268 97000000 		call	gpio_bit_reset
 796      E7800000 
 797              	.LVL72:
 166:main.c        ****             }
 798              		.loc 1 166 17
 166:main.c        ****             }
 799              		.loc 1 166 25 is_stmt 0
 800 0270 814D     		li	s11,0
 801 0272 B9B7     		j	.L31
 802              	.LBE24:
 803              	.LBE26:
 804              		.cfi_endproc
 805              	.LFE10:
 807              		.globl	senaste_sparning
 808              		.globl	sd_monterad
 809              		.comm	bw,4,4
 810              		.comm	fil,552,4
 811              		.comm	fs,560,4
 812              		.globl	millis
 813              		.globl	antal_avvikelser
 814              		.comm	logg,3600,4
 815              		.section	.rodata.main.cst4,"aM",@progbits,4
 816              		.align	2
 817              	.LC5:
 818 0000 0000C841 		.word	1103626240
 819              	.LC6:
GAS LISTING C:\Users\Uzair\AppData\Local\Temp\ccyYjKO3.s 			page 21


 820 0004 0000A041 		.word	1101004800
 821              		.section	.rodata.main.cst8,"aM",@progbits,8
 822              		.align	3
 823              	.LC4:
 824 0000 F8C1631A 		.word	442745336
 825 0004 DCA54C40 		.word	1078765020
 826              		.section	.rodata.sd_init.str1.4,"aMS",@progbits,1
 827              		.align	2
 828              	.LC0:
 829 0000 00       		.string	""
 830              		.section	.rodata.spara_logg.str1.4,"aMS",@progbits,1
 831              		.align	2
 832              	.LC1:
 833 0000 4C4F4747 		.string	"LOGG.CSV"
 833      2E435356 
 833      00
 834 0009 000000   		.zero	3
 835              	.LC2:
 836 000c 54696D6D 		.string	"Timme,Minut,Avvikelse\n"
 836      652C4D69 
 836      6E75742C 
 836      41767669 
 836      6B656C73 
 837 0023 00       		.zero	1
 838              	.LC3:
 839 0024 256C752C 		.string	"%lu,%lu,%d\n"
 839      256C752C 
 839      25640A00 
 840              		.section	.sbss.antal_avvikelser,"aw",@nobits
 841              		.align	2
 842              		.set	.LANCHOR1,. + 0
 845              	antal_avvikelser:
 846 0000 00000000 		.zero	4
 847              		.section	.sbss.millis,"aw",@nobits
 848              		.align	2
 849              		.set	.LANCHOR2,. + 0
 852              	millis:
 853 0000 00000000 		.zero	4
 854              		.section	.sbss.sd_monterad,"aw",@nobits
 855              		.align	2
 856              		.set	.LANCHOR0,. + 0
 859              	sd_monterad:
 860 0000 00000000 		.zero	4
 861              		.section	.sbss.senaste_sparning,"aw",@nobits
 862              		.align	2
 863              		.set	.LANCHOR3,. + 0
 866              	senaste_sparning:
 867 0000 00000000 		.zero	4
 868              		.text
 869              	.Letext0:
 870              		.file 2 "c:\\kth\\he1043\\toolchain-gd32v-v202-win\\toolchain-gd32v-v202-win\\compiler\\lib\\gcc\\
 871              		.file 3 "c:\\kth\\he1043\\toolchain-gd32v-v202-win\\toolchain-gd32v-v202-win\\compiler\\riscv64-un
 872              		.file 4 "c:\\kth\\he1043\\toolchain-gd32v-v202-win\\toolchain-gd32v-v202-win\\compiler\\riscv64-un
 873              		.file 5 "c:\\kth\\he1043\\toolchain-gd32v-v202-win\\toolchain-gd32v-v202-win\\compiler\\riscv64-un
 874              		.file 6 "c:\\kth\\he1043\\toolchain-gd32v-v202-win\\toolchain-gd32v-v202-win\\compiler\\riscv64-un
 875              		.file 7 "c:\\kth\\he1043\\toolchain-gd32v-v202-win\\toolchain-gd32v-v202-win\\compiler\\riscv64-un
 876              		.file 8 "./../../firmware/GD32VF103_standard_peripheral/gd32vf103.h"
GAS LISTING C:\Users\Uzair\AppData\Local\Temp\ccyYjKO3.s 			page 22


 877              		.file 9 "c:\\kth\\he1043\\toolchain-gd32v-v202-win\\toolchain-gd32v-v202-win\\compiler\\riscv64-un
 878              		.file 10 "./../../firmware/GD32VF103_standard_peripheral/system_gd32vf103.h"
 879              		.file 11 "./../../firmware/GD32VF103_standard_peripheral/Include/gd32vf103_rcu.h"
 880              		.file 12 "./../../firmware/GD32VF103_standard_peripheral/Include/gd32vf103_timer.h"
 881              		.file 13 "mpu6500_driver.h"
 882              		.file 14 "ff.h"
 883              		.file 15 "./../../firmware/GD32VF103_standard_peripheral/Include/gd32vf103_gpio.h"
 884              		.file 16 "systick.h"
 885              		.file 17 "gd32v_mpu6500_if.h"
 886              		.file 18 "./../../firmware/GD32VF103_standard_peripheral/Include/gd32vf103_eclic.h"
 887              		.file 19 "gd32v_tf_card_if.h"
 888              		.file 20 "c:\\kth\\he1043\\toolchain-gd32v-v202-win\\toolchain-gd32v-v202-win\\compiler\\riscv64-u
GAS LISTING C:\Users\Uzair\AppData\Local\Temp\ccyYjKO3.s 			page 23

