GAS LISTING C:\Users\Uzair\AppData\Local\Temp\cc1gXnIM.s 			page 1


   1              		.file	"main.c"
   2              		.option nopic
   3              		.attribute arch, "rv32i2p0_m2p0_a2p0_c2p0"
   4              		.attribute unaligned_access, 0
   5              		.attribute stack_align, 16
   6              		.text
   7              	.Ltext0:
   8              		.cfi_sections	.debug_frame
   9              		.comm	logg,3600,4
  10              		.globl	antal_avvikelser
  11              		.globl	millis
  12              		.section	.text.initStaticTimer,"ax",@progbits
  13              		.align	1
  14              		.globl	initStaticTimer
  16              	initStaticTimer:
  17              	.LFB6:
  18              		.file 1 "main.c"
   1:main.c        **** /*!
   2:main.c        ****     \file  main.c
   3:main.c        ****     \brief USB CDC ACM device
   4:main.c        ****  
   5:main.c        ****     \version 2019-6-5, V1.0.0, demo for GD32VF103
   6:main.c        **** */
   7:main.c        ****  
   8:main.c        **** /*
   9:main.c        ****     Copyright (c) 2019, GigaDevice Semiconductor Inc.
  10:main.c        ****  
  11:main.c        ****     Redistribution and use in source and binary forms, with or without modification, 
  12:main.c        **** are permitted provided that the following conditions are met:
  13:main.c        ****  
  14:main.c        ****     1. Redistributions of source code must retain the above copyright notice, this 
  15:main.c        ****        list of conditions and the following disclaimer.
  16:main.c        ****     2. Redistributions in binary form must reproduce the above copyright notice, 
  17:main.c        ****        this list of conditions and the following disclaimer in the documentation 
  18:main.c        ****        and/or other materials provided with the distribution.
  19:main.c        ****     3. Neither the name of the copyright holder nor the names of its contributors 
  20:main.c        ****        may be used to endorse or promote products derived from this software without 
  21:main.c        ****        specific prior written permission.
  22:main.c        ****  
  23:main.c        ****     THIS SOFTWARE IS PROVIDED BY THE COPYRIGHT HOLDERS AND CONTRIBUTORS "AS IS" 
  24:main.c        **** AND ANY EXPRESS OR IMPLIED WARRANTIES, INCLUDING, BUT NOT LIMITED TO, THE IMPLIED 
  25:main.c        **** WARRANTIES OF MERCHANTABILITY AND FITNESS FOR A PARTICULAR PURPOSE ARE DISCLAIMED. 
  26:main.c        **** IN NO EVENT SHALL THE COPYRIGHT HOLDER OR CONTRIBUTORS BE LIABLE FOR ANY DIRECT, 
  27:main.c        **** INDIRECT, INCIDENTAL, SPECIAL, EXEMPLARY, OR CONSEQUENTIAL DAMAGES (INCLUDING, BUT 
  28:main.c        **** NOT LIMITED TO, PROCUREMENT OF SUBSTITUTE GOODS OR SERVICES; LOSS OF USE, DATA, OR 
  29:main.c        **** PROFITS; OR BUSINESS INTERRUPTION) HOWEVER CAUSED AND ON ANY THEORY OF LIABILITY, 
  30:main.c        **** WHETHER IN CONTRACT, STRICT LIABILITY, OR TORT (INCLUDING NEGLIGENCE OR OTHERWISE) 
  31:main.c        **** ARISING IN ANY WAY OUT OF THE USE OF THIS SOFTWARE, EVEN IF ADVISED OF THE POSSIBILITY 
  32:main.c        **** OF SUCH DAMAGE.
  33:main.c        **** */
  34:main.c        ****  
  35:main.c        **** #include <math.h>
  36:main.c        **** #include "gd32vf103.h"
  37:main.c        **** #include "lcd.h"
  38:main.c        **** #include "delay.h"
  39:main.c        **** #include "gd32v_mpu6500_if.h"
  40:main.c        **** #include "usb_serial_if.h"
GAS LISTING C:\Users\Uzair\AppData\Local\Temp\cc1gXnIM.s 			page 2


  41:main.c        **** #include "usb_delay.h"
  42:main.c        ****  
  43:main.c        **** #define GRAPH_HEIGHT        30
  44:main.c        **** #define VIBRATOR_PIN        GPIO_PIN_5
  45:main.c        **** #define MAX_AVVIKELSER      300
  46:main.c        **** #define STATIC_THRESHOLD    5.0f
  47:main.c        **** #define TIME_20_MIN_MS      (20 * 60 * 1000)
  48:main.c        ****  
  49:main.c        **** typedef struct {
  50:main.c        ****     uint32_t minuter;
  51:main.c        ****     uint32_t sekunder;
  52:main.c        ****     float avvikelse;
  53:main.c        **** } avvikelse_t;
  54:main.c        ****  
  55:main.c        **** typedef struct {
  56:main.c        ****     float ref_angle;
  57:main.c        ****     uint32_t start_time;
  58:main.c        ****     int is_static;
  59:main.c        ****     int stage;
  60:main.c        **** } StaticTimer;
  61:main.c        ****  
  62:main.c        **** avvikelse_t logg[MAX_AVVIKELSER];
  63:main.c        **** int antal_avvikelser = 0;
  64:main.c        ****  
  65:main.c        **** volatile uint32_t millis = 0;
  66:main.c        ****  
  67:main.c        **** void initStaticTimer(StaticTimer *t, float current_angle, uint32_t now) {
  19              		.loc 1 67 73
  20              		.cfi_startproc
  21              	.LVL0:
  68:main.c        ****     t->ref_angle  = current_angle;
  22              		.loc 1 68 5
  23              		.loc 1 68 19 is_stmt 0
  24 0000 0CC1     		sw	a1,0(a0)
  69:main.c        ****     t->start_time = now;
  25              		.loc 1 69 5 is_stmt 1
  26              		.loc 1 69 19 is_stmt 0
  27 0002 50C1     		sw	a2,4(a0)
  70:main.c        ****     t->is_static  = 0;
  28              		.loc 1 70 5 is_stmt 1
  29              		.loc 1 70 19 is_stmt 0
  30 0004 23240500 		sw	zero,8(a0)
  71:main.c        ****     t->stage      = 0;
  31              		.loc 1 71 5 is_stmt 1
  32              		.loc 1 71 19 is_stmt 0
  33 0008 23260500 		sw	zero,12(a0)
  72:main.c        **** }
  34              		.loc 1 72 1
  35 000c 8280     		ret
  36              		.cfi_endproc
  37              	.LFE6:
  39              		.globl	__subsf3
  40              		.globl	__ltsf2
  41              		.globl	__lesf2
  42              		.section	.text.updateStaticTimer,"ax",@progbits
  43              		.align	1
  44              		.globl	updateStaticTimer
GAS LISTING C:\Users\Uzair\AppData\Local\Temp\cc1gXnIM.s 			page 3


  46              	updateStaticTimer:
  47              	.LFB7:
  73:main.c        ****  
  74:main.c        **** int updateStaticTimer(StaticTimer *t, float current_angle, uint32_t now) {
  48              		.loc 1 74 74 is_stmt 1
  49              		.cfi_startproc
  50              	.LVL1:
  51 0000 0111     		addi	sp,sp,-32
  52              	.LCFI0:
  53              		.cfi_def_cfa_offset 32
  54 0002 4EC6     		sw	s3,12(sp)
  55              		.cfi_offset 19, -20
  56 0004 AE89     		mv	s3,a1
  75:main.c        ****     float diff = current_angle - t->ref_angle;
  57              		.loc 1 75 11 is_stmt 0
  58 0006 0C41     		lw	a1,0(a0)
  59              	.LVL2:
  74:main.c        ****     float diff = current_angle - t->ref_angle;
  60              		.loc 1 74 74
  61 0008 22CC     		sw	s0,24(sp)
  62              		.cfi_offset 8, -8
  63 000a 2A84     		mv	s0,a0
  64              		.loc 1 75 5 is_stmt 1
  65              		.loc 1 75 11 is_stmt 0
  66 000c 4E85     		mv	a0,s3
  67              	.LVL3:
  74:main.c        ****     float diff = current_angle - t->ref_angle;
  68              		.loc 1 74 74
  69 000e 26CA     		sw	s1,20(sp)
  70 0010 4AC8     		sw	s2,16(sp)
  71 0012 06CE     		sw	ra,28(sp)
  72              		.cfi_offset 9, -12
  73              		.cfi_offset 18, -16
  74              		.cfi_offset 1, -4
  74:main.c        ****     float diff = current_angle - t->ref_angle;
  75              		.loc 1 74 74
  76 0014 B284     		mv	s1,a2
  77              		.loc 1 75 11
  78 0016 97000000 		call	__subsf3
  78      E7800000 
  79              	.LVL4:
  76:main.c        ****     if (diff < 0) diff = -diff;
  80              		.loc 1 76 8
  81 001e 93050000 		mv	a1,zero
  75:main.c        ****     float diff = current_angle - t->ref_angle;
  82              		.loc 1 75 11
  83 0022 2A89     		mv	s2,a0
  84              	.LVL5:
  85              		.loc 1 76 5 is_stmt 1
  86              		.loc 1 76 8 is_stmt 0
  87 0024 97000000 		call	__ltsf2
  87      E7800000 
  88              	.LVL6:
  89 002c 63560500 		bge	a0,zero,.L3
  90              		.loc 1 76 19 is_stmt 1 discriminator 1
  91              		.loc 1 76 24 is_stmt 0 discriminator 1
  92 0030 B7070080 		li	a5,-2147483648
GAS LISTING C:\Users\Uzair\AppData\Local\Temp\cc1gXnIM.s 			page 4


  93 0034 33C92701 		xor	s2,a5,s2
  94              	.LVL7:
  95              	.L3:
  77:main.c        ****  
  78:main.c        ****     if (diff <= STATIC_THRESHOLD) {
  96              		.loc 1 78 5 is_stmt 1
  97              		.loc 1 78 8 is_stmt 0
  98 0038 B7070000 		lui	a5,%hi(.LANCHOR0)
  99 003c 83A50700 		lw	a1,%lo(.LANCHOR0)(a5)
 100 0040 4A85     		mv	a0,s2
 101 0042 97000000 		call	__lesf2
 101      E7800000 
 102              	.LVL8:
 103 004a 634BA004 		bgt	a0,zero,.L15
 104              	.LBB11:
  79:main.c        ****         if (!t->is_static) {
 105              		.loc 1 79 9 is_stmt 1
 106              		.loc 1 79 12 is_stmt 0
 107 004e 1C44     		lw	a5,8(s0)
 108 0050 91E7     		bne	a5,zero,.L7
  80:main.c        ****             t->is_static  = 1;
 109              		.loc 1 80 13 is_stmt 1
 110              		.loc 1 80 27 is_stmt 0
 111 0052 8547     		li	a5,1
 112 0054 1CC4     		sw	a5,8(s0)
  81:main.c        ****             t->start_time = now;
 113              		.loc 1 81 13 is_stmt 1
 114              		.loc 1 81 27 is_stmt 0
 115 0056 44C0     		sw	s1,4(s0)
  82:main.c        ****             t->stage      = 0;
 116              		.loc 1 82 13 is_stmt 1
 117              		.loc 1 82 27 is_stmt 0
 118 0058 23260400 		sw	zero,12(s0)
 119              	.L7:
  83:main.c        ****         }
  84:main.c        ****         uint32_t elapsed = now - t->start_time;
 120              		.loc 1 84 9 is_stmt 1
 121              		.loc 1 84 18 is_stmt 0
 122 005c 5040     		lw	a2,4(s0)
  85:main.c        ****         if (elapsed >= TIME_20_MIN_MS && t->stage == 0) {
 123              		.loc 1 85 12
 124 005e B7571200 		li	a5,1200128
 125 0062 9387F7F7 		addi	a5,a5,-129
  84:main.c        ****         if (elapsed >= TIME_20_MIN_MS && t->stage == 0) {
 126              		.loc 1 84 18
 127 0066 918C     		sub	s1,s1,a2
 128              	.LVL9:
 129              		.loc 1 85 9 is_stmt 1
 130              	.LBE11:
  86:main.c        ****             t->stage = 1;
  87:main.c        ****             return 1;
  88:main.c        ****         }
  89:main.c        ****         if (elapsed >= 2 * TIME_20_MIN_MS && t->stage == 1) {
  90:main.c        ****             t->stage = 2;
  91:main.c        ****             return 2;
  92:main.c        ****         }
  93:main.c        ****     } else {
GAS LISTING C:\Users\Uzair\AppData\Local\Temp\cc1gXnIM.s 			page 5


  94:main.c        ****         t->ref_angle = current_angle;
  95:main.c        ****         t->is_static = 0;
  96:main.c        ****         t->stage     = 0;
  97:main.c        ****     }
  98:main.c        ****     return 0;
 131              		.loc 1 98 12 is_stmt 0
 132 0068 0145     		li	a0,0
 133              	.LBB12:
  85:main.c        ****             t->stage = 1;
 134              		.loc 1 85 12
 135 006a 63F79700 		bleu	s1,a5,.L2
  85:main.c        ****             t->stage = 1;
 136              		.loc 1 85 43 discriminator 1
 137 006e 5844     		lw	a4,12(s0)
  85:main.c        ****             t->stage = 1;
 138              		.loc 1 85 39 discriminator 1
 139 0070 19EB     		bne	a4,zero,.L9
  86:main.c        ****             t->stage = 1;
 140              		.loc 1 86 13 is_stmt 1
  86:main.c        ****             t->stage = 1;
 141              		.loc 1 86 22 is_stmt 0
 142 0072 8547     		li	a5,1
 143 0074 5CC4     		sw	a5,12(s0)
  87:main.c        ****         }
 144              		.loc 1 87 13 is_stmt 1
  87:main.c        ****         }
 145              		.loc 1 87 20 is_stmt 0
 146 0076 0545     		li	a0,1
 147              	.LVL10:
 148              	.L2:
 149              	.LBE12:
  99:main.c        **** }
 150              		.loc 1 99 1
 151 0078 F240     		lw	ra,28(sp)
 152              		.cfi_remember_state
 153              		.cfi_restore 1
 154 007a 6244     		lw	s0,24(sp)
 155              		.cfi_restore 8
 156              	.LVL11:
 157 007c D244     		lw	s1,20(sp)
 158              		.cfi_restore 9
 159 007e 4249     		lw	s2,16(sp)
 160              		.cfi_restore 18
 161              	.LVL12:
 162 0080 B249     		lw	s3,12(sp)
 163              		.cfi_restore 19
 164              	.LVL13:
 165 0082 0561     		addi	sp,sp,32
 166              	.LCFI1:
 167              		.cfi_def_cfa_offset 0
 168 0084 8280     		jr	ra
 169              	.LVL14:
 170              	.L9:
 171              	.LCFI2:
 172              		.cfi_restore_state
 173              	.LBB13:
  89:main.c        ****             t->stage = 2;
GAS LISTING C:\Users\Uzair\AppData\Local\Temp\cc1gXnIM.s 			page 6


 174              		.loc 1 89 9 is_stmt 1
  89:main.c        ****             t->stage = 2;
 175              		.loc 1 89 12 is_stmt 0
 176 0086 B7A72400 		li	a5,2400256
 177 008a 9387F7EF 		addi	a5,a5,-257
 178 008e E3F597FE 		bleu	s1,a5,.L2
 179              	.LVL15:
 180              	.LBE13:
 181              	.LBB14:
 182              	.LBB15:
 183              	.LBB16:
  89:main.c        ****             t->stage = 2;
 184              		.loc 1 89 43
 185 0092 8547     		li	a5,1
 186 0094 E312F7FE 		bne	a4,a5,.L2
  90:main.c        ****             return 2;
 187              		.loc 1 90 13 is_stmt 1
  90:main.c        ****             return 2;
 188              		.loc 1 90 22 is_stmt 0
 189 0098 8947     		li	a5,2
 190 009a 5CC4     		sw	a5,12(s0)
  91:main.c        ****         }
 191              		.loc 1 91 13 is_stmt 1
  91:main.c        ****         }
 192              		.loc 1 91 20 is_stmt 0
 193 009c 0945     		li	a0,2
 194 009e E9BF     		j	.L2
 195              	.LVL16:
 196              	.L15:
 197              	.LBE16:
 198              	.LBE15:
 199              	.LBE14:
  94:main.c        ****         t->is_static = 0;
 200              		.loc 1 94 9 is_stmt 1
  94:main.c        ****         t->is_static = 0;
 201              		.loc 1 94 22 is_stmt 0
 202 00a0 23203401 		sw	s3,0(s0)
  95:main.c        ****         t->stage     = 0;
 203              		.loc 1 95 9 is_stmt 1
  95:main.c        ****         t->stage     = 0;
 204              		.loc 1 95 22 is_stmt 0
 205 00a4 23240400 		sw	zero,8(s0)
  96:main.c        ****     }
 206              		.loc 1 96 9 is_stmt 1
  96:main.c        ****     }
 207              		.loc 1 96 22 is_stmt 0
 208 00a8 23260400 		sw	zero,12(s0)
  98:main.c        **** }
 209              		.loc 1 98 12
 210 00ac 0145     		li	a0,0
 211 00ae E9B7     		j	.L2
 212              		.cfi_endproc
 213              	.LFE7:
 215              		.section	.text.interrupt_config,"ax",@progbits
 216              		.align	1
 217              		.globl	interrupt_config
 219              	interrupt_config:
GAS LISTING C:\Users\Uzair\AppData\Local\Temp\cc1gXnIM.s 			page 7


 220              	.LFB8:
 100:main.c        ****  
 101:main.c        **** void interrupt_config(void) {
 221              		.loc 1 101 29 is_stmt 1
 222              		.cfi_startproc
 102:main.c        ****     timer_oc_parameter_struct timer_ocinitpara;
 223              		.loc 1 102 5
 103:main.c        ****     timer_parameter_struct timer_initpara;
 224              		.loc 1 103 5
 104:main.c        ****  
 105:main.c        ****     eclic_irq_enable(TIMER1_IRQn, 1, 0);
 225              		.loc 1 105 5
 101:main.c        ****     timer_oc_parameter_struct timer_ocinitpara;
 226              		.loc 1 101 29 is_stmt 0
 227 0000 7971     		addi	sp,sp,-48
 228              	.LCFI3:
 229              		.cfi_def_cfa_offset 48
 230              		.loc 1 105 5
 231 0002 0146     		li	a2,0
 232 0004 8545     		li	a1,1
 233 0006 1305F002 		li	a0,47
 101:main.c        ****     timer_oc_parameter_struct timer_ocinitpara;
 234              		.loc 1 101 29
 235 000a 06D6     		sw	ra,44(sp)
 236 000c 22D4     		sw	s0,40(sp)
 237              		.cfi_offset 1, -4
 238              		.cfi_offset 8, -8
 239              		.loc 1 105 5
 240 000e 97000000 		call	eclic_irq_enable
 240      E7800000 
 241              	.LVL17:
 106:main.c        ****     rcu_periph_clock_enable(RCU_TIMER1);
 242              		.loc 1 106 5 is_stmt 1
 243 0016 13050070 		li	a0,1792
 244 001a 97000000 		call	rcu_periph_clock_enable
 244      E7800000 
 245              	.LVL18:
 107:main.c        ****     timer_deinit(TIMER1);
 246              		.loc 1 107 5
 247 0022 37050040 		li	a0,1073741824
 248 0026 97000000 		call	timer_deinit
 248      E7800000 
 249              	.LVL19:
 108:main.c        ****     timer_struct_para_init(&timer_initpara);
 250              		.loc 1 108 5
 251 002e 0808     		addi	a0,sp,16
 252 0030 97000000 		call	timer_struct_para_init
 252      E7800000 
 253              	.LVL20:
 109:main.c        ****  
 110:main.c        ****     timer_initpara.prescaler        = 1;
 254              		.loc 1 110 5
 111:main.c        ****     timer_initpara.alignedmode      = TIMER_COUNTER_EDGE;
 255              		.loc 1 111 5
 112:main.c        ****     timer_initpara.counterdirection = TIMER_COUNTER_UP;
 256              		.loc 1 112 5
 113:main.c        ****     timer_initpara.period           = 54000;
GAS LISTING C:\Users\Uzair\AppData\Local\Temp\cc1gXnIM.s 			page 8


 257              		.loc 1 113 37 is_stmt 0
 258 0038 B567     		li	a5,53248
 259 003a 9387072F 		addi	a5,a5,752
 114:main.c        ****     timer_initpara.clockdivision    = TIMER_CKDIV_DIV1;
 115:main.c        ****     timer_init(TIMER1, &timer_initpara);
 260              		.loc 1 115 5
 261 003e 0C08     		addi	a1,sp,16
 110:main.c        ****     timer_initpara.alignedmode      = TIMER_COUNTER_EDGE;
 262              		.loc 1 110 37
 263 0040 0544     		li	s0,1
 264              		.loc 1 115 5
 265 0042 37050040 		li	a0,1073741824
 113:main.c        ****     timer_initpara.period           = 54000;
 266              		.loc 1 113 37
 267 0046 3ECC     		sw	a5,24(sp)
 110:main.c        ****     timer_initpara.alignedmode      = TIMER_COUNTER_EDGE;
 268              		.loc 1 110 37
 269 0048 22C8     		sw	s0,16(sp)
 112:main.c        ****     timer_initpara.period           = 54000;
 270              		.loc 1 112 37
 271 004a 231A0100 		sh	zero,20(sp)
 113:main.c        ****     timer_initpara.clockdivision    = TIMER_CKDIV_DIV1;
 272              		.loc 1 113 5 is_stmt 1
 114:main.c        ****     timer_init(TIMER1, &timer_initpara);
 273              		.loc 1 114 5
 114:main.c        ****     timer_init(TIMER1, &timer_initpara);
 274              		.loc 1 114 37 is_stmt 0
 275 004e 231E0100 		sh	zero,28(sp)
 276              		.loc 1 115 5 is_stmt 1
 277 0052 97000000 		call	timer_init
 277      E7800000 
 278              	.LVL21:
 116:main.c        ****  
 117:main.c        ****     timer_channel_output_struct_para_init(&timer_ocinitpara);
 279              		.loc 1 117 5
 280 005a 4800     		addi	a0,sp,4
 281 005c 97000000 		call	timer_channel_output_struct_para_init
 281      E7800000 
 282              	.LVL22:
 118:main.c        ****     timer_ocinitpara.outputstate  = TIMER_CCX_ENABLE;
 283              		.loc 1 118 5
 119:main.c        ****     timer_ocinitpara.ocpolarity   = TIMER_OC_POLARITY_HIGH;
 120:main.c        ****     timer_ocinitpara.ocidlestate  = TIMER_OC_IDLE_STATE_LOW;
 121:main.c        ****     timer_channel_output_config(TIMER1, TIMER_CH_0, &timer_ocinitpara);
 284              		.loc 1 121 5 is_stmt 0
 285 0064 5000     		addi	a2,sp,4
 286 0066 8145     		li	a1,0
 287 0068 37050040 		li	a0,1073741824
 118:main.c        ****     timer_ocinitpara.outputstate  = TIMER_CCX_ENABLE;
 288              		.loc 1 118 35
 289 006c 23128100 		sh	s0,4(sp)
 119:main.c        ****     timer_ocinitpara.ocpolarity   = TIMER_OC_POLARITY_HIGH;
 290              		.loc 1 119 5 is_stmt 1
 119:main.c        ****     timer_ocinitpara.ocpolarity   = TIMER_OC_POLARITY_HIGH;
 291              		.loc 1 119 35 is_stmt 0
 292 0070 23140100 		sh	zero,8(sp)
 120:main.c        ****     timer_channel_output_config(TIMER1, TIMER_CH_0, &timer_ocinitpara);
GAS LISTING C:\Users\Uzair\AppData\Local\Temp\cc1gXnIM.s 			page 9


 293              		.loc 1 120 5 is_stmt 1
 120:main.c        ****     timer_channel_output_config(TIMER1, TIMER_CH_0, &timer_ocinitpara);
 294              		.loc 1 120 35 is_stmt 0
 295 0074 23160100 		sh	zero,12(sp)
 296              		.loc 1 121 5 is_stmt 1
 297 0078 97000000 		call	timer_channel_output_config
 297      E7800000 
 298              	.LVL23:
 122:main.c        ****  
 123:main.c        ****     timer_channel_output_pulse_value_config(TIMER1, TIMER_CH_0, 54000/2);
 299              		.loc 1 123 5
 300 0080 1D66     		li	a2,28672
 301 0082 13068697 		addi	a2,a2,-1672
 302 0086 8145     		li	a1,0
 303 0088 37050040 		li	a0,1073741824
 304 008c 97000000 		call	timer_channel_output_pulse_value_config
 304      E7800000 
 305              	.LVL24:
 124:main.c        ****     timer_channel_output_mode_config(TIMER1, TIMER_CH_0, TIMER_OC_MODE_TIMING);
 306              		.loc 1 124 5
 307 0094 0146     		li	a2,0
 308 0096 8145     		li	a1,0
 309 0098 37050040 		li	a0,1073741824
 310 009c 97000000 		call	timer_channel_output_mode_config
 310      E7800000 
 311              	.LVL25:
 125:main.c        ****     timer_channel_output_shadow_config(TIMER1, TIMER_CH_0, TIMER_OC_SHADOW_DISABLE);
 312              		.loc 1 125 5
 313 00a4 0146     		li	a2,0
 314 00a6 8145     		li	a1,0
 315 00a8 37050040 		li	a0,1073741824
 316 00ac 97000000 		call	timer_channel_output_shadow_config
 316      E7800000 
 317              	.LVL26:
 126:main.c        ****  
 127:main.c        ****     timer_interrupt_enable(TIMER1, TIMER_INT_CH0);
 318              		.loc 1 127 5
 319 00b4 8945     		li	a1,2
 320 00b6 37050040 		li	a0,1073741824
 321 00ba 97000000 		call	timer_interrupt_enable
 321      E7800000 
 322              	.LVL27:
 128:main.c        ****     timer_interrupt_flag_clear(TIMER1, TIMER_INT_CH0);
 323              		.loc 1 128 5
 324 00c2 8945     		li	a1,2
 325 00c4 37050040 		li	a0,1073741824
 326 00c8 97000000 		call	timer_interrupt_flag_clear
 326      E7800000 
 327              	.LVL28:
 129:main.c        ****     timer_enable(TIMER1);
 328              		.loc 1 129 5
 329 00d0 37050040 		li	a0,1073741824
 330 00d4 97000000 		call	timer_enable
 330      E7800000 
 331              	.LVL29:
 130:main.c        **** }
 332              		.loc 1 130 1 is_stmt 0
GAS LISTING C:\Users\Uzair\AppData\Local\Temp\cc1gXnIM.s 			page 10


 333 00dc B250     		lw	ra,44(sp)
 334              		.cfi_restore 1
 335 00de 2254     		lw	s0,40(sp)
 336              		.cfi_restore 8
 337 00e0 4561     		addi	sp,sp,48
 338              	.LCFI4:
 339              		.cfi_def_cfa_offset 0
 340 00e2 8280     		jr	ra
 341              		.cfi_endproc
 342              	.LFE8:
 344              		.section	.text.TIMER1_IRQHandler,"ax",@progbits
 345              		.align	1
 346              		.globl	TIMER1_IRQHandler
 348              	TIMER1_IRQHandler:
 349              	.LFB9:
 131:main.c        ****  
 132:main.c        **** void TIMER1_IRQHandler(void) {
 350              		.loc 1 132 30 is_stmt 1
 351              		.cfi_startproc
 133:main.c        ****     if (SET == timer_interrupt_flag_get(TIMER1, TIMER_INT_CH0)) {
 352              		.loc 1 133 5
 132:main.c        ****     if (SET == timer_interrupt_flag_get(TIMER1, TIMER_INT_CH0)) {
 353              		.loc 1 132 30 is_stmt 0
 354 0000 4111     		addi	sp,sp,-16
 355              	.LCFI5:
 356              		.cfi_def_cfa_offset 16
 357              		.loc 1 133 16
 358 0002 8945     		li	a1,2
 359 0004 37050040 		li	a0,1073741824
 132:main.c        ****     if (SET == timer_interrupt_flag_get(TIMER1, TIMER_INT_CH0)) {
 360              		.loc 1 132 30
 361 0008 06C6     		sw	ra,12(sp)
 362              		.cfi_offset 1, -4
 363              		.loc 1 133 16
 364 000a 97000000 		call	timer_interrupt_flag_get
 364      E7800000 
 365              	.LVL30:
 366              		.loc 1 133 8
 367 0012 8547     		li	a5,1
 368 0014 6312F502 		bne	a0,a5,.L19
 134:main.c        ****         millis++;
 369              		.loc 1 134 9 is_stmt 1
 370              		.loc 1 134 15 is_stmt 0
 371 0018 B7070000 		lui	a5,%hi(.LANCHOR1)
 372 001c 93870700 		addi	a5,a5,%lo(.LANCHOR1)
 373 0020 9843     		lw	a4,0(a5)
 135:main.c        ****         timer_interrupt_flag_clear(TIMER1, TIMER_INT_CH0);
 136:main.c        ****     }
 137:main.c        **** }
 374              		.loc 1 137 1
 375 0022 B240     		lw	ra,12(sp)
 376              		.cfi_remember_state
 377              		.cfi_restore 1
 135:main.c        ****         timer_interrupt_flag_clear(TIMER1, TIMER_INT_CH0);
 378              		.loc 1 135 9
 379 0024 8945     		li	a1,2
 134:main.c        ****         millis++;
GAS LISTING C:\Users\Uzair\AppData\Local\Temp\cc1gXnIM.s 			page 11


 380              		.loc 1 134 15
 381 0026 0507     		addi	a4,a4,1
 382 0028 98C3     		sw	a4,0(a5)
 135:main.c        ****         timer_interrupt_flag_clear(TIMER1, TIMER_INT_CH0);
 383              		.loc 1 135 9 is_stmt 1
 384              		.loc 1 137 1 is_stmt 0
 135:main.c        ****         timer_interrupt_flag_clear(TIMER1, TIMER_INT_CH0);
 385              		.loc 1 135 9
 386 002a 37050040 		li	a0,1073741824
 387              		.loc 1 137 1
 388 002e 4101     		addi	sp,sp,16
 389              	.LCFI6:
 390              		.cfi_def_cfa_offset 0
 135:main.c        ****         timer_interrupt_flag_clear(TIMER1, TIMER_INT_CH0);
 391              		.loc 1 135 9
 392 0030 17030000 		tail	timer_interrupt_flag_clear
 392      67000300 
 393              	.LVL31:
 394              	.L19:
 395              	.LCFI7:
 396              		.cfi_restore_state
 397              		.loc 1 137 1
 398 0038 B240     		lw	ra,12(sp)
 399              		.cfi_restore 1
 400 003a 4101     		addi	sp,sp,16
 401              	.LCFI8:
 402              		.cfi_def_cfa_offset 0
 403 003c 8280     		jr	ra
 404              		.cfi_endproc
 405              	.LFE9:
 407              		.globl	__extendsfdf2
 408              		.globl	__muldf3
 409              		.globl	__truncdfsf2
 410              		.globl	__fixsfsi
 411              		.globl	__gtsf2
 412              		.globl	__divsf3
 413              		.globl	__addsf3
 414              		.globl	__fixunssfsi
 415              		.section	.text.startup.main,"ax",@progbits
 416              		.align	1
 417              		.globl	main
 419              	main:
 420              	.LFB10:
 138:main.c        ****  
 139:main.c        **** int main(void) {
 421              		.loc 1 139 16 is_stmt 1
 422              		.cfi_startproc
 140:main.c        ****     mpu_vector_t vec, vec_temp;
 423              		.loc 1 140 5
 141:main.c        ****     uint16_t line_color;
 424              		.loc 1 141 5
 142:main.c        ****     float nollvinkel = 0.0;
 425              		.loc 1 142 5
 426              	.LVL32:
 143:main.c        ****     int har_kalibrerat = 0;
 427              		.loc 1 143 5
 144:main.c        ****     int utanfor = 0;
GAS LISTING C:\Users\Uzair\AppData\Local\Temp\cc1gXnIM.s 			page 12


 428              		.loc 1 144 5
 145:main.c        ****     StaticTimer static_timer;
 429              		.loc 1 145 5
 146:main.c        ****  
 147:main.c        ****     configure_usb_serial();
 430              		.loc 1 147 5
 139:main.c        ****     mpu_vector_t vec, vec_temp;
 431              		.loc 1 139 16 is_stmt 0
 432 0000 5971     		addi	sp,sp,-112
 433              	.LCFI9:
 434              		.cfi_def_cfa_offset 112
 435 0002 86D6     		sw	ra,108(sp)
 436 0004 A2D4     		sw	s0,104(sp)
 437 0006 A6D2     		sw	s1,100(sp)
 438 0008 CAD0     		sw	s2,96(sp)
 439 000a CECE     		sw	s3,92(sp)
 440 000c D2CC     		sw	s4,88(sp)
 441 000e D6CA     		sw	s5,84(sp)
 442 0010 DAC8     		sw	s6,80(sp)
 443 0012 DEC6     		sw	s7,76(sp)
 444 0014 E2C4     		sw	s8,72(sp)
 445 0016 E6C2     		sw	s9,68(sp)
 446 0018 EAC0     		sw	s10,64(sp)
 447              		.cfi_offset 1, -4
 448              		.cfi_offset 8, -8
 449              		.cfi_offset 9, -12
 450              		.cfi_offset 18, -16
 451              		.cfi_offset 19, -20
 452              		.cfi_offset 20, -24
 453              		.cfi_offset 21, -28
 454              		.cfi_offset 22, -32
 455              		.cfi_offset 23, -36
 456              		.cfi_offset 24, -40
 457              		.cfi_offset 25, -44
 458              		.cfi_offset 26, -48
 459              		.loc 1 147 5
 460 001a 97000000 		call	configure_usb_serial
 460      E7800000 
 461              	.LVL33:
 148:main.c        ****     while (!usb_serial_available()) usb_delay_1ms(100);
 462              		.loc 1 148 5 is_stmt 1
 463              	.L23:
 464              		.loc 1 148 13 is_stmt 0 discriminator 1
 465 0022 97000000 		call	usb_serial_available
 465      E7800000 
 466              	.LVL34:
 467              		.loc 1 148 11 discriminator 1
 468 002a 6305053A 		beq	a0,zero,.L24
 149:main.c        ****     usb_delay_1ms(1000);
 469              		.loc 1 149 5 is_stmt 1
 470 002e 1305803E 		li	a0,1000
 471 0032 97000000 		call	usb_delay_1ms
 471      E7800000 
 472              	.LVL35:
 150:main.c        ****  
 151:main.c        ****     rcu_periph_clock_enable(RCU_GPIOA);
 473              		.loc 1 151 5
GAS LISTING C:\Users\Uzair\AppData\Local\Temp\cc1gXnIM.s 			page 13


 474 003a 13052060 		li	a0,1538
 475 003e 97000000 		call	rcu_periph_clock_enable
 475      E7800000 
 476              	.LVL36:
 152:main.c        ****     gpio_init(GPIOA, GPIO_MODE_IN_FLOATING, GPIO_OSPEED_50MHZ, GPIO_PIN_1);
 477              		.loc 1 152 5
 478 0046 37140140 		li	s0,1073811456
 479 004a 8946     		li	a3,2
 480 004c 0D46     		li	a2,3
 481 004e 9145     		li	a1,4
 482 0050 13050480 		addi	a0,s0,-2048
 483 0054 97000000 		call	gpio_init
 483      E7800000 
 484              	.LVL37:
 153:main.c        ****  
 154:main.c        ****     rcu_periph_clock_enable(RCU_GPIOB);
 485              		.loc 1 154 5
 486 005c 13053060 		li	a0,1539
 487 0060 97000000 		call	rcu_periph_clock_enable
 487      E7800000 
 488              	.LVL38:
 155:main.c        ****     gpio_init(GPIOB, GPIO_MODE_OUT_PP, GPIO_OSPEED_50MHZ, GPIO_PIN_0);
 489              		.loc 1 155 5
 490 0068 130504C0 		addi	a0,s0,-1024
 491 006c 8546     		li	a3,1
 492 006e 0D46     		li	a2,3
 493 0070 C145     		li	a1,16
 494 0072 97000000 		call	gpio_init
 494      E7800000 
 495              	.LVL39:
 156:main.c        ****     gpio_init(GPIOB, GPIO_MODE_OUT_PP, GPIO_OSPEED_50MHZ, VIBRATOR_PIN);
 496              		.loc 1 156 5
 497 007a 93060002 		li	a3,32
 498 007e 0D46     		li	a2,3
 499 0080 C145     		li	a1,16
 500 0082 130504C0 		addi	a0,s0,-1024
 501 0086 97000000 		call	gpio_init
 501      E7800000 
 502              	.LVL40:
 157:main.c        ****  
 158:main.c        ****     rcu_periph_clock_enable(RCU_I2C0);
 503              		.loc 1 158 5
 504 008e 13055071 		li	a0,1813
 505 0092 97000000 		call	rcu_periph_clock_enable
 505      E7800000 
 506              	.LVL41:
 159:main.c        ****     gpio_init(GPIOB, GPIO_MODE_AF_OD, GPIO_OSPEED_50MHZ, GPIO_PIN_6 | GPIO_PIN_7);
 507              		.loc 1 159 5
 508 009a 9306000C 		li	a3,192
 509 009e 0D46     		li	a2,3
 510 00a0 F145     		li	a1,28
 511 00a2 130504C0 		addi	a0,s0,-1024
 512 00a6 97000000 		call	gpio_init
 512      E7800000 
 513              	.LVL42:
 160:main.c        ****     mpu6500_install(I2C0);
 514              		.loc 1 160 5
GAS LISTING C:\Users\Uzair\AppData\Local\Temp\cc1gXnIM.s 			page 14


 515 00ae 37550040 		li	a0,1073762304
 516 00b2 13050540 		addi	a0,a0,1024
 517 00b6 97000000 		call	mpu6500_install
 517      E7800000 
 518              	.LVL43:
 161:main.c        ****  
 162:main.c        ****     Lcd_SetType(LCD_INVERTED);
 519              		.loc 1 162 5
 520 00be 0545     		li	a0,1
 521 00c0 97000000 		call	Lcd_SetType
 521      E7800000 
 522              	.LVL44:
 163:main.c        ****     Lcd_Init();
 523              		.loc 1 163 5
 524 00c8 97000000 		call	Lcd_Init
 524      E7800000 
 525              	.LVL45:
 164:main.c        ****     LCD_Clear(BLACK);
 526              		.loc 1 164 5
 527 00d0 0145     		li	a0,0
 528 00d2 97000000 		call	LCD_Clear
 528      E7800000 
 529              	.LVL46:
 165:main.c        ****  
 166:main.c        ****     mpu6500_getAccel(&vec_temp);
 530              		.loc 1 166 5
 531 00da 4810     		addi	a0,sp,36
 532              	.LBB17:
 167:main.c        ****  
 168:main.c        ****     eclic_global_interrupt_enable();
 169:main.c        ****     interrupt_config();
 170:main.c        ****  
 171:main.c        ****     while (1) {
 172:main.c        ****         mpu6500_getAccel(&vec);
 173:main.c        ****         float nuvarande_vinkel = -atan2(vec.x, vec.z) * (180.0 / M_PI);
 533              		.loc 1 173 55 is_stmt 0
 534 00dc 37040000 		lui	s0,%hi(.LANCHOR0)
 535              	.LBE17:
 166:main.c        ****  
 536              		.loc 1 166 5
 537 00e0 97000000 		call	mpu6500_getAccel
 537      E7800000 
 538              	.LVL47:
 168:main.c        ****     interrupt_config();
 539              		.loc 1 168 5 is_stmt 1
 540              	.LBB26:
 541              		.loc 1 173 55 is_stmt 0
 542 00e8 13040400 		addi	s0,s0,%lo(.LANCHOR0)
 174:main.c        ****  
 175:main.c        ****         /* Kalibrering vid knapptryckning */
 176:main.c        ****         if (gpio_input_bit_get(GPIOA, GPIO_PIN_1) == 0) {
 543              		.loc 1 176 13
 544 00ec B7140140 		li	s1,1073811456
 545              	.LBB18:
 177:main.c        ****             nollvinkel = nuvarande_vinkel;
 178:main.c        ****             har_kalibrerat = 1;
 179:main.c        ****             initStaticTimer(&static_timer, nuvarande_vinkel, millis);
GAS LISTING C:\Users\Uzair\AppData\Local\Temp\cc1gXnIM.s 			page 15


 180:main.c        ****             gpio_bit_set(GPIOB, GPIO_PIN_0);   // tänd medan knappen hålls
 181:main.c        ****             delay_1ms(50);
 182:main.c        ****         } else {
 183:main.c        ****             gpio_bit_reset(GPIOB, GPIO_PIN_0); // släck när knappen släpps
 184:main.c        ****         }
 185:main.c        ****         
 186:main.c        ****         float avvikelse = nuvarande_vinkel - nollvinkel;
 187:main.c        ****  
 188:main.c        ****         printf("X: %d  Y: %d  Z: %d\n", (int)vec.x, (int)vec.y, (int)vec.z);
 189:main.c        ****         printf("Avvikelse: %d  Nollvinkel: %d  Knapp: %d\n",
 190:main.c        ****             (int)avvikelse,
 191:main.c        ****             (int)nollvinkel,
 192:main.c        ****             (int)gpio_input_bit_get(GPIOA, GPIO_PIN_1));
 193:main.c        ****         fflush(0);
 194:main.c        ****  
 195:main.c        ****         usb_delay_1ms(100);
 196:main.c        ****  
 197:main.c        ****         if (har_kalibrerat == 1) {
 198:main.c        ****  
 199:main.c        ****             /* Kolla stillasittande */
 200:main.c        ****             int static_result = updateStaticTimer(&static_timer, nuvarande_vinkel, millis);
 201:main.c        ****             if (static_result == 1) {
 202:main.c        ****                 gpio_bit_set(GPIOB, VIBRATOR_PIN);
 203:main.c        ****                 delay_1ms(500);
 204:main.c        ****                 gpio_bit_reset(GPIOB, VIBRATOR_PIN);
 205:main.c        ****             }
 206:main.c        ****             if (static_result == 2) {
 207:main.c        ****                 gpio_bit_set(GPIOB, VIBRATOR_PIN);
 208:main.c        ****                 delay_1ms(1000);
 209:main.c        ****                 gpio_bit_reset(GPIOB, VIBRATOR_PIN);
 210:main.c        ****             }
 211:main.c        ****  
 212:main.c        ****             /* Kolla avvikelse */
 213:main.c        ****             if (avvikelse > 25) {
 214:main.c        ****                 gpio_bit_set(GPIOB, VIBRATOR_PIN);
 215:main.c        ****                 if (utanfor == 0) {
 216:main.c        ****                     utanfor = 1;
 217:main.c        ****                     if (antal_avvikelser < MAX_AVVIKELSER) {
 218:main.c        ****                         logg[antal_avvikelser].minuter  = millis / 60000;
 546              		.loc 1 218 57
 547 00f0 B70A0000 		lui	s5,%hi(logg)
 548              	.LBE18:
 549              	.LBE26:
 168:main.c        ****     interrupt_config();
 550              		.loc 1 168 5
 551 00f4 97000000 		call	eclic_global_interrupt_enable
 551      E7800000 
 552              	.LVL48:
 169:main.c        ****  
 553              		.loc 1 169 5 is_stmt 1
 144:main.c        ****     StaticTimer static_timer;
 554              		.loc 1 144 9 is_stmt 0
 555 00fc 014D     		li	s10,0
 169:main.c        ****  
 556              		.loc 1 169 5
 557 00fe 97000000 		call	interrupt_config
 557      E7800000 
GAS LISTING C:\Users\Uzair\AppData\Local\Temp\cc1gXnIM.s 			page 16


 558              	.LVL49:
 143:main.c        ****     int utanfor = 0;
 559              		.loc 1 143 9
 560 0106 0149     		li	s2,0
 142:main.c        ****     int har_kalibrerat = 0;
 561              		.loc 1 142 11
 562 0108 93090000 		mv	s3,zero
 563              	.LBB27:
 176:main.c        ****             nollvinkel = nuvarande_vinkel;
 564              		.loc 1 176 13
 565 010c 938B0480 		addi	s7,s1,-2048
 179:main.c        ****             gpio_bit_set(GPIOB, GPIO_PIN_0);   // tänd medan knappen hålls
 566              		.loc 1 179 13
 567 0110 370A0000 		lui	s4,%hi(.LANCHOR1)
 188:main.c        ****         printf("Avvikelse: %d  Nollvinkel: %d  Knapp: %d\n",
 568              		.loc 1 188 9
 569 0114 930C0401 		addi	s9,s0,16
 570              	.LBB19:
 571              		.loc 1 218 57
 572 0118 938A0A00 		addi	s5,s5,%lo(logg)
 573              	.LVL50:
 574              	.L33:
 575              	.LBE19:
 576              	.LBE27:
 171:main.c        ****         mpu6500_getAccel(&vec);
 577              		.loc 1 171 5 is_stmt 1
 578              	.LBB28:
 172:main.c        ****         float nuvarande_vinkel = -atan2(vec.x, vec.z) * (180.0 / M_PI);
 579              		.loc 1 172 9
 580 011c 2808     		addi	a0,sp,24
 581 011e 97000000 		call	mpu6500_getAccel
 581      E7800000 
 582              	.LVL51:
 173:main.c        ****  
 583              		.loc 1 173 9
 173:main.c        ****  
 584              		.loc 1 173 35 is_stmt 0
 585 0126 0255     		lw	a0,32(sp)
 586 0128 97000000 		call	__extendsfdf2
 586      E7800000 
 587              	.LVL52:
 588 0130 2AC0     		sw	a0,0(sp)
 589 0132 6245     		lw	a0,24(sp)
 590 0134 2EC2     		sw	a1,4(sp)
 591 0136 97000000 		call	__extendsfdf2
 591      E7800000 
 592              	.LVL53:
 593 013e 0246     		lw	a2,0(sp)
 594 0140 9246     		lw	a3,4(sp)
 595 0142 97000000 		call	atan2
 595      E7800000 
 596              	.LVL54:
 173:main.c        ****  
 597              		.loc 1 173 55
 598 014a 1044     		lw	a2,8(s0)
 599 014c 5444     		lw	a3,12(s0)
 600 014e B7070080 		li	a5,-2147483648
GAS LISTING C:\Users\Uzair\AppData\Local\Temp\cc1gXnIM.s 			page 17


 601 0152 AD8F     		xor	a5,a5,a1
 602 0154 BE85     		mv	a1,a5
 603 0156 97000000 		call	__muldf3
 603      E7800000 
 604              	.LVL55:
 173:main.c        ****  
 605              		.loc 1 173 15
 606 015e 97000000 		call	__truncdfsf2
 606      E7800000 
 607              	.LVL56:
 608 0166 2A8C     		mv	s8,a0
 609              	.LVL57:
 176:main.c        ****             nollvinkel = nuvarande_vinkel;
 610              		.loc 1 176 9 is_stmt 1
 176:main.c        ****             nollvinkel = nuvarande_vinkel;
 611              		.loc 1 176 13 is_stmt 0
 612 0168 8945     		li	a1,2
 613 016a 5E85     		mv	a0,s7
 614              	.LVL58:
 615 016c 97000000 		call	gpio_input_bit_get
 615      E7800000 
 616              	.LVL59:
 176:main.c        ****             nollvinkel = nuvarande_vinkel;
 617              		.loc 1 176 12
 618 0174 63170526 		bne	a0,zero,.L25
 177:main.c        ****             har_kalibrerat = 1;
 619              		.loc 1 177 13 is_stmt 1
 620              	.LVL60:
 178:main.c        ****             initStaticTimer(&static_timer, nuvarande_vinkel, millis);
 621              		.loc 1 178 13
 179:main.c        ****             gpio_bit_set(GPIOB, GPIO_PIN_0);   // tänd medan knappen hålls
 622              		.loc 1 179 13
 623 0178 93070A00 		addi	a5,s4,%lo(.LANCHOR1)
 624 017c 9C43     		lw	a5,0(a5)
 625              	.LVL61:
 626              	.LBB20:
 627              	.LBB21:
  68:main.c        ****     t->start_time = now;
 628              		.loc 1 68 5
 629              	.LBE21:
 630              	.LBE20:
 180:main.c        ****             delay_1ms(50);
 631              		.loc 1 180 13 is_stmt 0
 632 017e 8545     		li	a1,1
 633 0180 138504C0 		addi	a0,s1,-1024
 634              	.LBB23:
 635              	.LBB22:
  69:main.c        ****     t->is_static  = 0;
 636              		.loc 1 69 19
 637 0184 3EDA     		sw	a5,52(sp)
  68:main.c        ****     t->start_time = now;
 638              		.loc 1 68 19
 639 0186 62D8     		sw	s8,48(sp)
  69:main.c        ****     t->is_static  = 0;
 640              		.loc 1 69 5 is_stmt 1
  70:main.c        ****     t->stage      = 0;
 641              		.loc 1 70 5
GAS LISTING C:\Users\Uzair\AppData\Local\Temp\cc1gXnIM.s 			page 18


  70:main.c        ****     t->stage      = 0;
 642              		.loc 1 70 19 is_stmt 0
 643 0188 02DC     		sw	zero,56(sp)
  71:main.c        **** }
 644              		.loc 1 71 5 is_stmt 1
  71:main.c        **** }
 645              		.loc 1 71 19 is_stmt 0
 646 018a 02DE     		sw	zero,60(sp)
 647              	.LVL62:
 648              	.LBE22:
 649              	.LBE23:
 180:main.c        ****             delay_1ms(50);
 650              		.loc 1 180 13 is_stmt 1
 651 018c 97000000 		call	gpio_bit_set
 651      E7800000 
 652              	.LVL63:
 181:main.c        ****         } else {
 653              		.loc 1 181 13
 654 0194 13052003 		li	a0,50
 655 0198 97000000 		call	delay_1ms
 655      E7800000 
 656              	.LVL64:
 177:main.c        ****             har_kalibrerat = 1;
 657              		.loc 1 177 24 is_stmt 0
 658 01a0 E289     		mv	s3,s8
 178:main.c        ****             initStaticTimer(&static_timer, nuvarande_vinkel, millis);
 659              		.loc 1 178 28
 660 01a2 0549     		li	s2,1
 661              	.LVL65:
 662              	.L26:
 186:main.c        ****  
 663              		.loc 1 186 9 is_stmt 1
 186:main.c        ****  
 664              		.loc 1 186 15 is_stmt 0
 665 01a4 CE85     		mv	a1,s3
 666 01a6 6285     		mv	a0,s8
 667 01a8 97000000 		call	__subsf3
 667      E7800000 
 668              	.LVL66:
 669 01b0 2A8B     		mv	s6,a0
 670              	.LVL67:
 188:main.c        ****         printf("Avvikelse: %d  Nollvinkel: %d  Knapp: %d\n",
 671              		.loc 1 188 9 is_stmt 1
 672 01b2 0255     		lw	a0,32(sp)
 673              	.LVL68:
 674 01b4 97000000 		call	__fixsfsi
 674      E7800000 
 675              	.LVL69:
 676 01bc 2AC6     		sw	a0,12(sp)
 677 01be 7245     		lw	a0,28(sp)
 678 01c0 97000000 		call	__fixsfsi
 678      E7800000 
 679              	.LVL70:
 680 01c8 2AC0     		sw	a0,0(sp)
 681 01ca 6245     		lw	a0,24(sp)
 682 01cc 97000000 		call	__fixsfsi
 682      E7800000 
GAS LISTING C:\Users\Uzair\AppData\Local\Temp\cc1gXnIM.s 			page 19


 683              	.LVL71:
 684 01d4 B246     		lw	a3,12(sp)
 685 01d6 0246     		lw	a2,0(sp)
 686 01d8 AA85     		mv	a1,a0
 687 01da 6685     		mv	a0,s9
 688 01dc 97000000 		call	printf
 688      E7800000 
 689              	.LVL72:
 189:main.c        ****             (int)avvikelse,
 690              		.loc 1 189 9
 192:main.c        ****         fflush(0);
 691              		.loc 1 192 18 is_stmt 0
 692 01e4 8945     		li	a1,2
 693 01e6 5E85     		mv	a0,s7
 694 01e8 97000000 		call	gpio_input_bit_get
 694      E7800000 
 695              	.LVL73:
 696 01f0 2AC6     		sw	a0,12(sp)
 189:main.c        ****             (int)avvikelse,
 697              		.loc 1 189 9
 698 01f2 4E85     		mv	a0,s3
 699 01f4 97000000 		call	__fixsfsi
 699      E7800000 
 700              	.LVL74:
 701 01fc 2AC0     		sw	a0,0(sp)
 702 01fe 5A85     		mv	a0,s6
 703 0200 97000000 		call	__fixsfsi
 703      E7800000 
 704              	.LVL75:
 705 0208 B246     		lw	a3,12(sp)
 706 020a 0246     		lw	a2,0(sp)
 707 020c AA85     		mv	a1,a0
 708 020e 13058402 		addi	a0,s0,40
 709 0212 97000000 		call	printf
 709      E7800000 
 710              	.LVL76:
 193:main.c        ****  
 711              		.loc 1 193 9 is_stmt 1
 712 021a 0145     		li	a0,0
 713 021c 97000000 		call	fflush
 713      E7800000 
 714              	.LVL77:
 195:main.c        ****  
 715              		.loc 1 195 9
 716 0224 13054006 		li	a0,100
 717 0228 97000000 		call	usb_delay_1ms
 717      E7800000 
 718              	.LVL78:
 197:main.c        ****  
 719              		.loc 1 197 9
 197:main.c        ****  
 720              		.loc 1 197 12 is_stmt 0
 721 0230 630A090A 		beq	s2,zero,.L27
 722              	.LVL79:
 723              	.LBB24:
 200:main.c        ****             if (static_result == 1) {
 724              		.loc 1 200 13 is_stmt 1
GAS LISTING C:\Users\Uzair\AppData\Local\Temp\cc1gXnIM.s 			page 20


 200:main.c        ****             if (static_result == 1) {
 725              		.loc 1 200 33 is_stmt 0
 726 0234 93070A00 		addi	a5,s4,%lo(.LANCHOR1)
 727 0238 9043     		lw	a2,0(a5)
 728 023a E285     		mv	a1,s8
 729 023c 0818     		addi	a0,sp,48
 730 023e 97000000 		call	updateStaticTimer
 730      E7800000 
 731              	.LVL80:
 201:main.c        ****                 gpio_bit_set(GPIOB, VIBRATOR_PIN);
 732              		.loc 1 201 13 is_stmt 1
 733 0246 130C0A00 		addi	s8,s4,%lo(.LANCHOR1)
 734              	.LVL81:
 201:main.c        ****                 gpio_bit_set(GPIOB, VIBRATOR_PIN);
 735              		.loc 1 201 16 is_stmt 0
 736 024a 6314251B 		bne	a0,s2,.L28
 202:main.c        ****                 delay_1ms(500);
 737              		.loc 1 202 17 is_stmt 1
 738 024e 93050002 		li	a1,32
 739 0252 138504C0 		addi	a0,s1,-1024
 740              	.LVL82:
 741 0256 97000000 		call	gpio_bit_set
 741      E7800000 
 742              	.LVL83:
 203:main.c        ****                 gpio_bit_reset(GPIOB, VIBRATOR_PIN);
 743              		.loc 1 203 17
 744 025e 1305401F 		li	a0,500
 745 0262 97000000 		call	delay_1ms
 745      E7800000 
 746              	.LVL84:
 204:main.c        ****             }
 747              		.loc 1 204 17
 748 026a 93050002 		li	a1,32
 749 026e 138504C0 		addi	a0,s1,-1024
 750 0272 97000000 		call	gpio_bit_reset
 750      E7800000 
 751              	.LVL85:
 206:main.c        ****                 gpio_bit_set(GPIOB, VIBRATOR_PIN);
 752              		.loc 1 206 13
 753              	.L29:
 213:main.c        ****                 gpio_bit_set(GPIOB, VIBRATOR_PIN);
 754              		.loc 1 213 13
 213:main.c        ****                 gpio_bit_set(GPIOB, VIBRATOR_PIN);
 755              		.loc 1 213 16 is_stmt 0
 756 027a 6C48     		lw	a1,84(s0)
 757 027c 5A85     		mv	a0,s6
 758 027e 97000000 		call	__gtsf2
 758      E7800000 
 759              	.LVL86:
 214:main.c        ****                 if (utanfor == 0) {
 760              		.loc 1 214 17
 761 0286 93050002 		li	a1,32
 213:main.c        ****                 gpio_bit_set(GPIOB, VIBRATOR_PIN);
 762              		.loc 1 213 16
 763 028a 635EA018 		ble	a0,zero,.L37
 214:main.c        ****                 if (utanfor == 0) {
 764              		.loc 1 214 17 is_stmt 1
GAS LISTING C:\Users\Uzair\AppData\Local\Temp\cc1gXnIM.s 			page 21


 765 028e 138504C0 		addi	a0,s1,-1024
 766 0292 97000000 		call	gpio_bit_set
 766      E7800000 
 767              	.LVL87:
 215:main.c        ****                     utanfor = 1;
 768              		.loc 1 215 17
 215:main.c        ****                     utanfor = 1;
 769              		.loc 1 215 20 is_stmt 0
 770 029a 63150D04 		bne	s10,zero,.L27
 216:main.c        ****                     if (antal_avvikelser < MAX_AVVIKELSER) {
 771              		.loc 1 216 21 is_stmt 1
 772              	.LVL88:
 217:main.c        ****                         logg[antal_avvikelser].minuter  = millis / 60000;
 773              		.loc 1 217 21
 217:main.c        ****                         logg[antal_avvikelser].minuter  = millis / 60000;
 774              		.loc 1 217 42 is_stmt 0
 775 029e 37060000 		lui	a2,%hi(.LANCHOR2)
 776 02a2 13060600 		addi	a2,a2,%lo(.LANCHOR2)
 777 02a6 1842     		lw	a4,0(a2)
 217:main.c        ****                         logg[antal_avvikelser].minuter  = millis / 60000;
 778              		.loc 1 217 24
 779 02a8 9307B012 		li	a5,299
 780 02ac 4A8D     		mv	s10,s2
 781 02ae 63CBE702 		bgt	a4,a5,.L27
 782              		.loc 1 218 25 is_stmt 1
 783              		.loc 1 218 66 is_stmt 0
 784 02b2 03250C00 		lw	a0,0(s8)
 785 02b6 BD66     		li	a3,61440
 786 02b8 938506A6 		addi	a1,a3,-1440
 787 02bc B356B502 		divu	a3,a0,a1
 788              		.loc 1 218 57
 789 02c0 B147     		li	a5,12
 790 02c2 B307F702 		mul	a5,a4,a5
 219:main.c        ****                         logg[antal_avvikelser].sekunder = (millis % 60000) / 1000;
 220:main.c        ****                         logg[antal_avvikelser].avvikelse = avvikelse;
 221:main.c        ****                         antal_avvikelser++;
 791              		.loc 1 221 41
 792 02c6 0507     		addi	a4,a4,1
 793 02c8 18C2     		sw	a4,0(a2)
 218:main.c        ****                         logg[antal_avvikelser].sekunder = (millis % 60000) / 1000;
 794              		.loc 1 218 57
 795 02ca D697     		add	a5,s5,a5
 796 02cc 94C3     		sw	a3,0(a5)
 219:main.c        ****                         logg[antal_avvikelser].sekunder = (millis % 60000) / 1000;
 797              		.loc 1 219 25 is_stmt 1
 219:main.c        ****                         logg[antal_avvikelser].sekunder = (millis % 60000) / 1000;
 798              		.loc 1 219 67 is_stmt 0
 799 02ce 83260C00 		lw	a3,0(s8)
 220:main.c        ****                         antal_avvikelser++;
 800              		.loc 1 220 58
 801 02d2 23A46701 		sw	s6,8(a5)
 219:main.c        ****                         logg[antal_avvikelser].sekunder = (millis % 60000) / 1000;
 802              		.loc 1 219 67
 803 02d6 B3F6B602 		remu	a3,a3,a1
 219:main.c        ****                         logg[antal_avvikelser].sekunder = (millis % 60000) / 1000;
 804              		.loc 1 219 76
 805 02da 9305803E 		li	a1,1000
GAS LISTING C:\Users\Uzair\AppData\Local\Temp\cc1gXnIM.s 			page 22


 806 02de B3D6B602 		divu	a3,a3,a1
 219:main.c        ****                         logg[antal_avvikelser].sekunder = (millis % 60000) / 1000;
 807              		.loc 1 219 57
 808 02e2 D4C3     		sw	a3,4(a5)
 220:main.c        ****                         antal_avvikelser++;
 809              		.loc 1 220 25 is_stmt 1
 810              		.loc 1 221 25
 811              	.LVL89:
 812              	.L27:
 813              	.LBE24:
 222:main.c        ****                     }
 223:main.c        ****                 }
 224:main.c        ****             } else {
 225:main.c        ****                 gpio_bit_reset(GPIOB, VIBRATOR_PIN);
 226:main.c        ****                 utanfor = 0;
 227:main.c        ****             }
 228:main.c        ****         }
 229:main.c        ****  
 230:main.c        ****         /* LCD */
 231:main.c        ****         line_color = (vec.z < 0) ? RED : GREEN;
 814              		.loc 1 231 9
 815              		.loc 1 231 20 is_stmt 0
 816 02e4 0255     		lw	a0,32(sp)
 817 02e6 93050000 		mv	a1,zero
 818 02ea 130B007E 		li	s6,2016
 819              	.LVL90:
 820 02ee 97000000 		call	__ltsf2
 820      E7800000 
 821              	.LVL91:
 822 02f6 63550500 		bge	a0,zero,.L32
 823 02fa 416B     		li	s6,65536
 824 02fc 130B0B80 		addi	s6,s6,-2048
 825              	.L32:
 826              	.LVL92:
 232:main.c        ****         Draw_Circle(160/2, 80/2, 28, BLUE);
 827              		.loc 1 232 9 is_stmt 1 discriminator 4
 828 0300 FD46     		li	a3,31
 829 0302 7146     		li	a2,28
 830 0304 93058002 		li	a1,40
 831 0308 13050005 		li	a0,80
 832 030c 97000000 		call	Draw_Circle
 832      E7800000 
 833              	.LVL93:
 233:main.c        ****         LCD_DrawLine(160/2, 80/2, (160/2)+(vec_temp.y)/(4096/28), (80/2)+(vec_temp.x/(4096/28)), BL
 834              		.loc 1 233 9 discriminator 4
 835              		.loc 1 233 85 is_stmt 0 discriminator 4
 836 0314 2C4C     		lw	a1,88(s0)
 837 0316 1255     		lw	a0,36(sp)
 838 0318 97000000 		call	__divsf3
 838      E7800000 
 839              	.LVL94:
 840              		.loc 1 233 73 discriminator 4
 841 0320 6C4C     		lw	a1,92(s0)
 842 0322 97000000 		call	__addsf3
 842      E7800000 
 843              	.LVL95:
 844              		.loc 1 233 9 discriminator 4
GAS LISTING C:\Users\Uzair\AppData\Local\Temp\cc1gXnIM.s 			page 23


 845 032a 97000000 		call	__fixunssfsi
 845      E7800000 
 846              	.LVL96:
 847              		.loc 1 233 55 discriminator 4
 848 0332 2C4C     		lw	a1,88(s0)
 849              		.loc 1 233 9 discriminator 4
 850 0334 2AC0     		sw	a0,0(sp)
 851              		.loc 1 233 55 discriminator 4
 852 0336 2255     		lw	a0,40(sp)
 853 0338 97000000 		call	__divsf3
 853      E7800000 
 854              	.LVL97:
 855              		.loc 1 233 42 discriminator 4
 856 0340 2C50     		lw	a1,96(s0)
 857 0342 97000000 		call	__addsf3
 857      E7800000 
 858              	.LVL98:
 859              		.loc 1 233 9 discriminator 4
 860 034a 97000000 		call	__fixunssfsi
 860      E7800000 
 861              	.LVL99:
 862 0352 8246     		lw	a3,0(sp)
 863 0354 2A86     		mv	a2,a0
 864 0356 0147     		li	a4,0
 865 0358 93058002 		li	a1,40
 866 035c 13050005 		li	a0,80
 867 0360 97000000 		call	LCD_DrawLine
 867      E7800000 
 868              	.LVL100:
 234:main.c        ****         LCD_DrawLine(160/2, 80/2, (160/2)+(vec.y)/(4096/28), (80/2)+(vec.x/(4096/28)), line_color);
 869              		.loc 1 234 9 is_stmt 1 discriminator 4
 870              		.loc 1 234 75 is_stmt 0 discriminator 4
 871 0368 2C4C     		lw	a1,88(s0)
 872 036a 6245     		lw	a0,24(sp)
 873 036c 97000000 		call	__divsf3
 873      E7800000 
 874              	.LVL101:
 875              		.loc 1 234 68 discriminator 4
 876 0374 6C4C     		lw	a1,92(s0)
 877 0376 97000000 		call	__addsf3
 877      E7800000 
 878              	.LVL102:
 879              		.loc 1 234 9 discriminator 4
 880 037e 97000000 		call	__fixunssfsi
 880      E7800000 
 881              	.LVL103:
 882              		.loc 1 234 50 discriminator 4
 883 0386 2C4C     		lw	a1,88(s0)
 884              		.loc 1 234 9 discriminator 4
 885 0388 2AC0     		sw	a0,0(sp)
 886              		.loc 1 234 50 discriminator 4
 887 038a 7245     		lw	a0,28(sp)
 888 038c 97000000 		call	__divsf3
 888      E7800000 
 889              	.LVL104:
 890              		.loc 1 234 42 discriminator 4
 891 0394 2C50     		lw	a1,96(s0)
GAS LISTING C:\Users\Uzair\AppData\Local\Temp\cc1gXnIM.s 			page 24


 892 0396 97000000 		call	__addsf3
 892      E7800000 
 893              	.LVL105:
 894              		.loc 1 234 9 discriminator 4
 895 039e 97000000 		call	__fixunssfsi
 895      E7800000 
 896              	.LVL106:
 897 03a6 8246     		lw	a3,0(sp)
 898 03a8 5A87     		mv	a4,s6
 899 03aa 2A86     		mv	a2,a0
 900 03ac 93058002 		li	a1,40
 901 03b0 13050005 		li	a0,80
 902 03b4 97000000 		call	LCD_DrawLine
 902      E7800000 
 903              	.LVL107:
 235:main.c        ****         vec_temp = vec;
 904              		.loc 1 235 9 is_stmt 1 discriminator 4
 905              		.loc 1 235 18 is_stmt 0 discriminator 4
 906 03bc 3146     		li	a2,12
 907 03be 2C08     		addi	a1,sp,24
 908 03c0 4810     		addi	a0,sp,36
 909 03c2 97000000 		call	memcpy
 909      E7800000 
 910              	.LVL108:
 236:main.c        ****         LCD_Wait_On_Queue();
 911              		.loc 1 236 9 is_stmt 1 discriminator 4
 912 03ca 97000000 		call	LCD_Wait_On_Queue
 912      E7800000 
 913              	.LVL109:
 914              	.LBE28:
 171:main.c        ****         mpu6500_getAccel(&vec);
 915              		.loc 1 171 15 is_stmt 0 discriminator 4
 916 03d2 A9B3     		j	.L33
 917              	.LVL110:
 918              	.L24:
 148:main.c        ****     usb_delay_1ms(1000);
 919              		.loc 1 148 37 is_stmt 1 discriminator 2
 920 03d4 13054006 		li	a0,100
 921 03d8 97000000 		call	usb_delay_1ms
 921      E7800000 
 922              	.LVL111:
 923 03e0 89B1     		j	.L23
 924              	.LVL112:
 925              	.L25:
 926              	.LBB29:
 183:main.c        ****         }
 927              		.loc 1 183 13
 928 03e2 8545     		li	a1,1
 929 03e4 138504C0 		addi	a0,s1,-1024
 930 03e8 97000000 		call	gpio_bit_reset
 930      E7800000 
 931              	.LVL113:
 932 03f0 55BB     		j	.L26
 933              	.LVL114:
 934              	.L28:
 935              	.LBB25:
 206:main.c        ****                 gpio_bit_set(GPIOB, VIBRATOR_PIN);
GAS LISTING C:\Users\Uzair\AppData\Local\Temp\cc1gXnIM.s 			page 25


 936              		.loc 1 206 13
 206:main.c        ****                 gpio_bit_set(GPIOB, VIBRATOR_PIN);
 937              		.loc 1 206 16 is_stmt 0
 938 03f2 8947     		li	a5,2
 939 03f4 E313F5E8 		bne	a0,a5,.L29
 207:main.c        ****                 delay_1ms(1000);
 940              		.loc 1 207 17 is_stmt 1
 941 03f8 93050002 		li	a1,32
 942 03fc 138504C0 		addi	a0,s1,-1024
 943              	.LVL115:
 944 0400 97000000 		call	gpio_bit_set
 944      E7800000 
 945              	.LVL116:
 208:main.c        ****                 gpio_bit_reset(GPIOB, VIBRATOR_PIN);
 946              		.loc 1 208 17
 947 0408 1305803E 		li	a0,1000
 948 040c 97000000 		call	delay_1ms
 948      E7800000 
 949              	.LVL117:
 209:main.c        ****             }
 950              		.loc 1 209 17
 951 0414 93050002 		li	a1,32
 952 0418 138504C0 		addi	a0,s1,-1024
 953 041c 97000000 		call	gpio_bit_reset
 953      E7800000 
 954              	.LVL118:
 955 0424 99BD     		j	.L29
 956              	.L37:
 225:main.c        ****                 utanfor = 0;
 957              		.loc 1 225 17
 958 0426 138504C0 		addi	a0,s1,-1024
 959 042a 97000000 		call	gpio_bit_reset
 959      E7800000 
 960              	.LVL119:
 226:main.c        ****             }
 961              		.loc 1 226 17
 226:main.c        ****             }
 962              		.loc 1 226 25 is_stmt 0
 963 0432 014D     		li	s10,0
 964 0434 45BD     		j	.L27
 965              	.LBE25:
 966              	.LBE29:
 967              		.cfi_endproc
 968              	.LFE10:
 970              		.section	.rodata
 971              		.align	3
 972              		.set	.LANCHOR0,. + 0
 973              	.LC0:
 974 0000 0000A040 		.word	1084227584
 975 0004 00000000 		.zero	4
 976              	.LC1:
 977 0008 F8C1631A 		.word	442745336
 978 000c DCA54C40 		.word	1078765020
 979              	.LC2:
 980 0010 583A2025 		.string	"X: %d  Y: %d  Z: %d\n"
 980      64202059 
 980      3A202564 
GAS LISTING C:\Users\Uzair\AppData\Local\Temp\cc1gXnIM.s 			page 26


 980      20205A3A 
 980      2025640A 
 981 0025 000000   		.zero	3
 982              	.LC3:
 983 0028 41767669 		.string	"Avvikelse: %d  Nollvinkel: %d  Knapp: %d\n"
 983      6B656C73 
 983      653A2025 
 983      6420204E 
 983      6F6C6C76 
 984 0052 0000     		.zero	2
 985              	.LC4:
 986 0054 0000C841 		.word	1103626240
 987              	.LC5:
 988 0058 00001243 		.word	1125253120
 989              	.LC6:
 990 005c 00002042 		.word	1109393408
 991              	.LC7:
 992 0060 0000A042 		.word	1117782016
 993              		.section	.sbss.antal_avvikelser,"aw",@nobits
 994              		.align	2
 995              		.set	.LANCHOR2,. + 0
 998              	antal_avvikelser:
 999 0000 00000000 		.zero	4
 1000              		.section	.sbss.millis,"aw",@nobits
 1001              		.align	2
 1002              		.set	.LANCHOR1,. + 0
 1005              	millis:
 1006 0000 00000000 		.zero	4
 1007              		.text
 1008              	.Letext0:
 1009              		.file 2 "c:\\kth\\he1043\\toolchain-gd32v-v202-win\\toolchain-gd32v-v202-win\\compiler\\lib\\gcc\\
 1010              		.file 3 "c:\\kth\\he1043\\toolchain-gd32v-v202-win\\toolchain-gd32v-v202-win\\compiler\\riscv64-un
 1011              		.file 4 "c:\\kth\\he1043\\toolchain-gd32v-v202-win\\toolchain-gd32v-v202-win\\compiler\\riscv64-un
 1012              		.file 5 "c:\\kth\\he1043\\toolchain-gd32v-v202-win\\toolchain-gd32v-v202-win\\compiler\\riscv64-un
 1013              		.file 6 "c:\\kth\\he1043\\toolchain-gd32v-v202-win\\toolchain-gd32v-v202-win\\compiler\\riscv64-un
 1014              		.file 7 "c:\\kth\\he1043\\toolchain-gd32v-v202-win\\toolchain-gd32v-v202-win\\compiler\\riscv64-un
 1015              		.file 8 "./../../firmware/GD32VF103_standard_peripheral/gd32vf103.h"
 1016              		.file 9 "c:\\kth\\he1043\\toolchain-gd32v-v202-win\\toolchain-gd32v-v202-win\\compiler\\riscv64-un
 1017              		.file 10 "./../../firmware/GD32VF103_standard_peripheral/system_gd32vf103.h"
 1018              		.file 11 "./../../firmware/GD32VF103_standard_peripheral/Include/gd32vf103_rcu.h"
 1019              		.file 12 "./../../firmware/GD32VF103_standard_peripheral/Include/gd32vf103_timer.h"
 1020              		.file 13 "c:\\kth\\he1043\\toolchain-gd32v-v202-win\\toolchain-gd32v-v202-win\\compiler\\riscv64-u
 1021              		.file 14 "lcd.h"
 1022              		.file 15 "mpu6500_driver.h"
 1023              		.file 16 "drv_usb_regs.h"
 1024              		.file 17 "usb_ch9_std.h"
 1025              		.file 18 "drv_usb_core.h"
 1026              		.file 19 "drv_usb_dev.h"
 1027              		.file 20 "cdc_acm_core.h"
 1028              		.file 21 "usb_serial_if.h"
 1029              		.file 22 "./../../firmware/GD32VF103_standard_peripheral/Include/gd32vf103_gpio.h"
 1030              		.file 23 "delay.h"
 1031              		.file 24 "c:\\kth\\he1043\\toolchain-gd32v-v202-win\\toolchain-gd32v-v202-win\\compiler\\riscv64-u
 1032              		.file 25 "usb_delay.h"
 1033              		.file 26 "gd32v_mpu6500_if.h"
 1034              		.file 27 "./../../firmware/GD32VF103_standard_peripheral/Include/gd32vf103_eclic.h"
 1035              		.file 28 "<built-in>"
GAS LISTING C:\Users\Uzair\AppData\Local\Temp\cc1gXnIM.s 			page 27


GAS LISTING C:\Users\Uzair\AppData\Local\Temp\cc1gXnIM.s 			page 28


DEFINED SYMBOLS
                            *ABS*:0000000000000000 main.c
                            *COM*:0000000000000e10 logg
C:\Users\Uzair\AppData\Local\Temp\cc1gXnIM.s:998    .sbss.antal_avvikelser:0000000000000000 antal_avvikelser
C:\Users\Uzair\AppData\Local\Temp\cc1gXnIM.s:1005   .sbss.millis:0000000000000000 millis
C:\Users\Uzair\AppData\Local\Temp\cc1gXnIM.s:16     .text.initStaticTimer:0000000000000000 initStaticTimer
C:\Users\Uzair\AppData\Local\Temp\cc1gXnIM.s:20     .text.initStaticTimer:0000000000000000 .L0 
C:\Users\Uzair\AppData\Local\Temp\cc1gXnIM.s:22     .text.initStaticTimer:0000000000000000 .L0 
C:\Users\Uzair\AppData\Local\Temp\cc1gXnIM.s:23     .text.initStaticTimer:0000000000000000 .L0 
C:\Users\Uzair\AppData\Local\Temp\cc1gXnIM.s:24     .text.initStaticTimer:0000000000000000 .L0 
C:\Users\Uzair\AppData\Local\Temp\cc1gXnIM.s:26     .text.initStaticTimer:0000000000000002 .L0 
C:\Users\Uzair\AppData\Local\Temp\cc1gXnIM.s:27     .text.initStaticTimer:0000000000000002 .L0 
C:\Users\Uzair\AppData\Local\Temp\cc1gXnIM.s:29     .text.initStaticTimer:0000000000000004 .L0 
C:\Users\Uzair\AppData\Local\Temp\cc1gXnIM.s:30     .text.initStaticTimer:0000000000000004 .L0 
C:\Users\Uzair\AppData\Local\Temp\cc1gXnIM.s:32     .text.initStaticTimer:0000000000000008 .L0 
C:\Users\Uzair\AppData\Local\Temp\cc1gXnIM.s:33     .text.initStaticTimer:0000000000000008 .L0 
C:\Users\Uzair\AppData\Local\Temp\cc1gXnIM.s:35     .text.initStaticTimer:000000000000000c .L0 
C:\Users\Uzair\AppData\Local\Temp\cc1gXnIM.s:36     .text.initStaticTimer:000000000000000e .L0 
C:\Users\Uzair\AppData\Local\Temp\cc1gXnIM.s:46     .text.updateStaticTimer:0000000000000000 updateStaticTimer
C:\Users\Uzair\AppData\Local\Temp\cc1gXnIM.s:49     .text.updateStaticTimer:0000000000000000 .L0 
C:\Users\Uzair\AppData\Local\Temp\cc1gXnIM.s:51     .text.updateStaticTimer:0000000000000000 .L0 
C:\Users\Uzair\AppData\Local\Temp\cc1gXnIM.s:53     .text.updateStaticTimer:0000000000000002 .L0 
C:\Users\Uzair\AppData\Local\Temp\cc1gXnIM.s:55     .text.updateStaticTimer:0000000000000004 .L0 
C:\Users\Uzair\AppData\Local\Temp\cc1gXnIM.s:58     .text.updateStaticTimer:0000000000000006 .L0 
C:\Users\Uzair\AppData\Local\Temp\cc1gXnIM.s:61     .text.updateStaticTimer:0000000000000008 .L0 
C:\Users\Uzair\AppData\Local\Temp\cc1gXnIM.s:62     .text.updateStaticTimer:000000000000000a .L0 
C:\Users\Uzair\AppData\Local\Temp\cc1gXnIM.s:65     .text.updateStaticTimer:000000000000000c .L0 
C:\Users\Uzair\AppData\Local\Temp\cc1gXnIM.s:66     .text.updateStaticTimer:000000000000000c .L0 
C:\Users\Uzair\AppData\Local\Temp\cc1gXnIM.s:69     .text.updateStaticTimer:000000000000000e .L0 
C:\Users\Uzair\AppData\Local\Temp\cc1gXnIM.s:72     .text.updateStaticTimer:0000000000000014 .L0 
C:\Users\Uzair\AppData\Local\Temp\cc1gXnIM.s:73     .text.updateStaticTimer:0000000000000014 .L0 
C:\Users\Uzair\AppData\Local\Temp\cc1gXnIM.s:74     .text.updateStaticTimer:0000000000000014 .L0 
C:\Users\Uzair\AppData\Local\Temp\cc1gXnIM.s:76     .text.updateStaticTimer:0000000000000014 .L0 
C:\Users\Uzair\AppData\Local\Temp\cc1gXnIM.s:78     .text.updateStaticTimer:0000000000000016 .L0 
C:\Users\Uzair\AppData\Local\Temp\cc1gXnIM.s:81     .text.updateStaticTimer:000000000000001e .L0 
C:\Users\Uzair\AppData\Local\Temp\cc1gXnIM.s:83     .text.updateStaticTimer:0000000000000022 .L0 
C:\Users\Uzair\AppData\Local\Temp\cc1gXnIM.s:86     .text.updateStaticTimer:0000000000000024 .L0 
C:\Users\Uzair\AppData\Local\Temp\cc1gXnIM.s:87     .text.updateStaticTimer:0000000000000024 .L0 
C:\Users\Uzair\AppData\Local\Temp\cc1gXnIM.s:91     .text.updateStaticTimer:0000000000000030 .L0 
C:\Users\Uzair\AppData\Local\Temp\cc1gXnIM.s:92     .text.updateStaticTimer:0000000000000030 .L0 
C:\Users\Uzair\AppData\Local\Temp\cc1gXnIM.s:97     .text.updateStaticTimer:0000000000000038 .L0 
C:\Users\Uzair\AppData\Local\Temp\cc1gXnIM.s:98     .text.updateStaticTimer:0000000000000038 .L0 
C:\Users\Uzair\AppData\Local\Temp\cc1gXnIM.s:106    .text.updateStaticTimer:000000000000004e .L0 
C:\Users\Uzair\AppData\Local\Temp\cc1gXnIM.s:107    .text.updateStaticTimer:000000000000004e .L0 
C:\Users\Uzair\AppData\Local\Temp\cc1gXnIM.s:110    .text.updateStaticTimer:0000000000000052 .L0 
C:\Users\Uzair\AppData\Local\Temp\cc1gXnIM.s:111    .text.updateStaticTimer:0000000000000052 .L0 
C:\Users\Uzair\AppData\Local\Temp\cc1gXnIM.s:114    .text.updateStaticTimer:0000000000000056 .L0 
C:\Users\Uzair\AppData\Local\Temp\cc1gXnIM.s:115    .text.updateStaticTimer:0000000000000056 .L0 
C:\Users\Uzair\AppData\Local\Temp\cc1gXnIM.s:117    .text.updateStaticTimer:0000000000000058 .L0 
C:\Users\Uzair\AppData\Local\Temp\cc1gXnIM.s:118    .text.updateStaticTimer:0000000000000058 .L0 
C:\Users\Uzair\AppData\Local\Temp\cc1gXnIM.s:121    .text.updateStaticTimer:000000000000005c .L0 
C:\Users\Uzair\AppData\Local\Temp\cc1gXnIM.s:122    .text.updateStaticTimer:000000000000005c .L0 
C:\Users\Uzair\AppData\Local\Temp\cc1gXnIM.s:124    .text.updateStaticTimer:000000000000005e .L0 
C:\Users\Uzair\AppData\Local\Temp\cc1gXnIM.s:127    .text.updateStaticTimer:0000000000000066 .L0 
C:\Users\Uzair\AppData\Local\Temp\cc1gXnIM.s:131    .text.updateStaticTimer:0000000000000068 .L0 
C:\Users\Uzair\AppData\Local\Temp\cc1gXnIM.s:132    .text.updateStaticTimer:0000000000000068 .L0 
C:\Users\Uzair\AppData\Local\Temp\cc1gXnIM.s:135    .text.updateStaticTimer:000000000000006a .L0 
GAS LISTING C:\Users\Uzair\AppData\Local\Temp\cc1gXnIM.s 			page 29


C:\Users\Uzair\AppData\Local\Temp\cc1gXnIM.s:137    .text.updateStaticTimer:000000000000006e .L0 
C:\Users\Uzair\AppData\Local\Temp\cc1gXnIM.s:139    .text.updateStaticTimer:0000000000000070 .L0 
C:\Users\Uzair\AppData\Local\Temp\cc1gXnIM.s:141    .text.updateStaticTimer:0000000000000072 .L0 
C:\Users\Uzair\AppData\Local\Temp\cc1gXnIM.s:142    .text.updateStaticTimer:0000000000000072 .L0 
C:\Users\Uzair\AppData\Local\Temp\cc1gXnIM.s:145    .text.updateStaticTimer:0000000000000076 .L0 
C:\Users\Uzair\AppData\Local\Temp\cc1gXnIM.s:146    .text.updateStaticTimer:0000000000000076 .L0 
C:\Users\Uzair\AppData\Local\Temp\cc1gXnIM.s:151    .text.updateStaticTimer:0000000000000078 .L0 
C:\Users\Uzair\AppData\Local\Temp\cc1gXnIM.s:152    .text.updateStaticTimer:000000000000007a .L0 
C:\Users\Uzair\AppData\Local\Temp\cc1gXnIM.s:153    .text.updateStaticTimer:000000000000007a .L0 
C:\Users\Uzair\AppData\Local\Temp\cc1gXnIM.s:155    .text.updateStaticTimer:000000000000007c .L0 
C:\Users\Uzair\AppData\Local\Temp\cc1gXnIM.s:158    .text.updateStaticTimer:000000000000007e .L0 
C:\Users\Uzair\AppData\Local\Temp\cc1gXnIM.s:160    .text.updateStaticTimer:0000000000000080 .L0 
C:\Users\Uzair\AppData\Local\Temp\cc1gXnIM.s:163    .text.updateStaticTimer:0000000000000082 .L0 
C:\Users\Uzair\AppData\Local\Temp\cc1gXnIM.s:167    .text.updateStaticTimer:0000000000000084 .L0 
C:\Users\Uzair\AppData\Local\Temp\cc1gXnIM.s:172    .text.updateStaticTimer:0000000000000086 .L0 
C:\Users\Uzair\AppData\Local\Temp\cc1gXnIM.s:175    .text.updateStaticTimer:0000000000000086 .L0 
C:\Users\Uzair\AppData\Local\Temp\cc1gXnIM.s:176    .text.updateStaticTimer:0000000000000086 .L0 
C:\Users\Uzair\AppData\Local\Temp\cc1gXnIM.s:185    .text.updateStaticTimer:0000000000000092 .L0 
C:\Users\Uzair\AppData\Local\Temp\cc1gXnIM.s:188    .text.updateStaticTimer:0000000000000098 .L0 
C:\Users\Uzair\AppData\Local\Temp\cc1gXnIM.s:189    .text.updateStaticTimer:0000000000000098 .L0 
C:\Users\Uzair\AppData\Local\Temp\cc1gXnIM.s:192    .text.updateStaticTimer:000000000000009c .L0 
C:\Users\Uzair\AppData\Local\Temp\cc1gXnIM.s:193    .text.updateStaticTimer:000000000000009c .L0 
C:\Users\Uzair\AppData\Local\Temp\cc1gXnIM.s:201    .text.updateStaticTimer:00000000000000a0 .L0 
C:\Users\Uzair\AppData\Local\Temp\cc1gXnIM.s:202    .text.updateStaticTimer:00000000000000a0 .L0 
C:\Users\Uzair\AppData\Local\Temp\cc1gXnIM.s:204    .text.updateStaticTimer:00000000000000a4 .L0 
C:\Users\Uzair\AppData\Local\Temp\cc1gXnIM.s:205    .text.updateStaticTimer:00000000000000a4 .L0 
C:\Users\Uzair\AppData\Local\Temp\cc1gXnIM.s:207    .text.updateStaticTimer:00000000000000a8 .L0 
C:\Users\Uzair\AppData\Local\Temp\cc1gXnIM.s:208    .text.updateStaticTimer:00000000000000a8 .L0 
C:\Users\Uzair\AppData\Local\Temp\cc1gXnIM.s:210    .text.updateStaticTimer:00000000000000ac .L0 
C:\Users\Uzair\AppData\Local\Temp\cc1gXnIM.s:212    .text.updateStaticTimer:00000000000000b0 .L0 
C:\Users\Uzair\AppData\Local\Temp\cc1gXnIM.s:219    .text.interrupt_config:0000000000000000 interrupt_config
C:\Users\Uzair\AppData\Local\Temp\cc1gXnIM.s:222    .text.interrupt_config:0000000000000000 .L0 
C:\Users\Uzair\AppData\Local\Temp\cc1gXnIM.s:223    .text.interrupt_config:0000000000000000 .L0 
C:\Users\Uzair\AppData\Local\Temp\cc1gXnIM.s:224    .text.interrupt_config:0000000000000000 .L0 
C:\Users\Uzair\AppData\Local\Temp\cc1gXnIM.s:225    .text.interrupt_config:0000000000000000 .L0 
C:\Users\Uzair\AppData\Local\Temp\cc1gXnIM.s:226    .text.interrupt_config:0000000000000000 .L0 
C:\Users\Uzair\AppData\Local\Temp\cc1gXnIM.s:227    .text.interrupt_config:0000000000000000 .L0 
C:\Users\Uzair\AppData\Local\Temp\cc1gXnIM.s:229    .text.interrupt_config:0000000000000002 .L0 
C:\Users\Uzair\AppData\Local\Temp\cc1gXnIM.s:231    .text.interrupt_config:0000000000000002 .L0 
C:\Users\Uzair\AppData\Local\Temp\cc1gXnIM.s:235    .text.interrupt_config:000000000000000a .L0 
C:\Users\Uzair\AppData\Local\Temp\cc1gXnIM.s:237    .text.interrupt_config:000000000000000e .L0 
C:\Users\Uzair\AppData\Local\Temp\cc1gXnIM.s:238    .text.interrupt_config:000000000000000e .L0 
C:\Users\Uzair\AppData\Local\Temp\cc1gXnIM.s:240    .text.interrupt_config:000000000000000e .L0 
C:\Users\Uzair\AppData\Local\Temp\cc1gXnIM.s:243    .text.interrupt_config:0000000000000016 .L0 
C:\Users\Uzair\AppData\Local\Temp\cc1gXnIM.s:247    .text.interrupt_config:0000000000000022 .L0 
C:\Users\Uzair\AppData\Local\Temp\cc1gXnIM.s:251    .text.interrupt_config:000000000000002e .L0 
C:\Users\Uzair\AppData\Local\Temp\cc1gXnIM.s:255    .text.interrupt_config:0000000000000038 .L0 
C:\Users\Uzair\AppData\Local\Temp\cc1gXnIM.s:256    .text.interrupt_config:0000000000000038 .L0 
C:\Users\Uzair\AppData\Local\Temp\cc1gXnIM.s:257    .text.interrupt_config:0000000000000038 .L0 
C:\Users\Uzair\AppData\Local\Temp\cc1gXnIM.s:258    .text.interrupt_config:0000000000000038 .L0 
C:\Users\Uzair\AppData\Local\Temp\cc1gXnIM.s:261    .text.interrupt_config:000000000000003e .L0 
C:\Users\Uzair\AppData\Local\Temp\cc1gXnIM.s:263    .text.interrupt_config:0000000000000040 .L0 
C:\Users\Uzair\AppData\Local\Temp\cc1gXnIM.s:265    .text.interrupt_config:0000000000000042 .L0 
C:\Users\Uzair\AppData\Local\Temp\cc1gXnIM.s:267    .text.interrupt_config:0000000000000046 .L0 
C:\Users\Uzair\AppData\Local\Temp\cc1gXnIM.s:269    .text.interrupt_config:0000000000000048 .L0 
C:\Users\Uzair\AppData\Local\Temp\cc1gXnIM.s:271    .text.interrupt_config:000000000000004a .L0 
C:\Users\Uzair\AppData\Local\Temp\cc1gXnIM.s:273    .text.interrupt_config:000000000000004e .L0 
GAS LISTING C:\Users\Uzair\AppData\Local\Temp\cc1gXnIM.s 			page 30


C:\Users\Uzair\AppData\Local\Temp\cc1gXnIM.s:274    .text.interrupt_config:000000000000004e .L0 
C:\Users\Uzair\AppData\Local\Temp\cc1gXnIM.s:275    .text.interrupt_config:000000000000004e .L0 
C:\Users\Uzair\AppData\Local\Temp\cc1gXnIM.s:277    .text.interrupt_config:0000000000000052 .L0 
C:\Users\Uzair\AppData\Local\Temp\cc1gXnIM.s:280    .text.interrupt_config:000000000000005a .L0 
C:\Users\Uzair\AppData\Local\Temp\cc1gXnIM.s:284    .text.interrupt_config:0000000000000064 .L0 
C:\Users\Uzair\AppData\Local\Temp\cc1gXnIM.s:285    .text.interrupt_config:0000000000000064 .L0 
C:\Users\Uzair\AppData\Local\Temp\cc1gXnIM.s:289    .text.interrupt_config:000000000000006c .L0 
C:\Users\Uzair\AppData\Local\Temp\cc1gXnIM.s:291    .text.interrupt_config:0000000000000070 .L0 
C:\Users\Uzair\AppData\Local\Temp\cc1gXnIM.s:292    .text.interrupt_config:0000000000000070 .L0 
C:\Users\Uzair\AppData\Local\Temp\cc1gXnIM.s:294    .text.interrupt_config:0000000000000074 .L0 
C:\Users\Uzair\AppData\Local\Temp\cc1gXnIM.s:295    .text.interrupt_config:0000000000000074 .L0 
C:\Users\Uzair\AppData\Local\Temp\cc1gXnIM.s:297    .text.interrupt_config:0000000000000078 .L0 
C:\Users\Uzair\AppData\Local\Temp\cc1gXnIM.s:300    .text.interrupt_config:0000000000000080 .L0 
C:\Users\Uzair\AppData\Local\Temp\cc1gXnIM.s:307    .text.interrupt_config:0000000000000094 .L0 
C:\Users\Uzair\AppData\Local\Temp\cc1gXnIM.s:313    .text.interrupt_config:00000000000000a4 .L0 
C:\Users\Uzair\AppData\Local\Temp\cc1gXnIM.s:319    .text.interrupt_config:00000000000000b4 .L0 
C:\Users\Uzair\AppData\Local\Temp\cc1gXnIM.s:324    .text.interrupt_config:00000000000000c2 .L0 
C:\Users\Uzair\AppData\Local\Temp\cc1gXnIM.s:329    .text.interrupt_config:00000000000000d0 .L0 
C:\Users\Uzair\AppData\Local\Temp\cc1gXnIM.s:333    .text.interrupt_config:00000000000000dc .L0 
C:\Users\Uzair\AppData\Local\Temp\cc1gXnIM.s:334    .text.interrupt_config:00000000000000de .L0 
C:\Users\Uzair\AppData\Local\Temp\cc1gXnIM.s:336    .text.interrupt_config:00000000000000e0 .L0 
C:\Users\Uzair\AppData\Local\Temp\cc1gXnIM.s:339    .text.interrupt_config:00000000000000e2 .L0 
C:\Users\Uzair\AppData\Local\Temp\cc1gXnIM.s:341    .text.interrupt_config:00000000000000e4 .L0 
C:\Users\Uzair\AppData\Local\Temp\cc1gXnIM.s:348    .text.TIMER1_IRQHandler:0000000000000000 TIMER1_IRQHandler
C:\Users\Uzair\AppData\Local\Temp\cc1gXnIM.s:351    .text.TIMER1_IRQHandler:0000000000000000 .L0 
C:\Users\Uzair\AppData\Local\Temp\cc1gXnIM.s:352    .text.TIMER1_IRQHandler:0000000000000000 .L0 
C:\Users\Uzair\AppData\Local\Temp\cc1gXnIM.s:353    .text.TIMER1_IRQHandler:0000000000000000 .L0 
C:\Users\Uzair\AppData\Local\Temp\cc1gXnIM.s:354    .text.TIMER1_IRQHandler:0000000000000000 .L0 
C:\Users\Uzair\AppData\Local\Temp\cc1gXnIM.s:356    .text.TIMER1_IRQHandler:0000000000000002 .L0 
C:\Users\Uzair\AppData\Local\Temp\cc1gXnIM.s:358    .text.TIMER1_IRQHandler:0000000000000002 .L0 
C:\Users\Uzair\AppData\Local\Temp\cc1gXnIM.s:361    .text.TIMER1_IRQHandler:0000000000000008 .L0 
C:\Users\Uzair\AppData\Local\Temp\cc1gXnIM.s:362    .text.TIMER1_IRQHandler:000000000000000a .L0 
C:\Users\Uzair\AppData\Local\Temp\cc1gXnIM.s:364    .text.TIMER1_IRQHandler:000000000000000a .L0 
C:\Users\Uzair\AppData\Local\Temp\cc1gXnIM.s:367    .text.TIMER1_IRQHandler:0000000000000012 .L0 
C:\Users\Uzair\AppData\Local\Temp\cc1gXnIM.s:370    .text.TIMER1_IRQHandler:0000000000000018 .L0 
C:\Users\Uzair\AppData\Local\Temp\cc1gXnIM.s:371    .text.TIMER1_IRQHandler:0000000000000018 .L0 
C:\Users\Uzair\AppData\Local\Temp\cc1gXnIM.s:375    .text.TIMER1_IRQHandler:0000000000000022 .L0 
C:\Users\Uzair\AppData\Local\Temp\cc1gXnIM.s:376    .text.TIMER1_IRQHandler:0000000000000024 .L0 
C:\Users\Uzair\AppData\Local\Temp\cc1gXnIM.s:377    .text.TIMER1_IRQHandler:0000000000000024 .L0 
C:\Users\Uzair\AppData\Local\Temp\cc1gXnIM.s:379    .text.TIMER1_IRQHandler:0000000000000024 .L0 
C:\Users\Uzair\AppData\Local\Temp\cc1gXnIM.s:381    .text.TIMER1_IRQHandler:0000000000000026 .L0 
C:\Users\Uzair\AppData\Local\Temp\cc1gXnIM.s:384    .text.TIMER1_IRQHandler:000000000000002a .L0 
C:\Users\Uzair\AppData\Local\Temp\cc1gXnIM.s:385    .text.TIMER1_IRQHandler:000000000000002a .L0 
C:\Users\Uzair\AppData\Local\Temp\cc1gXnIM.s:386    .text.TIMER1_IRQHandler:000000000000002a .L0 
C:\Users\Uzair\AppData\Local\Temp\cc1gXnIM.s:388    .text.TIMER1_IRQHandler:000000000000002e .L0 
C:\Users\Uzair\AppData\Local\Temp\cc1gXnIM.s:390    .text.TIMER1_IRQHandler:0000000000000030 .L0 
C:\Users\Uzair\AppData\Local\Temp\cc1gXnIM.s:392    .text.TIMER1_IRQHandler:0000000000000030 .L0 
C:\Users\Uzair\AppData\Local\Temp\cc1gXnIM.s:396    .text.TIMER1_IRQHandler:0000000000000038 .L0 
C:\Users\Uzair\AppData\Local\Temp\cc1gXnIM.s:398    .text.TIMER1_IRQHandler:0000000000000038 .L0 
C:\Users\Uzair\AppData\Local\Temp\cc1gXnIM.s:399    .text.TIMER1_IRQHandler:000000000000003a .L0 
C:\Users\Uzair\AppData\Local\Temp\cc1gXnIM.s:402    .text.TIMER1_IRQHandler:000000000000003c .L0 
C:\Users\Uzair\AppData\Local\Temp\cc1gXnIM.s:404    .text.TIMER1_IRQHandler:000000000000003e .L0 
C:\Users\Uzair\AppData\Local\Temp\cc1gXnIM.s:419    .text.startup.main:0000000000000000 main
C:\Users\Uzair\AppData\Local\Temp\cc1gXnIM.s:422    .text.startup.main:0000000000000000 .L0 
C:\Users\Uzair\AppData\Local\Temp\cc1gXnIM.s:423    .text.startup.main:0000000000000000 .L0 
C:\Users\Uzair\AppData\Local\Temp\cc1gXnIM.s:424    .text.startup.main:0000000000000000 .L0 
C:\Users\Uzair\AppData\Local\Temp\cc1gXnIM.s:425    .text.startup.main:0000000000000000 .L0 
GAS LISTING C:\Users\Uzair\AppData\Local\Temp\cc1gXnIM.s 			page 31


C:\Users\Uzair\AppData\Local\Temp\cc1gXnIM.s:427    .text.startup.main:0000000000000000 .L0 
C:\Users\Uzair\AppData\Local\Temp\cc1gXnIM.s:428    .text.startup.main:0000000000000000 .L0 
C:\Users\Uzair\AppData\Local\Temp\cc1gXnIM.s:429    .text.startup.main:0000000000000000 .L0 
C:\Users\Uzair\AppData\Local\Temp\cc1gXnIM.s:430    .text.startup.main:0000000000000000 .L0 
C:\Users\Uzair\AppData\Local\Temp\cc1gXnIM.s:431    .text.startup.main:0000000000000000 .L0 
C:\Users\Uzair\AppData\Local\Temp\cc1gXnIM.s:432    .text.startup.main:0000000000000000 .L0 
C:\Users\Uzair\AppData\Local\Temp\cc1gXnIM.s:434    .text.startup.main:0000000000000002 .L0 
C:\Users\Uzair\AppData\Local\Temp\cc1gXnIM.s:447    .text.startup.main:000000000000001a .L0 
C:\Users\Uzair\AppData\Local\Temp\cc1gXnIM.s:448    .text.startup.main:000000000000001a .L0 
C:\Users\Uzair\AppData\Local\Temp\cc1gXnIM.s:449    .text.startup.main:000000000000001a .L0 
C:\Users\Uzair\AppData\Local\Temp\cc1gXnIM.s:450    .text.startup.main:000000000000001a .L0 
C:\Users\Uzair\AppData\Local\Temp\cc1gXnIM.s:451    .text.startup.main:000000000000001a .L0 
C:\Users\Uzair\AppData\Local\Temp\cc1gXnIM.s:452    .text.startup.main:000000000000001a .L0 
C:\Users\Uzair\AppData\Local\Temp\cc1gXnIM.s:453    .text.startup.main:000000000000001a .L0 
C:\Users\Uzair\AppData\Local\Temp\cc1gXnIM.s:454    .text.startup.main:000000000000001a .L0 
C:\Users\Uzair\AppData\Local\Temp\cc1gXnIM.s:455    .text.startup.main:000000000000001a .L0 
C:\Users\Uzair\AppData\Local\Temp\cc1gXnIM.s:456    .text.startup.main:000000000000001a .L0 
C:\Users\Uzair\AppData\Local\Temp\cc1gXnIM.s:457    .text.startup.main:000000000000001a .L0 
C:\Users\Uzair\AppData\Local\Temp\cc1gXnIM.s:458    .text.startup.main:000000000000001a .L0 
C:\Users\Uzair\AppData\Local\Temp\cc1gXnIM.s:460    .text.startup.main:000000000000001a .L0 
C:\Users\Uzair\AppData\Local\Temp\cc1gXnIM.s:464    .text.startup.main:0000000000000022 .L0 
C:\Users\Uzair\AppData\Local\Temp\cc1gXnIM.s:465    .text.startup.main:0000000000000022 .L0 
C:\Users\Uzair\AppData\Local\Temp\cc1gXnIM.s:468    .text.startup.main:000000000000002a .L0 
C:\Users\Uzair\AppData\Local\Temp\cc1gXnIM.s:470    .text.startup.main:000000000000002e .L0 
C:\Users\Uzair\AppData\Local\Temp\cc1gXnIM.s:474    .text.startup.main:000000000000003a .L0 
C:\Users\Uzair\AppData\Local\Temp\cc1gXnIM.s:478    .text.startup.main:0000000000000046 .L0 
C:\Users\Uzair\AppData\Local\Temp\cc1gXnIM.s:486    .text.startup.main:000000000000005c .L0 
C:\Users\Uzair\AppData\Local\Temp\cc1gXnIM.s:490    .text.startup.main:0000000000000068 .L0 
C:\Users\Uzair\AppData\Local\Temp\cc1gXnIM.s:497    .text.startup.main:000000000000007a .L0 
C:\Users\Uzair\AppData\Local\Temp\cc1gXnIM.s:504    .text.startup.main:000000000000008e .L0 
C:\Users\Uzair\AppData\Local\Temp\cc1gXnIM.s:508    .text.startup.main:000000000000009a .L0 
C:\Users\Uzair\AppData\Local\Temp\cc1gXnIM.s:515    .text.startup.main:00000000000000ae .L0 
C:\Users\Uzair\AppData\Local\Temp\cc1gXnIM.s:520    .text.startup.main:00000000000000be .L0 
C:\Users\Uzair\AppData\Local\Temp\cc1gXnIM.s:524    .text.startup.main:00000000000000c8 .L0 
C:\Users\Uzair\AppData\Local\Temp\cc1gXnIM.s:527    .text.startup.main:00000000000000d0 .L0 
C:\Users\Uzair\AppData\Local\Temp\cc1gXnIM.s:531    .text.startup.main:00000000000000da .L0 
C:\Users\Uzair\AppData\Local\Temp\cc1gXnIM.s:534    .text.startup.main:00000000000000dc .L0 
C:\Users\Uzair\AppData\Local\Temp\cc1gXnIM.s:537    .text.startup.main:00000000000000e0 .L0 
C:\Users\Uzair\AppData\Local\Temp\cc1gXnIM.s:541    .text.startup.main:00000000000000e8 .L0 
C:\Users\Uzair\AppData\Local\Temp\cc1gXnIM.s:542    .text.startup.main:00000000000000e8 .L0 
C:\Users\Uzair\AppData\Local\Temp\cc1gXnIM.s:544    .text.startup.main:00000000000000ec .L0 
C:\Users\Uzair\AppData\Local\Temp\cc1gXnIM.s:547    .text.startup.main:00000000000000f0 .L0 
C:\Users\Uzair\AppData\Local\Temp\cc1gXnIM.s:551    .text.startup.main:00000000000000f4 .L0 
C:\Users\Uzair\AppData\Local\Temp\cc1gXnIM.s:554    .text.startup.main:00000000000000fc .L0 
C:\Users\Uzair\AppData\Local\Temp\cc1gXnIM.s:555    .text.startup.main:00000000000000fc .L0 
C:\Users\Uzair\AppData\Local\Temp\cc1gXnIM.s:557    .text.startup.main:00000000000000fe .L0 
C:\Users\Uzair\AppData\Local\Temp\cc1gXnIM.s:560    .text.startup.main:0000000000000106 .L0 
C:\Users\Uzair\AppData\Local\Temp\cc1gXnIM.s:562    .text.startup.main:0000000000000108 .L0 
C:\Users\Uzair\AppData\Local\Temp\cc1gXnIM.s:565    .text.startup.main:000000000000010c .L0 
C:\Users\Uzair\AppData\Local\Temp\cc1gXnIM.s:567    .text.startup.main:0000000000000110 .L0 
C:\Users\Uzair\AppData\Local\Temp\cc1gXnIM.s:569    .text.startup.main:0000000000000114 .L0 
C:\Users\Uzair\AppData\Local\Temp\cc1gXnIM.s:572    .text.startup.main:0000000000000118 .L0 
C:\Users\Uzair\AppData\Local\Temp\cc1gXnIM.s:579    .text.startup.main:000000000000011c .L0 
C:\Users\Uzair\AppData\Local\Temp\cc1gXnIM.s:580    .text.startup.main:000000000000011c .L0 
C:\Users\Uzair\AppData\Local\Temp\cc1gXnIM.s:584    .text.startup.main:0000000000000126 .L0 
C:\Users\Uzair\AppData\Local\Temp\cc1gXnIM.s:585    .text.startup.main:0000000000000126 .L0 
C:\Users\Uzair\AppData\Local\Temp\cc1gXnIM.s:598    .text.startup.main:000000000000014a .L0 
GAS LISTING C:\Users\Uzair\AppData\Local\Temp\cc1gXnIM.s 			page 32


C:\Users\Uzair\AppData\Local\Temp\cc1gXnIM.s:606    .text.startup.main:000000000000015e .L0 
C:\Users\Uzair\AppData\Local\Temp\cc1gXnIM.s:611    .text.startup.main:0000000000000168 .L0 
C:\Users\Uzair\AppData\Local\Temp\cc1gXnIM.s:612    .text.startup.main:0000000000000168 .L0 
C:\Users\Uzair\AppData\Local\Temp\cc1gXnIM.s:618    .text.startup.main:0000000000000174 .L0 
C:\Users\Uzair\AppData\Local\Temp\cc1gXnIM.s:621    .text.startup.main:0000000000000178 .L0 
C:\Users\Uzair\AppData\Local\Temp\cc1gXnIM.s:622    .text.startup.main:0000000000000178 .L0 
C:\Users\Uzair\AppData\Local\Temp\cc1gXnIM.s:623    .text.startup.main:0000000000000178 .L0 
C:\Users\Uzair\AppData\Local\Temp\cc1gXnIM.s:631    .text.startup.main:000000000000017e .L0 
C:\Users\Uzair\AppData\Local\Temp\cc1gXnIM.s:632    .text.startup.main:000000000000017e .L0 
C:\Users\Uzair\AppData\Local\Temp\cc1gXnIM.s:637    .text.startup.main:0000000000000184 .L0 
C:\Users\Uzair\AppData\Local\Temp\cc1gXnIM.s:639    .text.startup.main:0000000000000186 .L0 
C:\Users\Uzair\AppData\Local\Temp\cc1gXnIM.s:641    .text.startup.main:0000000000000188 .L0 
C:\Users\Uzair\AppData\Local\Temp\cc1gXnIM.s:642    .text.startup.main:0000000000000188 .L0 
C:\Users\Uzair\AppData\Local\Temp\cc1gXnIM.s:643    .text.startup.main:0000000000000188 .L0 
C:\Users\Uzair\AppData\Local\Temp\cc1gXnIM.s:645    .text.startup.main:000000000000018a .L0 
C:\Users\Uzair\AppData\Local\Temp\cc1gXnIM.s:646    .text.startup.main:000000000000018a .L0 
C:\Users\Uzair\AppData\Local\Temp\cc1gXnIM.s:651    .text.startup.main:000000000000018c .L0 
C:\Users\Uzair\AppData\Local\Temp\cc1gXnIM.s:654    .text.startup.main:0000000000000194 .L0 
C:\Users\Uzair\AppData\Local\Temp\cc1gXnIM.s:658    .text.startup.main:00000000000001a0 .L0 
C:\Users\Uzair\AppData\Local\Temp\cc1gXnIM.s:660    .text.startup.main:00000000000001a2 .L0 
C:\Users\Uzair\AppData\Local\Temp\cc1gXnIM.s:664    .text.startup.main:00000000000001a4 .L0 
C:\Users\Uzair\AppData\Local\Temp\cc1gXnIM.s:665    .text.startup.main:00000000000001a4 .L0 
C:\Users\Uzair\AppData\Local\Temp\cc1gXnIM.s:672    .text.startup.main:00000000000001b2 .L0 
C:\Users\Uzair\AppData\Local\Temp\cc1gXnIM.s:691    .text.startup.main:00000000000001e4 .L0 
C:\Users\Uzair\AppData\Local\Temp\cc1gXnIM.s:692    .text.startup.main:00000000000001e4 .L0 
C:\Users\Uzair\AppData\Local\Temp\cc1gXnIM.s:698    .text.startup.main:00000000000001f2 .L0 
C:\Users\Uzair\AppData\Local\Temp\cc1gXnIM.s:712    .text.startup.main:000000000000021a .L0 
C:\Users\Uzair\AppData\Local\Temp\cc1gXnIM.s:716    .text.startup.main:0000000000000224 .L0 
C:\Users\Uzair\AppData\Local\Temp\cc1gXnIM.s:720    .text.startup.main:0000000000000230 .L0 
C:\Users\Uzair\AppData\Local\Temp\cc1gXnIM.s:721    .text.startup.main:0000000000000230 .L0 
C:\Users\Uzair\AppData\Local\Temp\cc1gXnIM.s:725    .text.startup.main:0000000000000234 .L0 
C:\Users\Uzair\AppData\Local\Temp\cc1gXnIM.s:726    .text.startup.main:0000000000000234 .L0 
C:\Users\Uzair\AppData\Local\Temp\cc1gXnIM.s:733    .text.startup.main:0000000000000246 .L0 
C:\Users\Uzair\AppData\Local\Temp\cc1gXnIM.s:736    .text.startup.main:000000000000024a .L0 
C:\Users\Uzair\AppData\Local\Temp\cc1gXnIM.s:738    .text.startup.main:000000000000024e .L0 
C:\Users\Uzair\AppData\Local\Temp\cc1gXnIM.s:744    .text.startup.main:000000000000025e .L0 
C:\Users\Uzair\AppData\Local\Temp\cc1gXnIM.s:748    .text.startup.main:000000000000026a .L0 
C:\Users\Uzair\AppData\Local\Temp\cc1gXnIM.s:754    .text.startup.main:000000000000027a .L0 
C:\Users\Uzair\AppData\Local\Temp\cc1gXnIM.s:755    .text.startup.main:000000000000027a .L0 
C:\Users\Uzair\AppData\Local\Temp\cc1gXnIM.s:756    .text.startup.main:000000000000027a .L0 
C:\Users\Uzair\AppData\Local\Temp\cc1gXnIM.s:761    .text.startup.main:0000000000000286 .L0 
C:\Users\Uzair\AppData\Local\Temp\cc1gXnIM.s:763    .text.startup.main:000000000000028a .L0 
C:\Users\Uzair\AppData\Local\Temp\cc1gXnIM.s:765    .text.startup.main:000000000000028e .L0 
C:\Users\Uzair\AppData\Local\Temp\cc1gXnIM.s:769    .text.startup.main:000000000000029a .L0 
C:\Users\Uzair\AppData\Local\Temp\cc1gXnIM.s:770    .text.startup.main:000000000000029a .L0 
C:\Users\Uzair\AppData\Local\Temp\cc1gXnIM.s:773    .text.startup.main:000000000000029e .L0 
C:\Users\Uzair\AppData\Local\Temp\cc1gXnIM.s:774    .text.startup.main:000000000000029e .L0 
C:\Users\Uzair\AppData\Local\Temp\cc1gXnIM.s:775    .text.startup.main:000000000000029e .L0 
C:\Users\Uzair\AppData\Local\Temp\cc1gXnIM.s:779    .text.startup.main:00000000000002a8 .L0 
C:\Users\Uzair\AppData\Local\Temp\cc1gXnIM.s:783    .text.startup.main:00000000000002b2 .L0 
C:\Users\Uzair\AppData\Local\Temp\cc1gXnIM.s:784    .text.startup.main:00000000000002b2 .L0 
C:\Users\Uzair\AppData\Local\Temp\cc1gXnIM.s:789    .text.startup.main:00000000000002c0 .L0 
C:\Users\Uzair\AppData\Local\Temp\cc1gXnIM.s:792    .text.startup.main:00000000000002c6 .L0 
C:\Users\Uzair\AppData\Local\Temp\cc1gXnIM.s:795    .text.startup.main:00000000000002ca .L0 
C:\Users\Uzair\AppData\Local\Temp\cc1gXnIM.s:798    .text.startup.main:00000000000002ce .L0 
C:\Users\Uzair\AppData\Local\Temp\cc1gXnIM.s:799    .text.startup.main:00000000000002ce .L0 
C:\Users\Uzair\AppData\Local\Temp\cc1gXnIM.s:801    .text.startup.main:00000000000002d2 .L0 
GAS LISTING C:\Users\Uzair\AppData\Local\Temp\cc1gXnIM.s 			page 33


C:\Users\Uzair\AppData\Local\Temp\cc1gXnIM.s:803    .text.startup.main:00000000000002d6 .L0 
C:\Users\Uzair\AppData\Local\Temp\cc1gXnIM.s:805    .text.startup.main:00000000000002da .L0 
C:\Users\Uzair\AppData\Local\Temp\cc1gXnIM.s:808    .text.startup.main:00000000000002e2 .L0 
C:\Users\Uzair\AppData\Local\Temp\cc1gXnIM.s:810    .text.startup.main:00000000000002e4 .L0 
C:\Users\Uzair\AppData\Local\Temp\cc1gXnIM.s:814    .text.startup.main:00000000000002e4 .L0 
C:\Users\Uzair\AppData\Local\Temp\cc1gXnIM.s:815    .text.startup.main:00000000000002e4 .L0 
C:\Users\Uzair\AppData\Local\Temp\cc1gXnIM.s:816    .text.startup.main:00000000000002e4 .L0 
C:\Users\Uzair\AppData\Local\Temp\cc1gXnIM.s:828    .text.startup.main:0000000000000300 .L0 
C:\Users\Uzair\AppData\Local\Temp\cc1gXnIM.s:835    .text.startup.main:0000000000000314 .L0 
C:\Users\Uzair\AppData\Local\Temp\cc1gXnIM.s:836    .text.startup.main:0000000000000314 .L0 
C:\Users\Uzair\AppData\Local\Temp\cc1gXnIM.s:841    .text.startup.main:0000000000000320 .L0 
C:\Users\Uzair\AppData\Local\Temp\cc1gXnIM.s:845    .text.startup.main:000000000000032a .L0 
C:\Users\Uzair\AppData\Local\Temp\cc1gXnIM.s:848    .text.startup.main:0000000000000332 .L0 
C:\Users\Uzair\AppData\Local\Temp\cc1gXnIM.s:850    .text.startup.main:0000000000000334 .L0 
C:\Users\Uzair\AppData\Local\Temp\cc1gXnIM.s:852    .text.startup.main:0000000000000336 .L0 
C:\Users\Uzair\AppData\Local\Temp\cc1gXnIM.s:856    .text.startup.main:0000000000000340 .L0 
C:\Users\Uzair\AppData\Local\Temp\cc1gXnIM.s:860    .text.startup.main:000000000000034a .L0 
C:\Users\Uzair\AppData\Local\Temp\cc1gXnIM.s:870    .text.startup.main:0000000000000368 .L0 
C:\Users\Uzair\AppData\Local\Temp\cc1gXnIM.s:871    .text.startup.main:0000000000000368 .L0 
C:\Users\Uzair\AppData\Local\Temp\cc1gXnIM.s:876    .text.startup.main:0000000000000374 .L0 
C:\Users\Uzair\AppData\Local\Temp\cc1gXnIM.s:880    .text.startup.main:000000000000037e .L0 
C:\Users\Uzair\AppData\Local\Temp\cc1gXnIM.s:883    .text.startup.main:0000000000000386 .L0 
C:\Users\Uzair\AppData\Local\Temp\cc1gXnIM.s:885    .text.startup.main:0000000000000388 .L0 
C:\Users\Uzair\AppData\Local\Temp\cc1gXnIM.s:887    .text.startup.main:000000000000038a .L0 
C:\Users\Uzair\AppData\Local\Temp\cc1gXnIM.s:891    .text.startup.main:0000000000000394 .L0 
C:\Users\Uzair\AppData\Local\Temp\cc1gXnIM.s:895    .text.startup.main:000000000000039e .L0 
C:\Users\Uzair\AppData\Local\Temp\cc1gXnIM.s:905    .text.startup.main:00000000000003bc .L0 
C:\Users\Uzair\AppData\Local\Temp\cc1gXnIM.s:906    .text.startup.main:00000000000003bc .L0 
C:\Users\Uzair\AppData\Local\Temp\cc1gXnIM.s:912    .text.startup.main:00000000000003ca .L0 
C:\Users\Uzair\AppData\Local\Temp\cc1gXnIM.s:916    .text.startup.main:00000000000003d2 .L0 
C:\Users\Uzair\AppData\Local\Temp\cc1gXnIM.s:920    .text.startup.main:00000000000003d4 .L0 
C:\Users\Uzair\AppData\Local\Temp\cc1gXnIM.s:928    .text.startup.main:00000000000003e2 .L0 
C:\Users\Uzair\AppData\Local\Temp\cc1gXnIM.s:937    .text.startup.main:00000000000003f2 .L0 
C:\Users\Uzair\AppData\Local\Temp\cc1gXnIM.s:938    .text.startup.main:00000000000003f2 .L0 
C:\Users\Uzair\AppData\Local\Temp\cc1gXnIM.s:941    .text.startup.main:00000000000003f8 .L0 
C:\Users\Uzair\AppData\Local\Temp\cc1gXnIM.s:947    .text.startup.main:0000000000000408 .L0 
C:\Users\Uzair\AppData\Local\Temp\cc1gXnIM.s:951    .text.startup.main:0000000000000414 .L0 
C:\Users\Uzair\AppData\Local\Temp\cc1gXnIM.s:958    .text.startup.main:0000000000000426 .L0 
C:\Users\Uzair\AppData\Local\Temp\cc1gXnIM.s:962    .text.startup.main:0000000000000432 .L0 
C:\Users\Uzair\AppData\Local\Temp\cc1gXnIM.s:963    .text.startup.main:0000000000000432 .L0 
C:\Users\Uzair\AppData\Local\Temp\cc1gXnIM.s:967    .text.startup.main:0000000000000436 .L0 
C:\Users\Uzair\AppData\Local\Temp\cc1gXnIM.s:972    .rodata:0000000000000000 .LANCHOR0
C:\Users\Uzair\AppData\Local\Temp\cc1gXnIM.s:995    .sbss.antal_avvikelser:0000000000000000 .LANCHOR2
C:\Users\Uzair\AppData\Local\Temp\cc1gXnIM.s:1002   .sbss.millis:0000000000000000 .LANCHOR1
C:\Users\Uzair\AppData\Local\Temp\cc1gXnIM.s:42     .text.initStaticTimer:000000000000000e .L0 
C:\Users\Uzair\AppData\Local\Temp\cc1gXnIM.s:215    .text.updateStaticTimer:00000000000000b0 .L0 
C:\Users\Uzair\AppData\Local\Temp\cc1gXnIM.s:344    .text.interrupt_config:00000000000000e4 .L0 
C:\Users\Uzair\AppData\Local\Temp\cc1gXnIM.s:415    .text.TIMER1_IRQHandler:000000000000003e .L0 
C:\Users\Uzair\AppData\Local\Temp\cc1gXnIM.s:970    .text.startup.main:0000000000000436 .L0 
                     .debug_frame:0000000000000000 .L0 
C:\Users\Uzair\AppData\Local\Temp\cc1gXnIM.s:95     .text.updateStaticTimer:0000000000000038 .L3
C:\Users\Uzair\AppData\Local\Temp\cc1gXnIM.s:196    .text.updateStaticTimer:00000000000000a0 .L15
C:\Users\Uzair\AppData\Local\Temp\cc1gXnIM.s:119    .text.updateStaticTimer:000000000000005c .L7
C:\Users\Uzair\AppData\Local\Temp\cc1gXnIM.s:148    .text.updateStaticTimer:0000000000000078 .L2
C:\Users\Uzair\AppData\Local\Temp\cc1gXnIM.s:170    .text.updateStaticTimer:0000000000000086 .L9
C:\Users\Uzair\AppData\Local\Temp\cc1gXnIM.s:394    .text.TIMER1_IRQHandler:0000000000000038 .L19
C:\Users\Uzair\AppData\Local\Temp\cc1gXnIM.s:918    .text.startup.main:00000000000003d4 .L24
GAS LISTING C:\Users\Uzair\AppData\Local\Temp\cc1gXnIM.s 			page 34


C:\Users\Uzair\AppData\Local\Temp\cc1gXnIM.s:925    .text.startup.main:00000000000003e2 .L25
C:\Users\Uzair\AppData\Local\Temp\cc1gXnIM.s:812    .text.startup.main:00000000000002e4 .L27
C:\Users\Uzair\AppData\Local\Temp\cc1gXnIM.s:934    .text.startup.main:00000000000003f2 .L28
C:\Users\Uzair\AppData\Local\Temp\cc1gXnIM.s:956    .text.startup.main:0000000000000426 .L37
C:\Users\Uzair\AppData\Local\Temp\cc1gXnIM.s:825    .text.startup.main:0000000000000300 .L32
C:\Users\Uzair\AppData\Local\Temp\cc1gXnIM.s:574    .text.startup.main:000000000000011c .L33
C:\Users\Uzair\AppData\Local\Temp\cc1gXnIM.s:463    .text.startup.main:0000000000000022 .L23
C:\Users\Uzair\AppData\Local\Temp\cc1gXnIM.s:662    .text.startup.main:00000000000001a4 .L26
C:\Users\Uzair\AppData\Local\Temp\cc1gXnIM.s:753    .text.startup.main:000000000000027a .L29
C:\Users\Uzair\AppData\Local\Temp\cc1gXnIM.s:6975   .debug_abbrev:0000000000000000 .Ldebug_abbrev0
C:\Users\Uzair\AppData\Local\Temp\cc1gXnIM.s:8600   .debug_str:00000000000002f0 .LASF486
C:\Users\Uzair\AppData\Local\Temp\cc1gXnIM.s:9050   .debug_str:0000000000000e1d .LASF487
C:\Users\Uzair\AppData\Local\Temp\cc1gXnIM.s:9126   .debug_str:0000000000000ff8 .LASF488
C:\Users\Uzair\AppData\Local\Temp\cc1gXnIM.s:8428   .debug_ranges:0000000000000000 .Ldebug_ranges0
C:\Users\Uzair\AppData\Local\Temp\cc1gXnIM.s:8478   .debug_line:0000000000000000 .Ldebug_line0
C:\Users\Uzair\AppData\Local\Temp\cc1gXnIM.s:9084   .debug_str:0000000000000eed .LASF0
C:\Users\Uzair\AppData\Local\Temp\cc1gXnIM.s:9096   .debug_str:0000000000000f37 .LASF1
C:\Users\Uzair\AppData\Local\Temp\cc1gXnIM.s:9496   .debug_str:000000000000189b .LASF2
C:\Users\Uzair\AppData\Local\Temp\cc1gXnIM.s:9018   .debug_str:0000000000000d7b .LASF3
C:\Users\Uzair\AppData\Local\Temp\cc1gXnIM.s:9170   .debug_str:000000000000116b .LASF4
C:\Users\Uzair\AppData\Local\Temp\cc1gXnIM.s:9304   .debug_str:000000000000144a .LASF6
C:\Users\Uzair\AppData\Local\Temp\cc1gXnIM.s:8724   .debug_str:0000000000000635 .LASF5
C:\Users\Uzair\AppData\Local\Temp\cc1gXnIM.s:8632   .debug_str:0000000000000429 .LASF7
C:\Users\Uzair\AppData\Local\Temp\cc1gXnIM.s:8740   .debug_str:00000000000006b6 .LASF8
C:\Users\Uzair\AppData\Local\Temp\cc1gXnIM.s:9366   .debug_str:00000000000015af .LASF9
C:\Users\Uzair\AppData\Local\Temp\cc1gXnIM.s:8818   .debug_str:0000000000000890 .LASF10
C:\Users\Uzair\AppData\Local\Temp\cc1gXnIM.s:8662   .debug_str:00000000000004c8 .LASF11
C:\Users\Uzair\AppData\Local\Temp\cc1gXnIM.s:9010   .debug_str:0000000000000d53 .LASF12
C:\Users\Uzair\AppData\Local\Temp\cc1gXnIM.s:8928   .debug_str:0000000000000b3a .LASF13
C:\Users\Uzair\AppData\Local\Temp\cc1gXnIM.s:9212   .debug_str:000000000000125a .LASF14
C:\Users\Uzair\AppData\Local\Temp\cc1gXnIM.s:9482   .debug_str:0000000000001854 .LASF15
C:\Users\Uzair\AppData\Local\Temp\cc1gXnIM.s:9200   .debug_str:0000000000001219 .LASF16
C:\Users\Uzair\AppData\Local\Temp\cc1gXnIM.s:8494   .debug_str:0000000000000074 .LASF17
C:\Users\Uzair\AppData\Local\Temp\cc1gXnIM.s:8630   .debug_str:0000000000000423 .LASF18
C:\Users\Uzair\AppData\Local\Temp\cc1gXnIM.s:9202   .debug_str:0000000000001221 .LASF19
C:\Users\Uzair\AppData\Local\Temp\cc1gXnIM.s:9152   .debug_str:00000000000010c8 .LASF20
C:\Users\Uzair\AppData\Local\Temp\cc1gXnIM.s:8502   .debug_str:00000000000000a3 .LASF21
C:\Users\Uzair\AppData\Local\Temp\cc1gXnIM.s:9286   .debug_str:00000000000013f9 .LASF22
C:\Users\Uzair\AppData\Local\Temp\cc1gXnIM.s:9452   .debug_str:00000000000017b5 .LASF23
C:\Users\Uzair\AppData\Local\Temp\cc1gXnIM.s:8960   .debug_str:0000000000000c08 .LASF24
C:\Users\Uzair\AppData\Local\Temp\cc1gXnIM.s:9272   .debug_str:00000000000013b9 .LASF25
C:\Users\Uzair\AppData\Local\Temp\cc1gXnIM.s:8974   .debug_str:0000000000000c57 .LASF30
C:\Users\Uzair\AppData\Local\Temp\cc1gXnIM.s:9312   .debug_str:000000000000147c .LASF26
C:\Users\Uzair\AppData\Local\Temp\cc1gXnIM.s:8984   .debug_str:0000000000000c99 .LASF27
C:\Users\Uzair\AppData\Local\Temp\cc1gXnIM.s:9074   .debug_str:0000000000000ead .LASF28
C:\Users\Uzair\AppData\Local\Temp\cc1gXnIM.s:8880   .debug_str:0000000000000a03 .LASF29
C:\Users\Uzair\AppData\Local\Temp\cc1gXnIM.s:8550   .debug_str:00000000000001bf .LASF31
C:\Users\Uzair\AppData\Local\Temp\cc1gXnIM.s:8556   .debug_str:00000000000001db .LASF32
C:\Users\Uzair\AppData\Local\Temp\cc1gXnIM.s:9534   .debug_str:0000000000001974 .LASF33
C:\Users\Uzair\AppData\Local\Temp\cc1gXnIM.s:9498   .debug_str:00000000000018ae .LASF34
C:\Users\Uzair\AppData\Local\Temp\cc1gXnIM.s:9120   .debug_str:0000000000000fd6 .LASF35
C:\Users\Uzair\AppData\Local\Temp\cc1gXnIM.s:8700   .debug_str:00000000000005a0 .LASF36
C:\Users\Uzair\AppData\Local\Temp\cc1gXnIM.s:9394   .debug_str:0000000000001651 .LASF37
C:\Users\Uzair\AppData\Local\Temp\cc1gXnIM.s:9168   .debug_str:0000000000001161 .LASF38
C:\Users\Uzair\AppData\Local\Temp\cc1gXnIM.s:9174   .debug_str:000000000000117d .LASF39
C:\Users\Uzair\AppData\Local\Temp\cc1gXnIM.s:9524   .debug_str:000000000000194c .LASF40
C:\Users\Uzair\AppData\Local\Temp\cc1gXnIM.s:8642   .debug_str:000000000000045f .LASF41
GAS LISTING C:\Users\Uzair\AppData\Local\Temp\cc1gXnIM.s 			page 35


C:\Users\Uzair\AppData\Local\Temp\cc1gXnIM.s:9520   .debug_str:0000000000001938 .LASF42
C:\Users\Uzair\AppData\Local\Temp\cc1gXnIM.s:9222   .debug_str:0000000000001297 .LASF43
C:\Users\Uzair\AppData\Local\Temp\cc1gXnIM.s:9386   .debug_str:0000000000001623 .LASF44
C:\Users\Uzair\AppData\Local\Temp\cc1gXnIM.s:9428   .debug_str:0000000000001712 .LASF45
C:\Users\Uzair\AppData\Local\Temp\cc1gXnIM.s:9144   .debug_str:000000000000109b .LASF46
C:\Users\Uzair\AppData\Local\Temp\cc1gXnIM.s:9418   .debug_str:00000000000016dd .LASF47
C:\Users\Uzair\AppData\Local\Temp\cc1gXnIM.s:8808   .debug_str:0000000000000863 .LASF48
C:\Users\Uzair\AppData\Local\Temp\cc1gXnIM.s:9424   .debug_str:0000000000001704 .LASF49
C:\Users\Uzair\AppData\Local\Temp\cc1gXnIM.s:9250   .debug_str:000000000000132e .LASF50
C:\Users\Uzair\AppData\Local\Temp\cc1gXnIM.s:8670   .debug_str:00000000000004ed .LASF51
C:\Users\Uzair\AppData\Local\Temp\cc1gXnIM.s:8942   .debug_str:0000000000000ba1 .LASF52
C:\Users\Uzair\AppData\Local\Temp\cc1gXnIM.s:9142   .debug_str:0000000000001094 .LASF53
C:\Users\Uzair\AppData\Local\Temp\cc1gXnIM.s:8640   .debug_str:0000000000000459 .LASF54
C:\Users\Uzair\AppData\Local\Temp\cc1gXnIM.s:9414   .debug_str:00000000000016cf .LASF55
C:\Users\Uzair\AppData\Local\Temp\cc1gXnIM.s:8874   .debug_str:00000000000009e8 .LASF56
C:\Users\Uzair\AppData\Local\Temp\cc1gXnIM.s:8518   .debug_str:00000000000000f4 .LASF57
C:\Users\Uzair\AppData\Local\Temp\cc1gXnIM.s:8526   .debug_str:0000000000000134 .LASF58
C:\Users\Uzair\AppData\Local\Temp\cc1gXnIM.s:9194   .debug_str:00000000000011ee .LASF59
C:\Users\Uzair\AppData\Local\Temp\cc1gXnIM.s:8810   .debug_str:0000000000000868 .LASF60
C:\Users\Uzair\AppData\Local\Temp\cc1gXnIM.s:9128   .debug_str:000000000000104c .LASF61
C:\Users\Uzair\AppData\Local\Temp\cc1gXnIM.s:8554   .debug_str:00000000000001d5 .LASF62
C:\Users\Uzair\AppData\Local\Temp\cc1gXnIM.s:9240   .debug_str:00000000000012f7 .LASF63
C:\Users\Uzair\AppData\Local\Temp\cc1gXnIM.s:8898   .debug_str:0000000000000a80 .LASF64
C:\Users\Uzair\AppData\Local\Temp\cc1gXnIM.s:9316   .debug_str:000000000000148a .LASF65
C:\Users\Uzair\AppData\Local\Temp\cc1gXnIM.s:8594   .debug_str:00000000000002d3 .LASF66
C:\Users\Uzair\AppData\Local\Temp\cc1gXnIM.s:9134   .debug_str:0000000000001068 .LASF67
C:\Users\Uzair\AppData\Local\Temp\cc1gXnIM.s:8946   .debug_str:0000000000000bb4 .LASF68
C:\Users\Uzair\AppData\Local\Temp\cc1gXnIM.s:8766   .debug_str:0000000000000750 .LASF69
C:\Users\Uzair\AppData\Local\Temp\cc1gXnIM.s:8964   .debug_str:0000000000000c20 .LASF70
C:\Users\Uzair\AppData\Local\Temp\cc1gXnIM.s:8826   .debug_str:00000000000008cd .LASF71
C:\Users\Uzair\AppData\Local\Temp\cc1gXnIM.s:9230   .debug_str:00000000000012b8 .LASF72
C:\Users\Uzair\AppData\Local\Temp\cc1gXnIM.s:9130   .debug_str:0000000000001052 .LASF73
C:\Users\Uzair\AppData\Local\Temp\cc1gXnIM.s:9416   .debug_str:00000000000016d8 .LASF74
C:\Users\Uzair\AppData\Local\Temp\cc1gXnIM.s:9012   .debug_str:0000000000000d5e .LASF75
C:\Users\Uzair\AppData\Local\Temp\cc1gXnIM.s:8756   .debug_str:0000000000000716 .LASF76
C:\Users\Uzair\AppData\Local\Temp\cc1gXnIM.s:9450   .debug_str:00000000000017ad .LASF77
C:\Users\Uzair\AppData\Local\Temp\cc1gXnIM.s:8944   .debug_str:0000000000000ba9 .LASF78
C:\Users\Uzair\AppData\Local\Temp\cc1gXnIM.s:8994   .debug_str:0000000000000cd2 .LASF79
C:\Users\Uzair\AppData\Local\Temp\cc1gXnIM.s:9466   .debug_str:00000000000017fd .LASF80
C:\Users\Uzair\AppData\Local\Temp\cc1gXnIM.s:8668   .debug_str:00000000000004e3 .LASF81
C:\Users\Uzair\AppData\Local\Temp\cc1gXnIM.s:8926   .debug_str:0000000000000b35 .LASF82
C:\Users\Uzair\AppData\Local\Temp\cc1gXnIM.s:9066   .debug_str:0000000000000e89 .LASF83
C:\Users\Uzair\AppData\Local\Temp\cc1gXnIM.s:8534   .debug_str:0000000000000164 .LASF84
C:\Users\Uzair\AppData\Local\Temp\cc1gXnIM.s:8902   .debug_str:0000000000000a93 .LASF85
C:\Users\Uzair\AppData\Local\Temp\cc1gXnIM.s:9236   .debug_str:00000000000012e1 .LASF86
C:\Users\Uzair\AppData\Local\Temp\cc1gXnIM.s:8996   .debug_str:0000000000000cdc .LASF87
C:\Users\Uzair\AppData\Local\Temp\cc1gXnIM.s:8888   .debug_str:0000000000000a24 .LASF88
C:\Users\Uzair\AppData\Local\Temp\cc1gXnIM.s:9040   .debug_str:0000000000000de8 .LASF89
C:\Users\Uzair\AppData\Local\Temp\cc1gXnIM.s:8508   .debug_str:00000000000000bf .LASF90
C:\Users\Uzair\AppData\Local\Temp\cc1gXnIM.s:8802   .debug_str:000000000000083a .LASF91
C:\Users\Uzair\AppData\Local\Temp\cc1gXnIM.s:9278   .debug_str:00000000000013d4 .LASF92
C:\Users\Uzair\AppData\Local\Temp\cc1gXnIM.s:9072   .debug_str:0000000000000ea7 .LASF93
C:\Users\Uzair\AppData\Local\Temp\cc1gXnIM.s:9032   .debug_str:0000000000000dc4 .LASF94
C:\Users\Uzair\AppData\Local\Temp\cc1gXnIM.s:9068   .debug_str:0000000000000e93 .LASF95
C:\Users\Uzair\AppData\Local\Temp\cc1gXnIM.s:9228   .debug_str:00000000000012b0 .LASF96
C:\Users\Uzair\AppData\Local\Temp\cc1gXnIM.s:9186   .debug_str:00000000000011c0 .LASF97
C:\Users\Uzair\AppData\Local\Temp\cc1gXnIM.s:8604   .debug_str:0000000000000386 .LASF98
GAS LISTING C:\Users\Uzair\AppData\Local\Temp\cc1gXnIM.s 			page 36


C:\Users\Uzair\AppData\Local\Temp\cc1gXnIM.s:9486   .debug_str:0000000000001866 .LASF99
C:\Users\Uzair\AppData\Local\Temp\cc1gXnIM.s:8722   .debug_str:0000000000000628 .LASF100
C:\Users\Uzair\AppData\Local\Temp\cc1gXnIM.s:9256   .debug_str:0000000000001350 .LASF101
C:\Users\Uzair\AppData\Local\Temp\cc1gXnIM.s:8532   .debug_str:0000000000000157 .LASF102
C:\Users\Uzair\AppData\Local\Temp\cc1gXnIM.s:8682   .debug_str:0000000000000543 .LASF103
C:\Users\Uzair\AppData\Local\Temp\cc1gXnIM.s:9056   .debug_str:0000000000000e40 .LASF104
C:\Users\Uzair\AppData\Local\Temp\cc1gXnIM.s:9138   .debug_str:0000000000001080 .LASF105
C:\Users\Uzair\AppData\Local\Temp\cc1gXnIM.s:9294   .debug_str:0000000000001424 .LASF106
C:\Users\Uzair\AppData\Local\Temp\cc1gXnIM.s:9362   .debug_str:0000000000001599 .LASF107
C:\Users\Uzair\AppData\Local\Temp\cc1gXnIM.s:9206   .debug_str:000000000000123b .LASF108
C:\Users\Uzair\AppData\Local\Temp\cc1gXnIM.s:9132   .debug_str:000000000000105a .LASF109
C:\Users\Uzair\AppData\Local\Temp\cc1gXnIM.s:8566   .debug_str:0000000000000210 .LASF110
C:\Users\Uzair\AppData\Local\Temp\cc1gXnIM.s:8968   .debug_str:0000000000000c37 .LASF111
C:\Users\Uzair\AppData\Local\Temp\cc1gXnIM.s:9536   .debug_str:000000000000197d .LASF112
C:\Users\Uzair\AppData\Local\Temp\cc1gXnIM.s:8660   .debug_str:00000000000004ba .LASF113
C:\Users\Uzair\AppData\Local\Temp\cc1gXnIM.s:9264   .debug_str:000000000000137f .LASF114
C:\Users\Uzair\AppData\Local\Temp\cc1gXnIM.s:9508   .debug_str:00000000000018e5 .LASF115
C:\Users\Uzair\AppData\Local\Temp\cc1gXnIM.s:9116   .debug_str:0000000000000fbe .LASF116
C:\Users\Uzair\AppData\Local\Temp\cc1gXnIM.s:8552   .debug_str:00000000000001c4 .LASF117
C:\Users\Uzair\AppData\Local\Temp\cc1gXnIM.s:9104   .debug_str:0000000000000f6a .LASF118
C:\Users\Uzair\AppData\Local\Temp\cc1gXnIM.s:9436   .debug_str:000000000000173e .LASF119
C:\Users\Uzair\AppData\Local\Temp\cc1gXnIM.s:9046   .debug_str:0000000000000e0d .LASF120
C:\Users\Uzair\AppData\Local\Temp\cc1gXnIM.s:8548   .debug_str:00000000000001b7 .LASF121
C:\Users\Uzair\AppData\Local\Temp\cc1gXnIM.s:8500   .debug_str:0000000000000098 .LASF530
C:\Users\Uzair\AppData\Local\Temp\cc1gXnIM.s:8664   .debug_str:00000000000004d1 .LASF122
C:\Users\Uzair\AppData\Local\Temp\cc1gXnIM.s:8768   .debug_str:0000000000000757 .LASF123
C:\Users\Uzair\AppData\Local\Temp\cc1gXnIM.s:9048   .debug_str:0000000000000e16 .LASF124
C:\Users\Uzair\AppData\Local\Temp\cc1gXnIM.s:9238   .debug_str:00000000000012e6 .LASF128
C:\Users\Uzair\AppData\Local\Temp\cc1gXnIM.s:9422   .debug_str:00000000000016f6 .LASF125
C:\Users\Uzair\AppData\Local\Temp\cc1gXnIM.s:9350   .debug_str:0000000000001534 .LASF126
C:\Users\Uzair\AppData\Local\Temp\cc1gXnIM.s:8922   .debug_str:0000000000000b1b .LASF127
C:\Users\Uzair\AppData\Local\Temp\cc1gXnIM.s:8694   .debug_str:0000000000000582 .LASF129
C:\Users\Uzair\AppData\Local\Temp\cc1gXnIM.s:9100   .debug_str:0000000000000f50 .LASF130
C:\Users\Uzair\AppData\Local\Temp\cc1gXnIM.s:9540   .debug_str:0000000000001995 .LASF131
C:\Users\Uzair\AppData\Local\Temp\cc1gXnIM.s:8938   .debug_str:0000000000000b85 .LASF132
C:\Users\Uzair\AppData\Local\Temp\cc1gXnIM.s:8708   .debug_str:00000000000005d7 .LASF133
C:\Users\Uzair\AppData\Local\Temp\cc1gXnIM.s:9178   .debug_str:0000000000001194 .LASF134
C:\Users\Uzair\AppData\Local\Temp\cc1gXnIM.s:9328   .debug_str:00000000000014c7 .LASF135
C:\Users\Uzair\AppData\Local\Temp\cc1gXnIM.s:9442   .debug_str:000000000000177d .LASF136
C:\Users\Uzair\AppData\Local\Temp\cc1gXnIM.s:8684   .debug_str:0000000000000552 .LASF137
C:\Users\Uzair\AppData\Local\Temp\cc1gXnIM.s:9542   .debug_str:00000000000019a2 .LASF138
C:\Users\Uzair\AppData\Local\Temp\cc1gXnIM.s:9208   .debug_str:0000000000001249 .LASF139
C:\Users\Uzair\AppData\Local\Temp\cc1gXnIM.s:9340   .debug_str:0000000000001504 .LASF140
C:\Users\Uzair\AppData\Local\Temp\cc1gXnIM.s:9322   .debug_str:00000000000014a8 .LASF141
C:\Users\Uzair\AppData\Local\Temp\cc1gXnIM.s:8904   .debug_str:0000000000000a9b .LASF142
C:\Users\Uzair\AppData\Local\Temp\cc1gXnIM.s:8486   .debug_str:0000000000000027 .LASF143
C:\Users\Uzair\AppData\Local\Temp\cc1gXnIM.s:9504   .debug_str:00000000000018d3 .LASF144
C:\Users\Uzair\AppData\Local\Temp\cc1gXnIM.s:9492   .debug_str:000000000000187d .LASF145
C:\Users\Uzair\AppData\Local\Temp\cc1gXnIM.s:8634   .debug_str:0000000000000433 .LASF146
C:\Users\Uzair\AppData\Local\Temp\cc1gXnIM.s:8574   .debug_str:0000000000000236 .LASF147
C:\Users\Uzair\AppData\Local\Temp\cc1gXnIM.s:9204   .debug_str:0000000000001228 .LASF148
C:\Users\Uzair\AppData\Local\Temp\cc1gXnIM.s:8824   .debug_str:00000000000008ba .LASF149
C:\Users\Uzair\AppData\Local\Temp\cc1gXnIM.s:8748   .debug_str:00000000000006e6 .LASF150
C:\Users\Uzair\AppData\Local\Temp\cc1gXnIM.s:9398   .debug_str:0000000000001664 .LASF151
C:\Users\Uzair\AppData\Local\Temp\cc1gXnIM.s:8976   .debug_str:0000000000000c5f .LASF152
C:\Users\Uzair\AppData\Local\Temp\cc1gXnIM.s:8800   .debug_str:000000000000082e .LASF153
C:\Users\Uzair\AppData\Local\Temp\cc1gXnIM.s:8692   .debug_str:0000000000000575 .LASF154
GAS LISTING C:\Users\Uzair\AppData\Local\Temp\cc1gXnIM.s 			page 37


C:\Users\Uzair\AppData\Local\Temp\cc1gXnIM.s:8992   .debug_str:0000000000000cc4 .LASF155
C:\Users\Uzair\AppData\Local\Temp\cc1gXnIM.s:8602   .debug_str:0000000000000378 .LASF156
C:\Users\Uzair\AppData\Local\Temp\cc1gXnIM.s:9368   .debug_str:00000000000015b9 .LASF157
C:\Users\Uzair\AppData\Local\Temp\cc1gXnIM.s:9358   .debug_str:0000000000001569 .LASF158
C:\Users\Uzair\AppData\Local\Temp\cc1gXnIM.s:8514   .debug_str:00000000000000d7 .LASF159
C:\Users\Uzair\AppData\Local\Temp\cc1gXnIM.s:9376   .debug_str:00000000000015e4 .LASF160
C:\Users\Uzair\AppData\Local\Temp\cc1gXnIM.s:9420   .debug_str:00000000000016e2 .LASF161
C:\Users\Uzair\AppData\Local\Temp\cc1gXnIM.s:9008   .debug_str:0000000000000d3f .LASF162
C:\Users\Uzair\AppData\Local\Temp\cc1gXnIM.s:9550   .debug_str:00000000000019c9 .LASF163
C:\Users\Uzair\AppData\Local\Temp\cc1gXnIM.s:8618   .debug_str:00000000000003de .LASF164
C:\Users\Uzair\AppData\Local\Temp\cc1gXnIM.s:9248   .debug_str:0000000000001322 .LASF165
C:\Users\Uzair\AppData\Local\Temp\cc1gXnIM.s:9382   .debug_str:000000000000160c .LASF166
C:\Users\Uzair\AppData\Local\Temp\cc1gXnIM.s:8516   .debug_str:00000000000000e7 .LASF167
C:\Users\Uzair\AppData\Local\Temp\cc1gXnIM.s:8864   .debug_str:00000000000009b1 .LASF168
C:\Users\Uzair\AppData\Local\Temp\cc1gXnIM.s:8762   .debug_str:000000000000073b .LASF169
C:\Users\Uzair\AppData\Local\Temp\cc1gXnIM.s:9446   .debug_str:0000000000001797 .LASF170
C:\Users\Uzair\AppData\Local\Temp\cc1gXnIM.s:9038   .debug_str:0000000000000dde .LASF171
C:\Users\Uzair\AppData\Local\Temp\cc1gXnIM.s:9162   .debug_str:000000000000111a .LASF172
C:\Users\Uzair\AppData\Local\Temp\cc1gXnIM.s:9232   .debug_str:00000000000012c0 .LASF173
C:\Users\Uzair\AppData\Local\Temp\cc1gXnIM.s:8844   .debug_str:000000000000093a .LASF174
C:\Users\Uzair\AppData\Local\Temp\cc1gXnIM.s:8832   .debug_str:00000000000008ee .LASF175
C:\Users\Uzair\AppData\Local\Temp\cc1gXnIM.s:9308   .debug_str:000000000000145b .LASF176
C:\Users\Uzair\AppData\Local\Temp\cc1gXnIM.s:9042   .debug_str:0000000000000df0 .LASF177
C:\Users\Uzair\AppData\Local\Temp\cc1gXnIM.s:8544   .debug_str:00000000000001a3 .LASF178
C:\Users\Uzair\AppData\Local\Temp\cc1gXnIM.s:9192   .debug_str:00000000000011e2 .LASF179
C:\Users\Uzair\AppData\Local\Temp\cc1gXnIM.s:8636   .debug_str:0000000000000446 .LASF180
C:\Users\Uzair\AppData\Local\Temp\cc1gXnIM.s:9484   .debug_str:000000000000185b .LASF181
C:\Users\Uzair\AppData\Local\Temp\cc1gXnIM.s:9080   .debug_str:0000000000000ec8 .LASF182
C:\Users\Uzair\AppData\Local\Temp\cc1gXnIM.s:8814   .debug_str:000000000000087a .LASF183
C:\Users\Uzair\AppData\Local\Temp\cc1gXnIM.s:9448   .debug_str:00000000000017a1 .LASF184
C:\Users\Uzair\AppData\Local\Temp\cc1gXnIM.s:9164   .debug_str:0000000000001126 .LASF185
C:\Users\Uzair\AppData\Local\Temp\cc1gXnIM.s:8782   .debug_str:00000000000007b3 .LASF186
C:\Users\Uzair\AppData\Local\Temp\cc1gXnIM.s:9244   .debug_str:0000000000001308 .LASF187
C:\Users\Uzair\AppData\Local\Temp\cc1gXnIM.s:9356   .debug_str:0000000000001556 .LASF188
C:\Users\Uzair\AppData\Local\Temp\cc1gXnIM.s:9494   .debug_str:0000000000001888 .LASF189
C:\Users\Uzair\AppData\Local\Temp\cc1gXnIM.s:8906   .debug_str:0000000000000aa6 .LASF190
C:\Users\Uzair\AppData\Local\Temp\cc1gXnIM.s:8822   .debug_str:00000000000008ac .LASF191
C:\Users\Uzair\AppData\Local\Temp\cc1gXnIM.s:9468   .debug_str:0000000000001805 .LASF192
C:\Users\Uzair\AppData\Local\Temp\cc1gXnIM.s:8628   .debug_str:0000000000000414 .LASF193
C:\Users\Uzair\AppData\Local\Temp\cc1gXnIM.s:9546   .debug_str:00000000000019b3 .LASF194
C:\Users\Uzair\AppData\Local\Temp\cc1gXnIM.s:9064   .debug_str:0000000000000e74 .LASF195
C:\Users\Uzair\AppData\Local\Temp\cc1gXnIM.s:8726   .debug_str:0000000000000641 .LASF196
C:\Users\Uzair\AppData\Local\Temp\cc1gXnIM.s:9220   .debug_str:000000000000128e .LASF197
C:\Users\Uzair\AppData\Local\Temp\cc1gXnIM.s:9454   .debug_str:00000000000017bd .LASF198
C:\Users\Uzair\AppData\Local\Temp\cc1gXnIM.s:8948   .debug_str:0000000000000bbc .LASF199
C:\Users\Uzair\AppData\Local\Temp\cc1gXnIM.s:9284   .debug_str:00000000000013f3 .LASF200
C:\Users\Uzair\AppData\Local\Temp\cc1gXnIM.s:9296   .debug_str:0000000000001429 .LASF201
C:\Users\Uzair\AppData\Local\Temp\cc1gXnIM.s:9298   .debug_str:0000000000001432 .LASF202
C:\Users\Uzair\AppData\Local\Temp\cc1gXnIM.s:9102   .debug_str:0000000000000f62 .LASF203
C:\Users\Uzair\AppData\Local\Temp\cc1gXnIM.s:9432   .debug_str:0000000000001727 .LASF204
C:\Users\Uzair\AppData\Local\Temp\cc1gXnIM.s:8988   .debug_str:0000000000000cb2 .LASF205
C:\Users\Uzair\AppData\Local\Temp\cc1gXnIM.s:8560   .debug_str:00000000000001ef .LASF206
C:\Users\Uzair\AppData\Local\Temp\cc1gXnIM.s:8562   .debug_str:00000000000001fa .LASF207
C:\Users\Uzair\AppData\Local\Temp\cc1gXnIM.s:8564   .debug_str:0000000000000205 .LASF208
C:\Users\Uzair\AppData\Local\Temp\cc1gXnIM.s:9258   .debug_str:000000000000135d .LASF209
C:\Users\Uzair\AppData\Local\Temp\cc1gXnIM.s:8568   .debug_str:000000000000021a .LASF210
C:\Users\Uzair\AppData\Local\Temp\cc1gXnIM.s:8570   .debug_str:0000000000000225 .LASF211
GAS LISTING C:\Users\Uzair\AppData\Local\Temp\cc1gXnIM.s 			page 38


C:\Users\Uzair\AppData\Local\Temp\cc1gXnIM.s:9148   .debug_str:00000000000010ad .LASF212
C:\Users\Uzair\AppData\Local\Temp\cc1gXnIM.s:8716   .debug_str:000000000000060f .LASF213
C:\Users\Uzair\AppData\Local\Temp\cc1gXnIM.s:8718   .debug_str:0000000000000618 .LASF214
C:\Users\Uzair\AppData\Local\Temp\cc1gXnIM.s:8584   .debug_str:000000000000029b .LASF215
C:\Users\Uzair\AppData\Local\Temp\cc1gXnIM.s:8586   .debug_str:00000000000002a6 .LASF216
C:\Users\Uzair\AppData\Local\Temp\cc1gXnIM.s:8538   .debug_str:0000000000000175 .LASF217
C:\Users\Uzair\AppData\Local\Temp\cc1gXnIM.s:8540   .debug_str:000000000000017f .LASF218
C:\Users\Uzair\AppData\Local\Temp\cc1gXnIM.s:9458   .debug_str:00000000000017d8 .LASF219
C:\Users\Uzair\AppData\Local\Temp\cc1gXnIM.s:9460   .debug_str:00000000000017e1 .LASF220
C:\Users\Uzair\AppData\Local\Temp\cc1gXnIM.s:8790   .debug_str:00000000000007e8 .LASF221
C:\Users\Uzair\AppData\Local\Temp\cc1gXnIM.s:8792   .debug_str:00000000000007f1 .LASF222
C:\Users\Uzair\AppData\Local\Temp\cc1gXnIM.s:9396   .debug_str:000000000000165b .LASF223
C:\Users\Uzair\AppData\Local\Temp\cc1gXnIM.s:8524   .debug_str:000000000000012c .LASF224
C:\Users\Uzair\AppData\Local\Temp\cc1gXnIM.s:8728   .debug_str:0000000000000649 .LASF225
C:\Users\Uzair\AppData\Local\Temp\cc1gXnIM.s:9180   .debug_str:00000000000011a3 .LASF226
C:\Users\Uzair\AppData\Local\Temp\cc1gXnIM.s:8958   .debug_str:0000000000000c01 .LASF227
C:\Users\Uzair\AppData\Local\Temp\cc1gXnIM.s:9022   .debug_str:0000000000000d92 .LASF228
C:\Users\Uzair\AppData\Local\Temp\cc1gXnIM.s:9024   .debug_str:0000000000000d9c .LASF229
C:\Users\Uzair\AppData\Local\Temp\cc1gXnIM.s:9026   .debug_str:0000000000000da6 .LASF230
C:\Users\Uzair\AppData\Local\Temp\cc1gXnIM.s:9028   .debug_str:0000000000000db0 .LASF231
C:\Users\Uzair\AppData\Local\Temp\cc1gXnIM.s:9030   .debug_str:0000000000000dba .LASF232
C:\Users\Uzair\AppData\Local\Temp\cc1gXnIM.s:9014   .debug_str:0000000000000d69 .LASF233
C:\Users\Uzair\AppData\Local\Temp\cc1gXnIM.s:9016   .debug_str:0000000000000d72 .LASF234
C:\Users\Uzair\AppData\Local\Temp\cc1gXnIM.s:8558   .debug_str:00000000000001e4 .LASF235
C:\Users\Uzair\AppData\Local\Temp\cc1gXnIM.s:8714   .debug_str:0000000000000606 .LASF236
C:\Users\Uzair\AppData\Local\Temp\cc1gXnIM.s:8582   .debug_str:0000000000000290 .LASF237
C:\Users\Uzair\AppData\Local\Temp\cc1gXnIM.s:8924   .debug_str:0000000000000b2b .LASF238
C:\Users\Uzair\AppData\Local\Temp\cc1gXnIM.s:8998   .debug_str:0000000000000ce5 .LASF239
C:\Users\Uzair\AppData\Local\Temp\cc1gXnIM.s:8978   .debug_str:0000000000000c72 .LASF240
C:\Users\Uzair\AppData\Local\Temp\cc1gXnIM.s:9276   .debug_str:00000000000013cd .LASF241
C:\Users\Uzair\AppData\Local\Temp\cc1gXnIM.s:8798   .debug_str:0000000000000820 .LASF242
C:\Users\Uzair\AppData\Local\Temp\cc1gXnIM.s:8614   .debug_str:00000000000003c3 .LASF243
C:\Users\Uzair\AppData\Local\Temp\cc1gXnIM.s:9092   .debug_str:0000000000000f1b .LASF244
C:\Users\Uzair\AppData\Local\Temp\cc1gXnIM.s:8982   .debug_str:0000000000000c8d .LASF245
C:\Users\Uzair\AppData\Local\Temp\cc1gXnIM.s:9076   .debug_str:0000000000000eb3 .LASF246
C:\Users\Uzair\AppData\Local\Temp\cc1gXnIM.s:8812   .debug_str:000000000000086f .LASF247
C:\Users\Uzair\AppData\Local\Temp\cc1gXnIM.s:9472   .debug_str:000000000000181d .LASF248
C:\Users\Uzair\AppData\Local\Temp\cc1gXnIM.s:8510   .debug_str:00000000000000c4 .LASF249
C:\Users\Uzair\AppData\Local\Temp\cc1gXnIM.s:9122   .debug_str:0000000000000fe0 .LASF250
C:\Users\Uzair\AppData\Local\Temp\cc1gXnIM.s:8920   .debug_str:0000000000000b01 .LASF251
C:\Users\Uzair\AppData\Local\Temp\cc1gXnIM.s:9384   .debug_str:0000000000001619 .LASF252
C:\Users\Uzair\AppData\Local\Temp\cc1gXnIM.s:9266   .debug_str:000000000000138e .LASF253
C:\Users\Uzair\AppData\Local\Temp\cc1gXnIM.s:8588   .debug_str:00000000000002b1 .LASF254
C:\Users\Uzair\AppData\Local\Temp\cc1gXnIM.s:8754   .debug_str:000000000000070f .LASF255
C:\Users\Uzair\AppData\Local\Temp\cc1gXnIM.s:9020   .debug_str:0000000000000d89 .LASF256
C:\Users\Uzair\AppData\Local\Temp\cc1gXnIM.s:8856   .debug_str:0000000000000975 .LASF257
C:\Users\Uzair\AppData\Local\Temp\cc1gXnIM.s:9344   .debug_str:000000000000151e .LASF258
C:\Users\Uzair\AppData\Local\Temp\cc1gXnIM.s:8878   .debug_str:00000000000009fb .LASF259
C:\Users\Uzair\AppData\Local\Temp\cc1gXnIM.s:9510   .debug_str:00000000000018f6 .LASF260
C:\Users\Uzair\AppData\Local\Temp\cc1gXnIM.s:9370   .debug_str:00000000000015c8 .LASF261
C:\Users\Uzair\AppData\Local\Temp\cc1gXnIM.s:8648   .debug_str:000000000000047e .LASF262
C:\Users\Uzair\AppData\Local\Temp\cc1gXnIM.s:9518   .debug_str:0000000000001930 .LASF263
C:\Users\Uzair\AppData\Local\Temp\cc1gXnIM.s:9324   .debug_str:00000000000014b3 .LASF264
C:\Users\Uzair\AppData\Local\Temp\cc1gXnIM.s:9516   .debug_str:000000000000191c .LASF265
C:\Users\Uzair\AppData\Local\Temp\cc1gXnIM.s:9478   .debug_str:000000000000183c .LASF266
C:\Users\Uzair\AppData\Local\Temp\cc1gXnIM.s:8862   .debug_str:00000000000009a6 .LASF267
C:\Users\Uzair\AppData\Local\Temp\cc1gXnIM.s:8854   .debug_str:000000000000096f .LASF268
GAS LISTING C:\Users\Uzair\AppData\Local\Temp\cc1gXnIM.s 			page 39


C:\Users\Uzair\AppData\Local\Temp\cc1gXnIM.s:8894   .debug_str:0000000000000a62 .LASF269
C:\Users\Uzair\AppData\Local\Temp\cc1gXnIM.s:9514   .debug_str:0000000000001914 .LASF270
C:\Users\Uzair\AppData\Local\Temp\cc1gXnIM.s:8496   .debug_str:000000000000007d .LASF271
C:\Users\Uzair\AppData\Local\Temp\cc1gXnIM.s:9506   .debug_str:00000000000018de .LASF272
C:\Users\Uzair\AppData\Local\Temp\cc1gXnIM.s:9094   .debug_str:0000000000000f32 .LASF273
C:\Users\Uzair\AppData\Local\Temp\cc1gXnIM.s:8720   .debug_str:0000000000000621 .LASF274
C:\Users\Uzair\AppData\Local\Temp\cc1gXnIM.s:9184   .debug_str:00000000000011b4 .LASF275
C:\Users\Uzair\AppData\Local\Temp\cc1gXnIM.s:9464   .debug_str:00000000000017f3 .LASF276
C:\Users\Uzair\AppData\Local\Temp\cc1gXnIM.s:9314   .debug_str:0000000000001482 .LASF277
C:\Users\Uzair\AppData\Local\Temp\cc1gXnIM.s:9502   .debug_str:00000000000018c9 .LASF278
C:\Users\Uzair\AppData\Local\Temp\cc1gXnIM.s:9528   .debug_str:000000000000195e .LASF279
C:\Users\Uzair\AppData\Local\Temp\cc1gXnIM.s:8916   .debug_str:0000000000000aee .LASF280
C:\Users\Uzair\AppData\Local\Temp\cc1gXnIM.s:8852   .debug_str:0000000000000966 .LASF281
C:\Users\Uzair\AppData\Local\Temp\cc1gXnIM.s:9488   .debug_str:000000000000186b .LASF282
C:\Users\Uzair\AppData\Local\Temp\cc1gXnIM.s:9336   .debug_str:00000000000014f6 .LASF283
C:\Users\Uzair\AppData\Local\Temp\cc1gXnIM.s:9246   .debug_str:000000000000131b .LASF284
C:\Users\Uzair\AppData\Local\Temp\cc1gXnIM.s:8688   .debug_str:0000000000000565 .LASF285
C:\Users\Uzair\AppData\Local\Temp\cc1gXnIM.s:9118   .debug_str:0000000000000fcd .LASF286
C:\Users\Uzair\AppData\Local\Temp\cc1gXnIM.s:8512   .debug_str:00000000000000d0 .LASF287
C:\Users\Uzair\AppData\Local\Temp\cc1gXnIM.s:8760   .debug_str:0000000000000736 .LASF288
C:\Users\Uzair\AppData\Local\Temp\cc1gXnIM.s:9224   .debug_str:00000000000012a3 .LASF289
C:\Users\Uzair\AppData\Local\Temp\cc1gXnIM.s:8572   .debug_str:0000000000000230 .LASF290
C:\Users\Uzair\AppData\Local\Temp\cc1gXnIM.s:8788   .debug_str:00000000000007dd .LASF291
C:\Users\Uzair\AppData\Local\Temp\cc1gXnIM.s:8980   .debug_str:0000000000000c83 .LASF292
C:\Users\Uzair\AppData\Local\Temp\cc1gXnIM.s:8816   .debug_str:0000000000000886 .LASF293
C:\Users\Uzair\AppData\Local\Temp\cc1gXnIM.s:9532   .debug_str:000000000000196c .LASF294
C:\Users\Uzair\AppData\Local\Temp\cc1gXnIM.s:8546   .debug_str:00000000000001ad .LASF295
C:\Users\Uzair\AppData\Local\Temp\cc1gXnIM.s:8836   .debug_str:0000000000000912 .LASF296
C:\Users\Uzair\AppData\Local\Temp\cc1gXnIM.s:8838   .debug_str:000000000000091d .LASF297
C:\Users\Uzair\AppData\Local\Temp\cc1gXnIM.s:9474   .debug_str:0000000000001829 .LASF298
C:\Users\Uzair\AppData\Local\Temp\cc1gXnIM.s:9226   .debug_str:00000000000012a8 .LASF299
C:\Users\Uzair\AppData\Local\Temp\cc1gXnIM.s:8656   .debug_str:00000000000004a8 .LASF300
C:\Users\Uzair\AppData\Local\Temp\cc1gXnIM.s:8506   .debug_str:00000000000000b3 .LASF301
C:\Users\Uzair\AppData\Local\Temp\cc1gXnIM.s:9242   .debug_str:0000000000001300 .LASF302
C:\Users\Uzair\AppData\Local\Temp\cc1gXnIM.s:8658   .debug_str:00000000000004b0 .LASF303
C:\Users\Uzair\AppData\Local\Temp\cc1gXnIM.s:9188   .debug_str:00000000000011c6 .LASF304
C:\Users\Uzair\AppData\Local\Temp\cc1gXnIM.s:8900   .debug_str:0000000000000a88 .LASF305
C:\Users\Uzair\AppData\Local\Temp\cc1gXnIM.s:9538   .debug_str:000000000000198a .LASF306
C:\Users\Uzair\AppData\Local\Temp\cc1gXnIM.s:9392   .debug_str:000000000000164a .LASF307
C:\Users\Uzair\AppData\Local\Temp\cc1gXnIM.s:9400   .debug_str:0000000000001677 .LASF308
C:\Users\Uzair\AppData\Local\Temp\cc1gXnIM.s:8778   .debug_str:00000000000007a1 .LASF309
C:\Users\Uzair\AppData\Local\Temp\cc1gXnIM.s:8536   .debug_str:000000000000016c .LASF310
C:\Users\Uzair\AppData\Local\Temp\cc1gXnIM.s:8698   .debug_str:0000000000000598 .LASF311
C:\Users\Uzair\AppData\Local\Temp\cc1gXnIM.s:8746   .debug_str:00000000000006da .LASF312
C:\Users\Uzair\AppData\Local\Temp\cc1gXnIM.s:9158   .debug_str:0000000000001100 .LASF313
C:\Users\Uzair\AppData\Local\Temp\cc1gXnIM.s:8970   .debug_str:0000000000000c43 .LASF314
C:\Users\Uzair\AppData\Local\Temp\cc1gXnIM.s:8706   .debug_str:00000000000005cf .LASF315
C:\Users\Uzair\AppData\Local\Temp\cc1gXnIM.s:8858   .debug_str:000000000000097c .LASF316
C:\Users\Uzair\AppData\Local\Temp\cc1gXnIM.s:9058   .debug_str:0000000000000e4f .LASF317
C:\Users\Uzair\AppData\Local\Temp\cc1gXnIM.s:9378   .debug_str:00000000000015f3 .LASF318
C:\Users\Uzair\AppData\Local\Temp\cc1gXnIM.s:8674   .debug_str:00000000000004fd .LASF319
C:\Users\Uzair\AppData\Local\Temp\cc1gXnIM.s:8872   .debug_str:00000000000009de .LASF320
C:\Users\Uzair\AppData\Local\Temp\cc1gXnIM.s:8666   .debug_str:00000000000004dd .LASF321
C:\Users\Uzair\AppData\Local\Temp\cc1gXnIM.s:9346   .debug_str:0000000000001525 .LASF322
C:\Users\Uzair\AppData\Local\Temp\cc1gXnIM.s:9338   .debug_str:00000000000014ff .LASF323
C:\Users\Uzair\AppData\Local\Temp\cc1gXnIM.s:8962   .debug_str:0000000000000c1a .LASF324
C:\Users\Uzair\AppData\Local\Temp\cc1gXnIM.s:8620   .debug_str:00000000000003ea .LASF325
GAS LISTING C:\Users\Uzair\AppData\Local\Temp\cc1gXnIM.s 			page 40


C:\Users\Uzair\AppData\Local\Temp\cc1gXnIM.s:9196   .debug_str:00000000000011f4 .LASF326
C:\Users\Uzair\AppData\Local\Temp\cc1gXnIM.s:9334   .debug_str:00000000000014ec .LASF327
C:\Users\Uzair\AppData\Local\Temp\cc1gXnIM.s:8882   .debug_str:0000000000000a08 .LASF328
C:\Users\Uzair\AppData\Local\Temp\cc1gXnIM.s:8742   .debug_str:00000000000006c4 .LASF329
C:\Users\Uzair\AppData\Local\Temp\cc1gXnIM.s:9140   .debug_str:000000000000108b .LASF330
C:\Users\Uzair\AppData\Local\Temp\cc1gXnIM.s:8758   .debug_str:000000000000072f .LASF331
C:\Users\Uzair\AppData\Local\Temp\cc1gXnIM.s:9216   .debug_str:000000000000127f .LASF332
C:\Users\Uzair\AppData\Local\Temp\cc1gXnIM.s:8884   .debug_str:0000000000000a11 .LASF333
C:\Users\Uzair\AppData\Local\Temp\cc1gXnIM.s:8990   .debug_str:0000000000000cbc .LASF334
C:\Users\Uzair\AppData\Local\Temp\cc1gXnIM.s:9150   .debug_str:00000000000010b7 .LASF335
C:\Users\Uzair\AppData\Local\Temp\cc1gXnIM.s:9210   .debug_str:0000000000001252 .LASF336
C:\Users\Uzair\AppData\Local\Temp\cc1gXnIM.s:8910   .debug_str:0000000000000ac4 .LASF337
C:\Users\Uzair\AppData\Local\Temp\cc1gXnIM.s:8830   .debug_str:00000000000008de .LASF338
C:\Users\Uzair\AppData\Local\Temp\cc1gXnIM.s:8786   .debug_str:00000000000007cf .LASF339
C:\Users\Uzair\AppData\Local\Temp\cc1gXnIM.s:8780   .debug_str:00000000000007ac .LASF340
C:\Users\Uzair\AppData\Local\Temp\cc1gXnIM.s:8610   .debug_str:00000000000003aa .LASF341
C:\Users\Uzair\AppData\Local\Temp\cc1gXnIM.s:9342   .debug_str:0000000000001511 .LASF342
C:\Users\Uzair\AppData\Local\Temp\cc1gXnIM.s:8530   .debug_str:0000000000000147 .LASF343
C:\Users\Uzair\AppData\Local\Temp\cc1gXnIM.s:8654   .debug_str:0000000000000498 .LASF344
C:\Users\Uzair\AppData\Local\Temp\cc1gXnIM.s:8934   .debug_str:0000000000000b67 .LASF345
C:\Users\Uzair\AppData\Local\Temp\cc1gXnIM.s:9268   .debug_str:0000000000001399 .LASF346
C:\Users\Uzair\AppData\Local\Temp\cc1gXnIM.s:9252   .debug_str:0000000000001334 .LASF347
C:\Users\Uzair\AppData\Local\Temp\cc1gXnIM.s:8736   .debug_str:0000000000000693 .LASF348
C:\Users\Uzair\AppData\Local\Temp\cc1gXnIM.s:9070   .debug_str:0000000000000e99 .LASF349
C:\Users\Uzair\AppData\Local\Temp\cc1gXnIM.s:8480   .debug_str:0000000000000000 .LASF350
C:\Users\Uzair\AppData\Local\Temp\cc1gXnIM.s:8936   .debug_str:0000000000000b77 .LASF351
C:\Users\Uzair\AppData\Local\Temp\cc1gXnIM.s:8930   .debug_str:0000000000000b4c .LASF352
C:\Users\Uzair\AppData\Local\Temp\cc1gXnIM.s:9044   .debug_str:0000000000000e00 .LASF353
C:\Users\Uzair\AppData\Local\Temp\cc1gXnIM.s:8806   .debug_str:0000000000000852 .LASF354
C:\Users\Uzair\AppData\Local\Temp\cc1gXnIM.s:9176   .debug_str:0000000000001187 .LASF355
C:\Users\Uzair\AppData\Local\Temp\cc1gXnIM.s:9106   .debug_str:0000000000000f73 .LASF356
C:\Users\Uzair\AppData\Local\Temp\cc1gXnIM.s:9112   .debug_str:0000000000000f9b .LASF357
C:\Users\Uzair\AppData\Local\Temp\cc1gXnIM.s:9136   .debug_str:0000000000001071 .LASF358
C:\Users\Uzair\AppData\Local\Temp\cc1gXnIM.s:9000   .debug_str:0000000000000cf1 .LASF359
C:\Users\Uzair\AppData\Local\Temp\cc1gXnIM.s:9470   .debug_str:0000000000001813 .LASF360
C:\Users\Uzair\AppData\Local\Temp\cc1gXnIM.s:8966   .debug_str:0000000000000c27 .LASF361
C:\Users\Uzair\AppData\Local\Temp\cc1gXnIM.s:8734   .debug_str:0000000000000685 .LASF362
C:\Users\Uzair\AppData\Local\Temp\cc1gXnIM.s:9388   .debug_str:000000000000162c .LASF363
C:\Users\Uzair\AppData\Local\Temp\cc1gXnIM.s:8484   .debug_str:0000000000000015 .LASF364
C:\Users\Uzair\AppData\Local\Temp\cc1gXnIM.s:8954   .debug_str:0000000000000be4 .LASF365
C:\Users\Uzair\AppData\Local\Temp\cc1gXnIM.s:9110   .debug_str:0000000000000f8b .LASF366
C:\Users\Uzair\AppData\Local\Temp\cc1gXnIM.s:9318   .debug_str:0000000000001490 .LASF367
C:\Users\Uzair\AppData\Local\Temp\cc1gXnIM.s:8710   .debug_str:00000000000005e5 .LASF368
C:\Users\Uzair\AppData\Local\Temp\cc1gXnIM.s:9288   .debug_str:0000000000001404 .LASF369
C:\Users\Uzair\AppData\Local\Temp\cc1gXnIM.s:8488   .debug_str:0000000000000032 .LASF370
C:\Users\Uzair\AppData\Local\Temp\cc1gXnIM.s:9480   .debug_str:0000000000001847 .LASF371
C:\Users\Uzair\AppData\Local\Temp\cc1gXnIM.s:8498   .debug_str:0000000000000087 .LASF372
C:\Users\Uzair\AppData\Local\Temp\cc1gXnIM.s:9054   .debug_str:0000000000000e31 .LASF373
C:\Users\Uzair\AppData\Local\Temp\cc1gXnIM.s:8672   .debug_str:00000000000004f3 .LASF374
C:\Users\Uzair\AppData\Local\Temp\cc1gXnIM.s:8918   .debug_str:0000000000000af5 .LASF375
C:\Users\Uzair\AppData\Local\Temp\cc1gXnIM.s:9490   .debug_str:0000000000001873 .LASF376
C:\Users\Uzair\AppData\Local\Temp\cc1gXnIM.s:8972   .debug_str:0000000000000c4c .LASF377
C:\Users\Uzair\AppData\Local\Temp\cc1gXnIM.s:9364   .debug_str:00000000000015a6 .LASF378
C:\Users\Uzair\AppData\Local\Temp\cc1gXnIM.s:8686   .debug_str:000000000000055e .LASF379
C:\Users\Uzair\AppData\Local\Temp\cc1gXnIM.s:8598   .debug_str:00000000000002e2 .LASF380
C:\Users\Uzair\AppData\Local\Temp\cc1gXnIM.s:8866   .debug_str:00000000000009be .LASF381
C:\Users\Uzair\AppData\Local\Temp\cc1gXnIM.s:9548   .debug_str:00000000000019be .LASF382
GAS LISTING C:\Users\Uzair\AppData\Local\Temp\cc1gXnIM.s 			page 41


C:\Users\Uzair\AppData\Local\Temp\cc1gXnIM.s:9402   .debug_str:000000000000167f .LASF383
C:\Users\Uzair\AppData\Local\Temp\cc1gXnIM.s:9160   .debug_str:000000000000110b .LASF384
C:\Users\Uzair\AppData\Local\Temp\cc1gXnIM.s:9332   .debug_str:00000000000014e2 .LASF385
C:\Users\Uzair\AppData\Local\Temp\cc1gXnIM.s:9280   .debug_str:00000000000013db .LASF386
C:\Users\Uzair\AppData\Local\Temp\cc1gXnIM.s:9098   .debug_str:0000000000000f44 .LASF387
C:\Users\Uzair\AppData\Local\Temp\cc1gXnIM.s:9352   .debug_str:0000000000001543 .LASF388
C:\Users\Uzair\AppData\Local\Temp\cc1gXnIM.s:8650   .debug_str:0000000000000486 .LASF389
C:\Users\Uzair\AppData\Local\Temp\cc1gXnIM.s:9182   .debug_str:00000000000011ab .LASF390
C:\Users\Uzair\AppData\Local\Temp\cc1gXnIM.s:8504   .debug_str:00000000000000ab .LASF391
C:\Users\Uzair\AppData\Local\Temp\cc1gXnIM.s:9034   .debug_str:0000000000000dcb .LASF392
C:\Users\Uzair\AppData\Local\Temp\cc1gXnIM.s:9354   .debug_str:000000000000154c .LASF393
C:\Users\Uzair\AppData\Local\Temp\cc1gXnIM.s:9456   .debug_str:00000000000017c6 .LASF394
C:\Users\Uzair\AppData\Local\Temp\cc1gXnIM.s:8846   .debug_str:0000000000000946 .LASF395
C:\Users\Uzair\AppData\Local\Temp\cc1gXnIM.s:8752   .debug_str:0000000000000708 .LASF396
C:\Users\Uzair\AppData\Local\Temp\cc1gXnIM.s:9052   .debug_str:0000000000000e24 .LASF397
C:\Users\Uzair\AppData\Local\Temp\cc1gXnIM.s:9146   .debug_str:00000000000010a3 .LASF398
C:\Users\Uzair\AppData\Local\Temp\cc1gXnIM.s:9004   .debug_str:0000000000000d1c .LASF399
C:\Users\Uzair\AppData\Local\Temp\cc1gXnIM.s:8482   .debug_str:0000000000000009 .LASF400
C:\Users\Uzair\AppData\Local\Temp\cc1gXnIM.s:9348   .debug_str:000000000000152c .LASF401
C:\Users\Uzair\AppData\Local\Temp\cc1gXnIM.s:8744   .debug_str:00000000000006d2 .LASF402
C:\Users\Uzair\AppData\Local\Temp\cc1gXnIM.s:9462   .debug_str:00000000000017ea .LASF403
C:\Users\Uzair\AppData\Local\Temp\cc1gXnIM.s:8796   .debug_str:0000000000000816 .LASF404
C:\Users\Uzair\AppData\Local\Temp\cc1gXnIM.s:8950   .debug_str:0000000000000bcc .LASF405
C:\Users\Uzair\AppData\Local\Temp\cc1gXnIM.s:8596   .debug_str:00000000000002d9 .LASF406
C:\Users\Uzair\AppData\Local\Temp\cc1gXnIM.s:9108   .debug_str:0000000000000f82 .LASF407
C:\Users\Uzair\AppData\Local\Temp\cc1gXnIM.s:9476   .debug_str:0000000000001831 .LASF408
C:\Users\Uzair\AppData\Local\Temp\cc1gXnIM.s:8776   .debug_str:0000000000000796 .LASF409
C:\Users\Uzair\AppData\Local\Temp\cc1gXnIM.s:9374   .debug_str:00000000000015db .LASF410
C:\Users\Uzair\AppData\Local\Temp\cc1gXnIM.s:8886   .debug_str:0000000000000a19 .LASF411
C:\Users\Uzair\AppData\Local\Temp\cc1gXnIM.s:9544   .debug_str:00000000000019ab .LASF412
C:\Users\Uzair\AppData\Local\Temp\cc1gXnIM.s:9500   .debug_str:00000000000018b8 .LASF413
C:\Users\Uzair\AppData\Local\Temp\cc1gXnIM.s:9302   .debug_str:0000000000001445 .LASF414
C:\Users\Uzair\AppData\Local\Temp\cc1gXnIM.s:9292   .debug_str:0000000000001414 .LASF415
C:\Users\Uzair\AppData\Local\Temp\cc1gXnIM.s:9218   .debug_str:0000000000001286 .LASF416
C:\Users\Uzair\AppData\Local\Temp\cc1gXnIM.s:8704   .debug_str:00000000000005c5 .LASF417
C:\Users\Uzair\AppData\Local\Temp\cc1gXnIM.s:9320   .debug_str:00000000000014a3 .LASF418
C:\Users\Uzair\AppData\Local\Temp\cc1gXnIM.s:8850   .debug_str:000000000000095f .LASF419
C:\Users\Uzair\AppData\Local\Temp\cc1gXnIM.s:8638   .debug_str:0000000000000450 .LASF420
C:\Users\Uzair\AppData\Local\Temp\cc1gXnIM.s:8626   .debug_str:000000000000040c .LASF421
C:\Users\Uzair\AppData\Local\Temp\cc1gXnIM.s:8774   .debug_str:000000000000078d .LASF422
C:\Users\Uzair\AppData\Local\Temp\cc1gXnIM.s:8804   .debug_str:000000000000083f .LASF423
C:\Users\Uzair\AppData\Local\Temp\cc1gXnIM.s:9090   .debug_str:0000000000000f07 .LASF424
C:\Users\Uzair\AppData\Local\Temp\cc1gXnIM.s:9282   .debug_str:00000000000013e4 .LASF425
C:\Users\Uzair\AppData\Local\Temp\cc1gXnIM.s:8890   .debug_str:0000000000000a2e .LASF426
C:\Users\Uzair\AppData\Local\Temp\cc1gXnIM.s:8590   .debug_str:00000000000002be .LASF427
C:\Users\Uzair\AppData\Local\Temp\cc1gXnIM.s:9086   .debug_str:0000000000000ef3 .LASF428
C:\Users\Uzair\AppData\Local\Temp\cc1gXnIM.s:9088   .debug_str:0000000000000efc .LASF429
C:\Users\Uzair\AppData\Local\Temp\cc1gXnIM.s:9214   .debug_str:0000000000001271 .LASF430
C:\Users\Uzair\AppData\Local\Temp\cc1gXnIM.s:9262   .debug_str:0000000000001375 .LASF431
C:\Users\Uzair\AppData\Local\Temp\cc1gXnIM.s:9274   .debug_str:00000000000013c2 .LASF432
C:\Users\Uzair\AppData\Local\Temp\cc1gXnIM.s:9290   .debug_str:000000000000140f .LASF433
C:\Users\Uzair\AppData\Local\Temp\cc1gXnIM.s:9078   .debug_str:0000000000000ec0 .LASF434
C:\Users\Uzair\AppData\Local\Temp\cc1gXnIM.s:9124   .debug_str:0000000000000fed .LASF435
C:\Users\Uzair\AppData\Local\Temp\cc1gXnIM.s:9390   .debug_str:000000000000163d .LASF436
C:\Users\Uzair\AppData\Local\Temp\cc1gXnIM.s:9330   .debug_str:00000000000014d2 .LASF437
C:\Users\Uzair\AppData\Local\Temp\cc1gXnIM.s:8770   .debug_str:000000000000076a .LASF438
C:\Users\Uzair\AppData\Local\Temp\cc1gXnIM.s:9526   .debug_str:0000000000001957 .LASF439
GAS LISTING C:\Users\Uzair\AppData\Local\Temp\cc1gXnIM.s 			page 42


C:\Users\Uzair\AppData\Local\Temp\cc1gXnIM.s:9438   .debug_str:0000000000001745 .LASF440
C:\Users\Uzair\AppData\Local\Temp\cc1gXnIM.s:8732   .debug_str:0000000000000676 .LASF441
C:\Users\Uzair\AppData\Local\Temp\cc1gXnIM.s:8750   .debug_str:00000000000006f9 .LASF442
C:\Users\Uzair\AppData\Local\Temp\cc1gXnIM.s:8576   .debug_str:0000000000000249 .LASF443
C:\Users\Uzair\AppData\Local\Temp\cc1gXnIM.s:9156   .debug_str:00000000000010dd .LASF444
C:\Users\Uzair\AppData\Local\Temp\cc1gXnIM.s:9444   .debug_str:0000000000001786 .LASF445
C:\Users\Uzair\AppData\Local\Temp\cc1gXnIM.s:8820   .debug_str:000000000000089b .LASF446
C:\Users\Uzair\AppData\Local\Temp\cc1gXnIM.s:8730   .debug_str:0000000000000651 .LASF447
C:\Users\Uzair\AppData\Local\Temp\cc1gXnIM.s:8678   .debug_str:0000000000000520 .LASF448
C:\Users\Uzair\AppData\Local\Temp\cc1gXnIM.s:9408   .debug_str:00000000000016a1 .LASF449
C:\Users\Uzair\AppData\Local\Temp\cc1gXnIM.s:8702   .debug_str:00000000000005a9 .LASF450
C:\Users\Uzair\AppData\Local\Temp\cc1gXnIM.s:8908   .debug_str:0000000000000ab3 .LASF451
C:\Users\Uzair\AppData\Local\Temp\cc1gXnIM.s:8608   .debug_str:0000000000000397 .LASF452
C:\Users\Uzair\AppData\Local\Temp\cc1gXnIM.s:8542   .debug_str:0000000000000189 .LASF453
C:\Users\Uzair\AppData\Local\Temp\cc1gXnIM.s:8794   .debug_str:00000000000007fa .LASF454
C:\Users\Uzair\AppData\Local\Temp\cc1gXnIM.s:9082   .debug_str:0000000000000ed3 .LASF455
C:\Users\Uzair\AppData\Local\Temp\cc1gXnIM.s:8492   .debug_str:000000000000005b .LASF456
C:\Users\Uzair\AppData\Local\Temp\cc1gXnIM.s:8520   .debug_str:00000000000000fa .LASF457
C:\Users\Uzair\AppData\Local\Temp\cc1gXnIM.s:9430   .debug_str:000000000000171a .LASF458
C:\Users\Uzair\AppData\Local\Temp\cc1gXnIM.s:9440   .debug_str:000000000000176b .LASF459
C:\Users\Uzair\AppData\Local\Temp\cc1gXnIM.s:8676   .debug_str:0000000000000507 .LASF460
C:\Users\Uzair\AppData\Local\Temp\cc1gXnIM.s:8528   .debug_str:000000000000013b .LASF461
C:\Users\Uzair\AppData\Local\Temp\cc1gXnIM.s:9062   .debug_str:0000000000000e68 .LASF462
C:\Users\Uzair\AppData\Local\Temp\cc1gXnIM.s:8580   .debug_str:0000000000000281 .LASF463
C:\Users\Uzair\AppData\Local\Temp\cc1gXnIM.s:8912   .debug_str:0000000000000ad4 .LASF464
C:\Users\Uzair\AppData\Local\Temp\cc1gXnIM.s:8840   .debug_str:0000000000000928 .LASF465
C:\Users\Uzair\AppData\Local\Temp\cc1gXnIM.s:9036   .debug_str:0000000000000dd6 .LASF466
C:\Users\Uzair\AppData\Local\Temp\cc1gXnIM.s:9410   .debug_str:00000000000016b5 .LASF467
C:\Users\Uzair\AppData\Local\Temp\cc1gXnIM.s:8578   .debug_str:0000000000000277 .LASF468
C:\Users\Uzair\AppData\Local\Temp\cc1gXnIM.s:9522   .debug_str:0000000000001940 .LASF469
C:\Users\Uzair\AppData\Local\Temp\cc1gXnIM.s:8652   .debug_str:000000000000048e .LASF470
C:\Users\Uzair\AppData\Local\Temp\cc1gXnIM.s:9404   .debug_str:0000000000001689 .LASF471
C:\Users\Uzair\AppData\Local\Temp\cc1gXnIM.s:8828   .debug_str:00000000000008d4 .LASF472
C:\Users\Uzair\AppData\Local\Temp\cc1gXnIM.s:9172   .debug_str:0000000000001177 .LASF473
C:\Users\Uzair\AppData\Local\Temp\cc1gXnIM.s:9372   .debug_str:00000000000015cf .LASF474
C:\Users\Uzair\AppData\Local\Temp\cc1gXnIM.s:8932   .debug_str:0000000000000b62 .LASF475
C:\Users\Uzair\AppData\Local\Temp\cc1gXnIM.s:8986   .debug_str:0000000000000ca1 .LASF476
C:\Users\Uzair\AppData\Local\Temp\cc1gXnIM.s:8622   .debug_str:00000000000003f4 .LASF477
C:\Users\Uzair\AppData\Local\Temp\cc1gXnIM.s:8690   .debug_str:0000000000000570 .LASF531
C:\Users\Uzair\AppData\Local\Temp\cc1gXnIM.s:420    .text.startup.main:0000000000000000 .LFB10
C:\Users\Uzair\AppData\Local\Temp\cc1gXnIM.s:968    .text.startup.main:0000000000000436 .LFE10
C:\Users\Uzair\AppData\Local\Temp\cc1gXnIM.s:8037   .debug_loc:0000000000000000 .LLST10
C:\Users\Uzair\AppData\Local\Temp\cc1gXnIM.s:8616   .debug_str:00000000000003d5 .LASF478
C:\Users\Uzair\AppData\Local\Temp\cc1gXnIM.s:8876   .debug_str:00000000000009f0 .LASF479
C:\Users\Uzair\AppData\Local\Temp\cc1gXnIM.s:8050   .debug_loc:0000000000000021 .LLST11
C:\Users\Uzair\AppData\Local\Temp\cc1gXnIM.s:8606   .debug_str:000000000000038c .LASF480
C:\Users\Uzair\AppData\Local\Temp\cc1gXnIM.s:8057   .debug_loc:0000000000000034 .LLST12
C:\Users\Uzair\AppData\Local\Temp\cc1gXnIM.s:9114   .debug_str:0000000000000faf .LASF481
C:\Users\Uzair\AppData\Local\Temp\cc1gXnIM.s:8088   .debug_loc:0000000000000088 .LLST13
C:\Users\Uzair\AppData\Local\Temp\cc1gXnIM.s:8764   .debug_str:0000000000000748 .LASF482
C:\Users\Uzair\AppData\Local\Temp\cc1gXnIM.s:8128   .debug_loc:00000000000000ed .LLST14
C:\Users\Uzair\AppData\Local\Temp\cc1gXnIM.s:9380   .debug_str:00000000000015ff .LASF483
C:\Users\Uzair\AppData\Local\Temp\cc1gXnIM.s:9412   .debug_str:00000000000016be .LASF484
C:\Users\Uzair\AppData\Local\Temp\cc1gXnIM.s:8163   .debug_loc:0000000000000146 .LLST15
C:\Users\Uzair\AppData\Local\Temp\cc1gXnIM.s:8178   .debug_loc:000000000000016f .LLST16
C:\Users\Uzair\AppData\Local\Temp\cc1gXnIM.s:9434   .debug_str:0000000000001730 .LASF485
C:\Users\Uzair\AppData\Local\Temp\cc1gXnIM.s:8193   .debug_loc:0000000000000198 .LLST17
GAS LISTING C:\Users\Uzair\AppData\Local\Temp\cc1gXnIM.s 			page 43


C:\Users\Uzair\AppData\Local\Temp\cc1gXnIM.s:731    .text.startup.main:0000000000000246 .LVL80
C:\Users\Uzair\AppData\Local\Temp\cc1gXnIM.s:742    .text.startup.main:000000000000025e .LVL83
C:\Users\Uzair\AppData\Local\Temp\cc1gXnIM.s:746    .text.startup.main:000000000000026a .LVL84
C:\Users\Uzair\AppData\Local\Temp\cc1gXnIM.s:751    .text.startup.main:000000000000027a .LVL85
C:\Users\Uzair\AppData\Local\Temp\cc1gXnIM.s:767    .text.startup.main:000000000000029a .LVL87
C:\Users\Uzair\AppData\Local\Temp\cc1gXnIM.s:945    .text.startup.main:0000000000000408 .LVL116
C:\Users\Uzair\AppData\Local\Temp\cc1gXnIM.s:949    .text.startup.main:0000000000000414 .LVL117
C:\Users\Uzair\AppData\Local\Temp\cc1gXnIM.s:954    .text.startup.main:0000000000000424 .LVL118
C:\Users\Uzair\AppData\Local\Temp\cc1gXnIM.s:960    .text.startup.main:0000000000000432 .LVL119
C:\Users\Uzair\AppData\Local\Temp\cc1gXnIM.s:626    .text.startup.main:000000000000017e .LBB20
C:\Users\Uzair\AppData\Local\Temp\cc1gXnIM.s:8204   .debug_loc:00000000000001b6 .LLST18
C:\Users\Uzair\AppData\Local\Temp\cc1gXnIM.s:8211   .debug_loc:00000000000001c9 .LLST19
C:\Users\Uzair\AppData\Local\Temp\cc1gXnIM.s:8218   .debug_loc:00000000000001dc .LLST20
C:\Users\Uzair\AppData\Local\Temp\cc1gXnIM.s:582    .text.startup.main:0000000000000126 .LVL51
C:\Users\Uzair\AppData\Local\Temp\cc1gXnIM.s:596    .text.startup.main:000000000000014a .LVL54
C:\Users\Uzair\AppData\Local\Temp\cc1gXnIM.s:616    .text.startup.main:0000000000000174 .LVL59
C:\Users\Uzair\AppData\Local\Temp\cc1gXnIM.s:652    .text.startup.main:0000000000000194 .LVL63
C:\Users\Uzair\AppData\Local\Temp\cc1gXnIM.s:656    .text.startup.main:00000000000001a0 .LVL64
C:\Users\Uzair\AppData\Local\Temp\cc1gXnIM.s:689    .text.startup.main:00000000000001e4 .LVL72
C:\Users\Uzair\AppData\Local\Temp\cc1gXnIM.s:695    .text.startup.main:00000000000001f0 .LVL73
C:\Users\Uzair\AppData\Local\Temp\cc1gXnIM.s:710    .text.startup.main:000000000000021a .LVL76
C:\Users\Uzair\AppData\Local\Temp\cc1gXnIM.s:714    .text.startup.main:0000000000000224 .LVL77
C:\Users\Uzair\AppData\Local\Temp\cc1gXnIM.s:718    .text.startup.main:0000000000000230 .LVL78
C:\Users\Uzair\AppData\Local\Temp\cc1gXnIM.s:833    .text.startup.main:0000000000000314 .LVL93
C:\Users\Uzair\AppData\Local\Temp\cc1gXnIM.s:868    .text.startup.main:0000000000000368 .LVL100
C:\Users\Uzair\AppData\Local\Temp\cc1gXnIM.s:903    .text.startup.main:00000000000003bc .LVL107
C:\Users\Uzair\AppData\Local\Temp\cc1gXnIM.s:910    .text.startup.main:00000000000003ca .LVL108
C:\Users\Uzair\AppData\Local\Temp\cc1gXnIM.s:913    .text.startup.main:00000000000003d2 .LVL109
C:\Users\Uzair\AppData\Local\Temp\cc1gXnIM.s:931    .text.startup.main:00000000000003f0 .LVL113
C:\Users\Uzair\AppData\Local\Temp\cc1gXnIM.s:461    .text.startup.main:0000000000000022 .LVL33
C:\Users\Uzair\AppData\Local\Temp\cc1gXnIM.s:466    .text.startup.main:000000000000002a .LVL34
C:\Users\Uzair\AppData\Local\Temp\cc1gXnIM.s:472    .text.startup.main:000000000000003a .LVL35
C:\Users\Uzair\AppData\Local\Temp\cc1gXnIM.s:476    .text.startup.main:0000000000000046 .LVL36
C:\Users\Uzair\AppData\Local\Temp\cc1gXnIM.s:484    .text.startup.main:000000000000005c .LVL37
C:\Users\Uzair\AppData\Local\Temp\cc1gXnIM.s:488    .text.startup.main:0000000000000068 .LVL38
C:\Users\Uzair\AppData\Local\Temp\cc1gXnIM.s:495    .text.startup.main:000000000000007a .LVL39
C:\Users\Uzair\AppData\Local\Temp\cc1gXnIM.s:502    .text.startup.main:000000000000008e .LVL40
C:\Users\Uzair\AppData\Local\Temp\cc1gXnIM.s:506    .text.startup.main:000000000000009a .LVL41
C:\Users\Uzair\AppData\Local\Temp\cc1gXnIM.s:513    .text.startup.main:00000000000000ae .LVL42
C:\Users\Uzair\AppData\Local\Temp\cc1gXnIM.s:518    .text.startup.main:00000000000000be .LVL43
C:\Users\Uzair\AppData\Local\Temp\cc1gXnIM.s:522    .text.startup.main:00000000000000c8 .LVL44
C:\Users\Uzair\AppData\Local\Temp\cc1gXnIM.s:525    .text.startup.main:00000000000000d0 .LVL45
C:\Users\Uzair\AppData\Local\Temp\cc1gXnIM.s:529    .text.startup.main:00000000000000da .LVL46
C:\Users\Uzair\AppData\Local\Temp\cc1gXnIM.s:538    .text.startup.main:00000000000000e8 .LVL47
C:\Users\Uzair\AppData\Local\Temp\cc1gXnIM.s:552    .text.startup.main:00000000000000fc .LVL48
C:\Users\Uzair\AppData\Local\Temp\cc1gXnIM.s:558    .text.startup.main:0000000000000106 .LVL49
C:\Users\Uzair\AppData\Local\Temp\cc1gXnIM.s:922    .text.startup.main:00000000000003e0 .LVL111
C:\Users\Uzair\AppData\Local\Temp\cc1gXnIM.s:9310   .debug_str:000000000000146a .LASF489
C:\Users\Uzair\AppData\Local\Temp\cc1gXnIM.s:349    .text.TIMER1_IRQHandler:0000000000000000 .LFB9
C:\Users\Uzair\AppData\Local\Temp\cc1gXnIM.s:405    .text.TIMER1_IRQHandler:000000000000003e .LFE9
C:\Users\Uzair\AppData\Local\Temp\cc1gXnIM.s:8227   .debug_loc:00000000000001f1 .LLST9
C:\Users\Uzair\AppData\Local\Temp\cc1gXnIM.s:365    .text.TIMER1_IRQHandler:0000000000000012 .LVL30
C:\Users\Uzair\AppData\Local\Temp\cc1gXnIM.s:393    .text.TIMER1_IRQHandler:0000000000000038 .LVL31
C:\Users\Uzair\AppData\Local\Temp\cc1gXnIM.s:8868   .debug_str:00000000000009c6 .LASF490
C:\Users\Uzair\AppData\Local\Temp\cc1gXnIM.s:220    .text.interrupt_config:0000000000000000 .LFB8
C:\Users\Uzair\AppData\Local\Temp\cc1gXnIM.s:342    .text.interrupt_config:00000000000000e4 .LFE8
C:\Users\Uzair\AppData\Local\Temp\cc1gXnIM.s:8255   .debug_loc:0000000000000235 .LLST8
GAS LISTING C:\Users\Uzair\AppData\Local\Temp\cc1gXnIM.s 			page 44


C:\Users\Uzair\AppData\Local\Temp\cc1gXnIM.s:9060   .debug_str:0000000000000e57 .LASF491
C:\Users\Uzair\AppData\Local\Temp\cc1gXnIM.s:8956   .debug_str:0000000000000bf2 .LASF492
C:\Users\Uzair\AppData\Local\Temp\cc1gXnIM.s:241    .text.interrupt_config:0000000000000016 .LVL17
C:\Users\Uzair\AppData\Local\Temp\cc1gXnIM.s:245    .text.interrupt_config:0000000000000022 .LVL18
C:\Users\Uzair\AppData\Local\Temp\cc1gXnIM.s:249    .text.interrupt_config:000000000000002e .LVL19
C:\Users\Uzair\AppData\Local\Temp\cc1gXnIM.s:253    .text.interrupt_config:0000000000000038 .LVL20
C:\Users\Uzair\AppData\Local\Temp\cc1gXnIM.s:278    .text.interrupt_config:000000000000005a .LVL21
C:\Users\Uzair\AppData\Local\Temp\cc1gXnIM.s:282    .text.interrupt_config:0000000000000064 .LVL22
C:\Users\Uzair\AppData\Local\Temp\cc1gXnIM.s:298    .text.interrupt_config:0000000000000080 .LVL23
C:\Users\Uzair\AppData\Local\Temp\cc1gXnIM.s:305    .text.interrupt_config:0000000000000094 .LVL24
C:\Users\Uzair\AppData\Local\Temp\cc1gXnIM.s:311    .text.interrupt_config:00000000000000a4 .LVL25
C:\Users\Uzair\AppData\Local\Temp\cc1gXnIM.s:317    .text.interrupt_config:00000000000000b4 .LVL26
C:\Users\Uzair\AppData\Local\Temp\cc1gXnIM.s:322    .text.interrupt_config:00000000000000c2 .LVL27
C:\Users\Uzair\AppData\Local\Temp\cc1gXnIM.s:327    .text.interrupt_config:00000000000000d0 .LVL28
C:\Users\Uzair\AppData\Local\Temp\cc1gXnIM.s:331    .text.interrupt_config:00000000000000dc .LVL29
C:\Users\Uzair\AppData\Local\Temp\cc1gXnIM.s:9254   .debug_str:000000000000133e .LASF532
C:\Users\Uzair\AppData\Local\Temp\cc1gXnIM.s:8592   .debug_str:00000000000002c5 .LASF493
C:\Users\Uzair\AppData\Local\Temp\cc1gXnIM.s:8644   .debug_str:000000000000046d .LASF494
C:\Users\Uzair\AppData\Local\Temp\cc1gXnIM.s:8848   .debug_str:0000000000000957 .LASF495
C:\Users\Uzair\AppData\Local\Temp\cc1gXnIM.s:8772   .debug_str:000000000000077d .LASF533
C:\Users\Uzair\AppData\Local\Temp\cc1gXnIM.s:17     .text.initStaticTimer:0000000000000000 .LFB6
C:\Users\Uzair\AppData\Local\Temp\cc1gXnIM.s:37     .text.initStaticTimer:000000000000000e .LFE6
C:\Users\Uzair\AppData\Local\Temp\cc1gXnIM.s:47     .text.updateStaticTimer:0000000000000000 .LFB7
C:\Users\Uzair\AppData\Local\Temp\cc1gXnIM.s:213    .text.updateStaticTimer:00000000000000b0 .LFE7
C:\Users\Uzair\AppData\Local\Temp\cc1gXnIM.s:8273   .debug_loc:0000000000000261 .LLST0
C:\Users\Uzair\AppData\Local\Temp\cc1gXnIM.s:8296   .debug_loc:0000000000000299 .LLST1
C:\Users\Uzair\AppData\Local\Temp\cc1gXnIM.s:8318   .debug_loc:00000000000002d0 .LLST2
C:\Users\Uzair\AppData\Local\Temp\cc1gXnIM.s:8342   .debug_loc:0000000000000309 .LLST3
C:\Users\Uzair\AppData\Local\Temp\cc1gXnIM.s:8364   .debug_loc:0000000000000340 .LLST4
C:\Users\Uzair\AppData\Local\Temp\cc1gXnIM.s:8379   .debug_loc:0000000000000369 .LLST5
C:\Users\Uzair\AppData\Local\Temp\cc1gXnIM.s:181    .text.updateStaticTimer:0000000000000092 .LBB14
C:\Users\Uzair\AppData\Local\Temp\cc1gXnIM.s:199    .text.updateStaticTimer:00000000000000a0 .LBE14
C:\Users\Uzair\AppData\Local\Temp\cc1gXnIM.s:8390   .debug_loc:0000000000000387 .LLST6
C:\Users\Uzair\AppData\Local\Temp\cc1gXnIM.s:8400   .debug_loc:000000000000039d .LLST7
C:\Users\Uzair\AppData\Local\Temp\cc1gXnIM.s:182    .text.updateStaticTimer:0000000000000092 .LBB15
C:\Users\Uzair\AppData\Local\Temp\cc1gXnIM.s:198    .text.updateStaticTimer:00000000000000a0 .LBE15
C:\Users\Uzair\AppData\Local\Temp\cc1gXnIM.s:183    .text.updateStaticTimer:0000000000000092 .LBB16
C:\Users\Uzair\AppData\Local\Temp\cc1gXnIM.s:197    .text.updateStaticTimer:00000000000000a0 .LBE16
C:\Users\Uzair\AppData\Local\Temp\cc1gXnIM.s:9260   .debug_str:0000000000001368 .LASF496
C:\Users\Uzair\AppData\Local\Temp\cc1gXnIM.s:9306   .debug_str:0000000000001451 .LASF497
C:\Users\Uzair\AppData\Local\Temp\cc1gXnIM.s:8940   .debug_str:0000000000000b92 .LASF498
C:\Users\Uzair\AppData\Local\Temp\cc1gXnIM.s:9190   .debug_str:00000000000011d1 .LASF499
C:\Users\Uzair\AppData\Local\Temp\cc1gXnIM.s:8842   .debug_str:0000000000000934 .LASF500
C:\Users\Uzair\AppData\Local\Temp\cc1gXnIM.s:8896   .debug_str:0000000000000a6d .LASF501
C:\Users\Uzair\AppData\Local\Temp\cc1gXnIM.s:8870   .debug_str:00000000000009d7 .LASF502
C:\Users\Uzair\AppData\Local\Temp\cc1gXnIM.s:9530   .debug_str:0000000000001965 .LASF503
C:\Users\Uzair\AppData\Local\Temp\cc1gXnIM.s:8712   .debug_str:00000000000005f8 .LASF504
C:\Users\Uzair\AppData\Local\Temp\cc1gXnIM.s:8680   .debug_str:0000000000000537 .LASF505
C:\Users\Uzair\AppData\Local\Temp\cc1gXnIM.s:9326   .debug_str:00000000000014ba .LASF506
C:\Users\Uzair\AppData\Local\Temp\cc1gXnIM.s:9426   .debug_str:000000000000170b .LASF534
C:\Users\Uzair\AppData\Local\Temp\cc1gXnIM.s:8624   .debug_str:00000000000003fb .LASF535
C:\Users\Uzair\AppData\Local\Temp\cc1gXnIM.s:8612   .debug_str:00000000000003b1 .LASF507
C:\Users\Uzair\AppData\Local\Temp\cc1gXnIM.s:8834   .debug_str:00000000000008fd .LASF508
C:\Users\Uzair\AppData\Local\Temp\cc1gXnIM.s:9234   .debug_str:00000000000012cc .LASF509
C:\Users\Uzair\AppData\Local\Temp\cc1gXnIM.s:9512   .debug_str:00000000000018fc .LASF510
C:\Users\Uzair\AppData\Local\Temp\cc1gXnIM.s:9300   .debug_str:000000000000143b .LASF511
C:\Users\Uzair\AppData\Local\Temp\cc1gXnIM.s:8952   .debug_str:0000000000000bd4 .LASF512
GAS LISTING C:\Users\Uzair\AppData\Local\Temp\cc1gXnIM.s 			page 45


C:\Users\Uzair\AppData\Local\Temp\cc1gXnIM.s:8646   .debug_str:0000000000000472 .LASF513
C:\Users\Uzair\AppData\Local\Temp\cc1gXnIM.s:8784   .debug_str:00000000000007c6 .LASF514
C:\Users\Uzair\AppData\Local\Temp\cc1gXnIM.s:8522   .debug_str:0000000000000122 .LASF515
C:\Users\Uzair\AppData\Local\Temp\cc1gXnIM.s:9002   .debug_str:0000000000000cfe .LASF516
C:\Users\Uzair\AppData\Local\Temp\cc1gXnIM.s:8738   .debug_str:000000000000069d .LASF517
C:\Users\Uzair\AppData\Local\Temp\cc1gXnIM.s:9006   .debug_str:0000000000000d24 .LASF518
C:\Users\Uzair\AppData\Local\Temp\cc1gXnIM.s:8696   .debug_str:0000000000000587 .LASF519
C:\Users\Uzair\AppData\Local\Temp\cc1gXnIM.s:9154   .debug_str:00000000000010d0 .LASF520
C:\Users\Uzair\AppData\Local\Temp\cc1gXnIM.s:9270   .debug_str:00000000000013a2 .LASF521
C:\Users\Uzair\AppData\Local\Temp\cc1gXnIM.s:8914   .debug_str:0000000000000ae3 .LASF522
C:\Users\Uzair\AppData\Local\Temp\cc1gXnIM.s:8892   .debug_str:0000000000000a3c .LASF523
C:\Users\Uzair\AppData\Local\Temp\cc1gXnIM.s:8490   .debug_str:000000000000003f .LASF524
C:\Users\Uzair\AppData\Local\Temp\cc1gXnIM.s:9166   .debug_str:0000000000001139 .LASF525
C:\Users\Uzair\AppData\Local\Temp\cc1gXnIM.s:8860   .debug_str:0000000000000985 .LASF526
C:\Users\Uzair\AppData\Local\Temp\cc1gXnIM.s:9360   .debug_str:0000000000001576 .LASF527
C:\Users\Uzair\AppData\Local\Temp\cc1gXnIM.s:9198   .debug_str:0000000000001202 .LASF528
C:\Users\Uzair\AppData\Local\Temp\cc1gXnIM.s:9406   .debug_str:0000000000001694 .LASF529
C:\Users\Uzair\AppData\Local\Temp\cc1gXnIM.s:433    .text.startup.main:0000000000000002 .LCFI9
C:\Users\Uzair\AppData\Local\Temp\cc1gXnIM.s:826    .text.startup.main:0000000000000300 .LVL92
C:\Users\Uzair\AppData\Local\Temp\cc1gXnIM.s:917    .text.startup.main:00000000000003d4 .LVL110
C:\Users\Uzair\AppData\Local\Temp\cc1gXnIM.s:426    .text.startup.main:0000000000000000 .LVL32
C:\Users\Uzair\AppData\Local\Temp\cc1gXnIM.s:573    .text.startup.main:000000000000011c .LVL50
C:\Users\Uzair\AppData\Local\Temp\cc1gXnIM.s:620    .text.startup.main:0000000000000178 .LVL60
C:\Users\Uzair\AppData\Local\Temp\cc1gXnIM.s:661    .text.startup.main:00000000000001a4 .LVL65
C:\Users\Uzair\AppData\Local\Temp\cc1gXnIM.s:924    .text.startup.main:00000000000003e2 .LVL112
C:\Users\Uzair\AppData\Local\Temp\cc1gXnIM.s:722    .text.startup.main:0000000000000234 .LVL79
C:\Users\Uzair\AppData\Local\Temp\cc1gXnIM.s:811    .text.startup.main:00000000000002e4 .LVL89
C:\Users\Uzair\AppData\Local\Temp\cc1gXnIM.s:933    .text.startup.main:00000000000003f2 .LVL114
C:\Users\Uzair\AppData\Local\Temp\cc1gXnIM.s:772    .text.startup.main:000000000000029e .LVL88
C:\Users\Uzair\AppData\Local\Temp\cc1gXnIM.s:609    .text.startup.main:0000000000000168 .LVL57
C:\Users\Uzair\AppData\Local\Temp\cc1gXnIM.s:614    .text.startup.main:000000000000016c .LVL58
C:\Users\Uzair\AppData\Local\Temp\cc1gXnIM.s:734    .text.startup.main:000000000000024a .LVL81
C:\Users\Uzair\AppData\Local\Temp\cc1gXnIM.s:670    .text.startup.main:00000000000001b2 .LVL67
C:\Users\Uzair\AppData\Local\Temp\cc1gXnIM.s:673    .text.startup.main:00000000000001b4 .LVL68
C:\Users\Uzair\AppData\Local\Temp\cc1gXnIM.s:819    .text.startup.main:00000000000002ee .LVL90
C:\Users\Uzair\AppData\Local\Temp\cc1gXnIM.s:740    .text.startup.main:0000000000000256 .LVL82
C:\Users\Uzair\AppData\Local\Temp\cc1gXnIM.s:943    .text.startup.main:0000000000000400 .LVL115
C:\Users\Uzair\AppData\Local\Temp\cc1gXnIM.s:625    .text.startup.main:000000000000017e .LVL61
C:\Users\Uzair\AppData\Local\Temp\cc1gXnIM.s:647    .text.startup.main:000000000000018c .LVL62
C:\Users\Uzair\AppData\Local\Temp\cc1gXnIM.s:355    .text.TIMER1_IRQHandler:0000000000000002 .LCFI5
C:\Users\Uzair\AppData\Local\Temp\cc1gXnIM.s:389    .text.TIMER1_IRQHandler:0000000000000030 .LCFI6
C:\Users\Uzair\AppData\Local\Temp\cc1gXnIM.s:395    .text.TIMER1_IRQHandler:0000000000000038 .LCFI7
C:\Users\Uzair\AppData\Local\Temp\cc1gXnIM.s:401    .text.TIMER1_IRQHandler:000000000000003c .LCFI8
C:\Users\Uzair\AppData\Local\Temp\cc1gXnIM.s:228    .text.interrupt_config:0000000000000002 .LCFI3
C:\Users\Uzair\AppData\Local\Temp\cc1gXnIM.s:338    .text.interrupt_config:00000000000000e2 .LCFI4
C:\Users\Uzair\AppData\Local\Temp\cc1gXnIM.s:52     .text.updateStaticTimer:0000000000000002 .LCFI0
C:\Users\Uzair\AppData\Local\Temp\cc1gXnIM.s:166    .text.updateStaticTimer:0000000000000084 .LCFI1
C:\Users\Uzair\AppData\Local\Temp\cc1gXnIM.s:171    .text.updateStaticTimer:0000000000000086 .LCFI2
C:\Users\Uzair\AppData\Local\Temp\cc1gXnIM.s:50     .text.updateStaticTimer:0000000000000000 .LVL1
C:\Users\Uzair\AppData\Local\Temp\cc1gXnIM.s:67     .text.updateStaticTimer:000000000000000e .LVL3
C:\Users\Uzair\AppData\Local\Temp\cc1gXnIM.s:156    .text.updateStaticTimer:000000000000007c .LVL11
C:\Users\Uzair\AppData\Local\Temp\cc1gXnIM.s:169    .text.updateStaticTimer:0000000000000086 .LVL14
C:\Users\Uzair\AppData\Local\Temp\cc1gXnIM.s:59     .text.updateStaticTimer:0000000000000008 .LVL2
C:\Users\Uzair\AppData\Local\Temp\cc1gXnIM.s:164    .text.updateStaticTimer:0000000000000082 .LVL13
C:\Users\Uzair\AppData\Local\Temp\cc1gXnIM.s:79     .text.updateStaticTimer:000000000000001e .LVL4
C:\Users\Uzair\AppData\Local\Temp\cc1gXnIM.s:128    .text.updateStaticTimer:0000000000000068 .LVL9
C:\Users\Uzair\AppData\Local\Temp\cc1gXnIM.s:195    .text.updateStaticTimer:00000000000000a0 .LVL16
GAS LISTING C:\Users\Uzair\AppData\Local\Temp\cc1gXnIM.s 			page 46


C:\Users\Uzair\AppData\Local\Temp\cc1gXnIM.s:84     .text.updateStaticTimer:0000000000000024 .LVL5
C:\Users\Uzair\AppData\Local\Temp\cc1gXnIM.s:88     .text.updateStaticTimer:000000000000002c .LVL6
C:\Users\Uzair\AppData\Local\Temp\cc1gXnIM.s:161    .text.updateStaticTimer:0000000000000080 .LVL12
C:\Users\Uzair\AppData\Local\Temp\cc1gXnIM.s:147    .text.updateStaticTimer:0000000000000078 .LVL10
C:\Users\Uzair\AppData\Local\Temp\cc1gXnIM.s:179    .text.updateStaticTimer:0000000000000092 .LVL15
C:\Users\Uzair\AppData\Local\Temp\cc1gXnIM.s:1037   .debug_info:0000000000000000 .Ldebug_info0
C:\Users\Uzair\AppData\Local\Temp\cc1gXnIM.s:104    .text.updateStaticTimer:000000000000004e .LBB11
C:\Users\Uzair\AppData\Local\Temp\cc1gXnIM.s:130    .text.updateStaticTimer:0000000000000068 .LBE11
C:\Users\Uzair\AppData\Local\Temp\cc1gXnIM.s:133    .text.updateStaticTimer:000000000000006a .LBB12
C:\Users\Uzair\AppData\Local\Temp\cc1gXnIM.s:149    .text.updateStaticTimer:0000000000000078 .LBE12
C:\Users\Uzair\AppData\Local\Temp\cc1gXnIM.s:173    .text.updateStaticTimer:0000000000000086 .LBB13
C:\Users\Uzair\AppData\Local\Temp\cc1gXnIM.s:180    .text.updateStaticTimer:0000000000000092 .LBE13
C:\Users\Uzair\AppData\Local\Temp\cc1gXnIM.s:532    .text.startup.main:00000000000000dc .LBB17
C:\Users\Uzair\AppData\Local\Temp\cc1gXnIM.s:535    .text.startup.main:00000000000000e0 .LBE17
C:\Users\Uzair\AppData\Local\Temp\cc1gXnIM.s:540    .text.startup.main:00000000000000e8 .LBB26
C:\Users\Uzair\AppData\Local\Temp\cc1gXnIM.s:549    .text.startup.main:00000000000000f4 .LBE26
C:\Users\Uzair\AppData\Local\Temp\cc1gXnIM.s:563    .text.startup.main:000000000000010c .LBB27
C:\Users\Uzair\AppData\Local\Temp\cc1gXnIM.s:576    .text.startup.main:000000000000011c .LBE27
C:\Users\Uzair\AppData\Local\Temp\cc1gXnIM.s:578    .text.startup.main:000000000000011c .LBB28
C:\Users\Uzair\AppData\Local\Temp\cc1gXnIM.s:914    .text.startup.main:00000000000003d2 .LBE28
C:\Users\Uzair\AppData\Local\Temp\cc1gXnIM.s:926    .text.startup.main:00000000000003e2 .LBB29
C:\Users\Uzair\AppData\Local\Temp\cc1gXnIM.s:966    .text.startup.main:0000000000000436 .LBE29
C:\Users\Uzair\AppData\Local\Temp\cc1gXnIM.s:545    .text.startup.main:00000000000000f0 .LBB18
C:\Users\Uzair\AppData\Local\Temp\cc1gXnIM.s:548    .text.startup.main:00000000000000f4 .LBE18
C:\Users\Uzair\AppData\Local\Temp\cc1gXnIM.s:570    .text.startup.main:0000000000000118 .LBB19
C:\Users\Uzair\AppData\Local\Temp\cc1gXnIM.s:575    .text.startup.main:000000000000011c .LBE19
C:\Users\Uzair\AppData\Local\Temp\cc1gXnIM.s:723    .text.startup.main:0000000000000234 .LBB24
C:\Users\Uzair\AppData\Local\Temp\cc1gXnIM.s:813    .text.startup.main:00000000000002e4 .LBE24
C:\Users\Uzair\AppData\Local\Temp\cc1gXnIM.s:935    .text.startup.main:00000000000003f2 .LBB25
C:\Users\Uzair\AppData\Local\Temp\cc1gXnIM.s:965    .text.startup.main:0000000000000436 .LBE25
C:\Users\Uzair\AppData\Local\Temp\cc1gXnIM.s:630    .text.startup.main:000000000000017e .LBE20
C:\Users\Uzair\AppData\Local\Temp\cc1gXnIM.s:634    .text.startup.main:0000000000000184 .LBB23
C:\Users\Uzair\AppData\Local\Temp\cc1gXnIM.s:649    .text.startup.main:000000000000018c .LBE23

UNDEFINED SYMBOLS
__subsf3
__ltsf2
__lesf2
eclic_irq_enable
rcu_periph_clock_enable
timer_deinit
timer_struct_para_init
timer_init
timer_channel_output_struct_para_init
timer_channel_output_config
timer_channel_output_pulse_value_config
timer_channel_output_mode_config
timer_channel_output_shadow_config
timer_interrupt_enable
timer_interrupt_flag_clear
timer_enable
timer_interrupt_flag_get
__extendsfdf2
__muldf3
__truncdfsf2
__fixsfsi
__gtsf2
GAS LISTING C:\Users\Uzair\AppData\Local\Temp\cc1gXnIM.s 			page 47


__divsf3
__addsf3
__fixunssfsi
configure_usb_serial
usb_serial_available
usb_delay_1ms
gpio_init
mpu6500_install
Lcd_SetType
Lcd_Init
LCD_Clear
mpu6500_getAccel
eclic_global_interrupt_enable
atan2
gpio_input_bit_get
gpio_bit_set
delay_1ms
printf
fflush
gpio_bit_reset
Draw_Circle
LCD_DrawLine
memcpy
LCD_Wait_On_Queue
