GAS LISTING C:\Users\Uzair\AppData\Local\Temp\ccqldcL9.s 			page 1


   1              		.file	"main.c"
   2              		.option nopic
   3              		.attribute arch, "rv32i2p0_m2p0_a2p0_c2p0"
   4              		.attribute unaligned_access, 0
   5              		.attribute stack_align, 16
   6              		.text
   7              	.Ltext0:
   8              		.cfi_sections	.debug_frame
   9              		.globl	__extendsfdf2
  10              		.globl	__muldf3
  11              		.globl	__truncdfsf2
  12              		.globl	__gtsf2
  13              		.globl	__ltsf2
  14              		.globl	__divsf3
  15              		.globl	__addsf3
  16              		.globl	__fixunssfsi
  17              		.section	.text.startup.main,"ax",@progbits
  18              		.align	1
  19              		.globl	main
  21              	main:
  22              	.LFB5:
  23              		.file 1 "main.c"
   1:main.c        **** /*!
   2:main.c        ****     \file  main.c
   3:main.c        ****     \brief USB CDC ACM device
   4:main.c        **** 
   5:main.c        ****     \version 2019-6-5, V1.0.0, demo for GD32VF103
   6:main.c        **** */
   7:main.c        **** 
   8:main.c        **** /*
   9:main.c        ****     Copyright (c) 2019, GigaDevice Semiconductor Inc.
  10:main.c        **** 
  11:main.c        ****     Redistribution and use in source and binary forms, with or without modification, 
  12:main.c        **** are permitted provided that the following conditions are met:
  13:main.c        **** 
  14:main.c        ****     1. Redistributions of source code must retain the above copyright notice, this 
  15:main.c        ****        list of conditions and the following disclaimer.
  16:main.c        ****     2. Redistributions in binary form must reproduce the above copyright notice, 
  17:main.c        ****        this list of conditions and the following disclaimer in the documentation 
  18:main.c        ****        and/or other materials provided with the distribution.
  19:main.c        ****     3. Neither the name of the copyright holder nor the names of its contributors 
  20:main.c        ****        may be used to endorse or promote products derived from this software without 
  21:main.c        ****        specific prior written permission.
  22:main.c        **** 
  23:main.c        ****     THIS SOFTWARE IS PROVIDED BY THE COPYRIGHT HOLDERS AND CONTRIBUTORS "AS IS" 
  24:main.c        **** AND ANY EXPRESS OR IMPLIED WARRANTIES, INCLUDING, BUT NOT LIMITED TO, THE IMPLIED 
  25:main.c        **** WARRANTIES OF MERCHANTABILITY AND FITNESS FOR A PARTICULAR PURPOSE ARE DISCLAIMED. 
  26:main.c        **** IN NO EVENT SHALL THE COPYRIGHT HOLDER OR CONTRIBUTORS BE LIABLE FOR ANY DIRECT, 
  27:main.c        **** INDIRECT, INCIDENTAL, SPECIAL, EXEMPLARY, OR CONSEQUENTIAL DAMAGES (INCLUDING, BUT 
  28:main.c        **** NOT LIMITED TO, PROCUREMENT OF SUBSTITUTE GOODS OR SERVICES; LOSS OF USE, DATA, OR 
  29:main.c        **** PROFITS; OR BUSINESS INTERRUPTION) HOWEVER CAUSED AND ON ANY THEORY OF LIABILITY, 
  30:main.c        **** WHETHER IN CONTRACT, STRICT LIABILITY, OR TORT (INCLUDING NEGLIGENCE OR OTHERWISE) 
  31:main.c        **** ARISING IN ANY WAY OUT OF THE USE OF THIS SOFTWARE, EVEN IF ADVISED OF THE POSSIBILITY 
  32:main.c        **** OF SUCH DAMAGE.
  33:main.c        **** */
  34:main.c        **** 
  35:main.c        **** #include <math.h>
GAS LISTING C:\Users\Uzair\AppData\Local\Temp\ccqldcL9.s 			page 2


  36:main.c        **** #include "gd32vf103.h"
  37:main.c        **** #include "lcd.h"
  38:main.c        **** #include "delay.h"
  39:main.c        **** #include "gd32v_mpu6500_if.h"
  40:main.c        **** 
  41:main.c        **** 
  42:main.c        **** #define GRAPH_HEIGHT    30
  43:main.c        **** 
  44:main.c        **** #define VIBRATOR_PIN GPIO_PIN_5
  45:main.c        **** 
  46:main.c        **** int main(void)
  47:main.c        **** {
  24              		.loc 1 47 1
  25              		.cfi_startproc
  48:main.c        ****     /* The related data structure for the IMU, contains a vector of x, y, z floats*/
  49:main.c        ****     mpu_vector_t vec, vec_temp;
  26              		.loc 1 49 5
  50:main.c        ****     /* for lcd */
  51:main.c        ****     uint16_t line_color;
  27              		.loc 1 51 5
  52:main.c        **** 
  53:main.c        **** 
  54:main.c        **** 
  55:main.c        ****     rcu_periph_clock_enable(RCU_GPIOB);
  28              		.loc 1 55 5
  47:main.c        ****     /* The related data structure for the IMU, contains a vector of x, y, z floats*/
  29              		.loc 1 47 1 is_stmt 0
  30 0000 1D71     		addi	sp,sp,-96
  31              	.LCFI0:
  32              		.cfi_def_cfa_offset 96
  33              		.loc 1 55 5
  34 0002 13053060 		li	a0,1539
  47:main.c        ****     /* The related data structure for the IMU, contains a vector of x, y, z floats*/
  35              		.loc 1 47 1
  36 0006 86CE     		sw	ra,92(sp)
  37 0008 A2CC     		sw	s0,88(sp)
  38 000a A6CA     		sw	s1,84(sp)
  39              		.cfi_offset 1, -4
  40              		.cfi_offset 8, -8
  41              		.cfi_offset 9, -12
  56:main.c        ****     gpio_init(GPIOB, GPIO_MODE_OUT_PP, GPIO_OSPEED_50MHZ, GPIO_PIN_0);
  42              		.loc 1 56 5
  43 000c 37140140 		li	s0,1073811456
  47:main.c        ****     /* The related data structure for the IMU, contains a vector of x, y, z floats*/
  44              		.loc 1 47 1
  45 0010 CAC8     		sw	s2,80(sp)
  46 0012 CEC6     		sw	s3,76(sp)
  47 0014 D2C4     		sw	s4,72(sp)
  48 0016 D6C2     		sw	s5,68(sp)
  49 0018 DAC0     		sw	s6,64(sp)
  50 001a 5EDE     		sw	s7,60(sp)
  51 001c 62DC     		sw	s8,56(sp)
  52 001e 66DA     		sw	s9,52(sp)
  53              		.cfi_offset 18, -16
  54              		.cfi_offset 19, -20
  55              		.cfi_offset 20, -24
  56              		.cfi_offset 21, -28
GAS LISTING C:\Users\Uzair\AppData\Local\Temp\ccqldcL9.s 			page 3


  57              		.cfi_offset 22, -32
  58              		.cfi_offset 23, -36
  59              		.cfi_offset 24, -40
  60              		.cfi_offset 25, -44
  55:main.c        ****     gpio_init(GPIOB, GPIO_MODE_OUT_PP, GPIO_OSPEED_50MHZ, GPIO_PIN_0);
  61              		.loc 1 55 5
  62 0020 97000000 		call	rcu_periph_clock_enable
  62      E7800000 
  63              	.LVL0:
  64              		.loc 1 56 5 is_stmt 1
  65 0028 8546     		li	a3,1
  66 002a 0D46     		li	a2,3
  67 002c C145     		li	a1,16
  68 002e 130504C0 		addi	a0,s0,-1024
  69 0032 97000000 		call	gpio_init
  69      E7800000 
  70              	.LVL1:
  57:main.c        **** 
  58:main.c        ****     rcu_periph_clock_enable(RCU_GPIOB);
  71              		.loc 1 58 5
  72 003a 13053060 		li	a0,1539
  73 003e 97000000 		call	rcu_periph_clock_enable
  73      E7800000 
  74              	.LVL2:
  59:main.c        ****     gpio_init(GPIOB, GPIO_MODE_OUT_PP, GPIO_OSPEED_50MHZ, VIBRATOR_PIN);
  75              		.loc 1 59 5
  76 0046 93060002 		li	a3,32
  77 004a 0D46     		li	a2,3
  78 004c C145     		li	a1,16
  79 004e 130504C0 		addi	a0,s0,-1024
  80 0052 97000000 		call	gpio_init
  80      E7800000 
  81              	.LVL3:
  60:main.c        **** 
  61:main.c        ****     /* Initialize pins for I2C */
  62:main.c        ****     rcu_periph_clock_enable(RCU_GPIOB);
  82              		.loc 1 62 5
  83 005a 13053060 		li	a0,1539
  84 005e 97000000 		call	rcu_periph_clock_enable
  84      E7800000 
  85              	.LVL4:
  63:main.c        ****     rcu_periph_clock_enable(RCU_I2C0);
  86              		.loc 1 63 5
  87 0066 13055071 		li	a0,1813
  88 006a 97000000 		call	rcu_periph_clock_enable
  88      E7800000 
  89              	.LVL5:
  64:main.c        ****     gpio_init(GPIOB, GPIO_MODE_AF_OD, GPIO_OSPEED_50MHZ, GPIO_PIN_6 | GPIO_PIN_7);
  90              		.loc 1 64 5
  91 0072 9306000C 		li	a3,192
  92 0076 0D46     		li	a2,3
  93 0078 F145     		li	a1,28
  94 007a 130504C0 		addi	a0,s0,-1024
  95 007e 97000000 		call	gpio_init
  95      E7800000 
  96              	.LVL6:
  65:main.c        ****     /* Initialize the IMU (Notice that MPU6500 is referenced, this is due to the fact that ICM-2060
GAS LISTING C:\Users\Uzair\AppData\Local\Temp\ccqldcL9.s 			page 4


  66:main.c        ****        ICM-20600 is mostly register compatible with MPU6500, if MPU6500 is used only thing that nee
  67:main.c        ****        to change is MPU6500_WHO_AM_I_ID from 0x11 to 0x70. */
  68:main.c        ****     mpu6500_install(I2C0);
  97              		.loc 1 68 5
  98 0086 37550040 		li	a0,1073762304
  99 008a 13050540 		addi	a0,a0,1024
 100 008e 97000000 		call	mpu6500_install
 100      E7800000 
 101              	.LVL7:
  69:main.c        ****     
  70:main.c        ****     /* Initialize LCD */
  71:main.c        ****     Lcd_SetType(LCD_INVERTED);
 102              		.loc 1 71 5
 103 0096 0545     		li	a0,1
 104 0098 97000000 		call	Lcd_SetType
 104      E7800000 
 105              	.LVL8:
  72:main.c        ****     Lcd_Init();
 106              		.loc 1 72 5
 107 00a0 97000000 		call	Lcd_Init
 107      E7800000 
 108              	.LVL9:
  73:main.c        ****     LCD_Clear(BLACK);
 109              		.loc 1 73 5
 110 00a8 0145     		li	a0,0
 111 00aa 97000000 		call	LCD_Clear
 111      E7800000 
 112              	.LVL10:
  74:main.c        ****     
  75:main.c        ****     mpu6500_getAccel(&vec_temp);
 113              		.loc 1 75 5
 114 00b2 4810     		addi	a0,sp,36
 115 00b4 97000000 		call	mpu6500_getAccel
 115      E7800000 
 116              	.LVL11:
 117              	.LBB2:
  76:main.c        ****     
  77:main.c        ****     while(1){
  78:main.c        ****         /* Get accelleration data (Note: Blocking read) puts a force vector with 1G = 4096 into x, 
  79:main.c        ****         //gpio_bit_set(GPIOB, GPIO_PIN_0);
  80:main.c        ****         
  81:main.c        ****         mpu6500_getAccel(&vec);
  82:main.c        **** 
  83:main.c        ****         float vinkel = -atan2(vec.y, vec.z) * (180.0 / M_PI);
 118              		.loc 1 83 45 is_stmt 0
 119 00bc B7070000 		lui	a5,%hi(.LC0)
 120 00c0 03AA0700 		lw	s4,%lo(.LC0)(a5)
 121 00c4 83AA4700 		lw	s5,%lo(.LC0+4)(a5)
  84:main.c        **** 
  85:main.c        ****         
  86:main.c        ****         if (vinkel > 65.0) {
  87:main.c        ****             /* If the angle is greater than 20 degrees, turn on the LED */
  88:main.c        ****             gpio_bit_reset(GPIOB, GPIO_PIN_0);
  89:main.c        ****             gpio_bit_reset(GPIOB, VIBRATOR_PIN);
  90:main.c        ****         } else {
  91:main.c        ****                /* Otherwise, turn off the LED */
  92:main.c        ****             gpio_bit_set(GPIOB, GPIO_PIN_0);
GAS LISTING C:\Users\Uzair\AppData\Local\Temp\ccqldcL9.s 			page 5


  93:main.c        ****             gpio_bit_set(GPIOB, VIBRATOR_PIN);
  94:main.c        ****         }
  95:main.c        ****         
  96:main.c        ****   
  97:main.c        ****         //gpio_bit_set(GPIOB, VIBRATOR_PIN);
  98:main.c        **** 
  99:main.c        **** 
 100:main.c        ****         /* Do some fancy math to make a nice display */
 101:main.c        **** 
 102:main.c        ****         /* Green if pointing up, red if down */
 103:main.c        ****         line_color = (vec.z < 0) ? RED : GREEN;
 104:main.c        ****         /* Draw a unit circle (1G) */
 105:main.c        ****         Draw_Circle(160/2, 80/2, 28, BLUE);
 106:main.c        ****         /* Erase last line */
 107:main.c        ****         LCD_DrawLine(160/2, 80/2, (160/2)+(vec_temp.y)/(4096/28), (80/2)+(vec_temp.x/(4096/28)),BLA
 122              		.loc 1 107 85
 123 00c8 B7040000 		lui	s1,%hi(.LC2)
  86:main.c        ****             /* If the angle is greater than 20 degrees, turn on the LED */
 124              		.loc 1 86 12
 125 00cc B7070000 		lui	a5,%hi(.LC1)
 126              		.loc 1 107 73
 127 00d0 B7090000 		lui	s3,%hi(.LC3)
 128              		.loc 1 107 42
 129 00d4 37090000 		lui	s2,%hi(.LC4)
  86:main.c        ****             /* If the angle is greater than 20 degrees, turn on the LED */
 130              		.loc 1 86 12
 131 00d8 83AC0700 		lw	s9,%lo(.LC1)(a5)
 132              		.loc 1 107 85
 133 00dc 03AC0400 		lw	s8,%lo(.LC2)(s1)
 134              		.loc 1 107 73
 135 00e0 83AB0900 		lw	s7,%lo(.LC3)(s3)
 136              		.loc 1 107 42
 137 00e4 032B0900 		lw	s6,%lo(.LC4)(s2)
 138              	.L6:
 139              	.LBE2:
  77:main.c        ****         /* Get accelleration data (Note: Blocking read) puts a force vector with 1G = 4096 into x, 
 140              		.loc 1 77 5 is_stmt 1
 141              	.LBB3:
  81:main.c        **** 
 142              		.loc 1 81 9
 143 00e8 2808     		addi	a0,sp,24
 144 00ea 97000000 		call	mpu6500_getAccel
 144      E7800000 
 145              	.LVL12:
  83:main.c        **** 
 146              		.loc 1 83 9
  83:main.c        **** 
 147              		.loc 1 83 25 is_stmt 0
 148 00f2 0255     		lw	a0,32(sp)
  88:main.c        ****             gpio_bit_reset(GPIOB, VIBRATOR_PIN);
 149              		.loc 1 88 13
 150 00f4 37140140 		li	s0,1073811456
  83:main.c        **** 
 151              		.loc 1 83 25
 152 00f8 97000000 		call	__extendsfdf2
 152      E7800000 
 153              	.LVL13:
GAS LISTING C:\Users\Uzair\AppData\Local\Temp\ccqldcL9.s 			page 6


 154 0100 2AC4     		sw	a0,8(sp)
 155 0102 7245     		lw	a0,28(sp)
 156 0104 2EC6     		sw	a1,12(sp)
 157 0106 97000000 		call	__extendsfdf2
 157      E7800000 
 158              	.LVL14:
 159 010e 2246     		lw	a2,8(sp)
 160 0110 B246     		lw	a3,12(sp)
 161 0112 97000000 		call	atan2
 161      E7800000 
 162              	.LVL15:
  86:main.c        ****             /* If the angle is greater than 20 degrees, turn on the LED */
 163              		.loc 1 86 9 is_stmt 1
  83:main.c        **** 
 164              		.loc 1 83 45 is_stmt 0
 165 011a B7070080 		li	a5,-2147483648
 166 011e AD8F     		xor	a5,a5,a1
 167 0120 5286     		mv	a2,s4
 168 0122 D686     		mv	a3,s5
 169 0124 BE85     		mv	a1,a5
 170              	.LVL16:
 171 0126 97000000 		call	__muldf3
 171      E7800000 
 172              	.LVL17:
  83:main.c        **** 
 173              		.loc 1 83 15
 174 012e 97000000 		call	__truncdfsf2
 174      E7800000 
 175              	.LVL18:
  86:main.c        ****             /* If the angle is greater than 20 degrees, turn on the LED */
 176              		.loc 1 86 12
 177 0136 E685     		mv	a1,s9
 178 0138 97000000 		call	__gtsf2
 178      E7800000 
 179              	.LVL19:
  88:main.c        ****             gpio_bit_reset(GPIOB, VIBRATOR_PIN);
 180              		.loc 1 88 13
 181 0140 8545     		li	a1,1
  86:main.c        ****             /* If the angle is greater than 20 degrees, turn on the LED */
 182              		.loc 1 86 12
 183 0142 635DA010 		ble	a0,zero,.L9
  88:main.c        ****             gpio_bit_reset(GPIOB, VIBRATOR_PIN);
 184              		.loc 1 88 13 is_stmt 1
 185 0146 130504C0 		addi	a0,s0,-1024
 186 014a 97000000 		call	gpio_bit_reset
 186      E7800000 
 187              	.LVL20:
  89:main.c        ****         } else {
 188              		.loc 1 89 13
 189 0152 93050002 		li	a1,32
 190 0156 130504C0 		addi	a0,s0,-1024
 191 015a 97000000 		call	gpio_bit_reset
 191      E7800000 
 192              	.LVL21:
 193              	.L4:
 103:main.c        ****         /* Draw a unit circle (1G) */
 194              		.loc 1 103 9
GAS LISTING C:\Users\Uzair\AppData\Local\Temp\ccqldcL9.s 			page 7


 103:main.c        ****         /* Draw a unit circle (1G) */
 195              		.loc 1 103 20 is_stmt 0
 196 0162 0255     		lw	a0,32(sp)
 197 0164 93050000 		mv	a1,zero
 198 0168 1304007E 		li	s0,2016
 199 016c 97000000 		call	__ltsf2
 199      E7800000 
 200              	.LVL22:
 201 0174 63550500 		bge	a0,zero,.L5
 202 0178 4164     		li	s0,65536
 203 017a 13040480 		addi	s0,s0,-2048
 204              	.L5:
 205              	.LVL23:
 105:main.c        ****         /* Erase last line */
 206              		.loc 1 105 9 is_stmt 1 discriminator 4
 207 017e FD46     		li	a3,31
 208 0180 7146     		li	a2,28
 209 0182 93058002 		li	a1,40
 210 0186 13050005 		li	a0,80
 211 018a 97000000 		call	Draw_Circle
 211      E7800000 
 212              	.LVL24:
 213              		.loc 1 107 9 discriminator 4
 214              		.loc 1 107 85 is_stmt 0 discriminator 4
 215 0192 1255     		lw	a0,36(sp)
 216 0194 E285     		mv	a1,s8
 217 0196 97000000 		call	__divsf3
 217      E7800000 
 218              	.LVL25:
 219              		.loc 1 107 73 discriminator 4
 220 019e DE85     		mv	a1,s7
 221 01a0 97000000 		call	__addsf3
 221      E7800000 
 222              	.LVL26:
 223              		.loc 1 107 9 discriminator 4
 224 01a8 97000000 		call	__fixunssfsi
 224      E7800000 
 225              	.LVL27:
 226              		.loc 1 107 55 discriminator 4
 227 01b0 83A50400 		lw	a1,%lo(.LC2)(s1)
 228              		.loc 1 107 9 discriminator 4
 229 01b4 2AC4     		sw	a0,8(sp)
 230              		.loc 1 107 55 discriminator 4
 231 01b6 2255     		lw	a0,40(sp)
 232 01b8 97000000 		call	__divsf3
 232      E7800000 
 233              	.LVL28:
 234              		.loc 1 107 42 discriminator 4
 235 01c0 DA85     		mv	a1,s6
 236 01c2 97000000 		call	__addsf3
 236      E7800000 
 237              	.LVL29:
 238              		.loc 1 107 9 discriminator 4
 239 01ca 97000000 		call	__fixunssfsi
 239      E7800000 
 240              	.LVL30:
 241 01d2 A246     		lw	a3,8(sp)
GAS LISTING C:\Users\Uzair\AppData\Local\Temp\ccqldcL9.s 			page 8


 242 01d4 2A86     		mv	a2,a0
 243 01d6 0147     		li	a4,0
 244 01d8 93058002 		li	a1,40
 245 01dc 13050005 		li	a0,80
 246 01e0 97000000 		call	LCD_DrawLine
 246      E7800000 
 247              	.LVL31:
 108:main.c        ****         /* Draw new line, scaled to the unit circle */
 109:main.c        ****         LCD_DrawLine(160/2, 80/2, (160/2)+(vec.y)/(4096/28), (80/2)+(vec.x/(4096/28)),line_color);
 248              		.loc 1 109 9 is_stmt 1 discriminator 4
 249              		.loc 1 109 75 is_stmt 0 discriminator 4
 250 01e8 83A50400 		lw	a1,%lo(.LC2)(s1)
 251 01ec 6245     		lw	a0,24(sp)
 252 01ee 97000000 		call	__divsf3
 252      E7800000 
 253              	.LVL32:
 254              		.loc 1 109 68 discriminator 4
 255 01f6 83A50900 		lw	a1,%lo(.LC3)(s3)
 256 01fa 97000000 		call	__addsf3
 256      E7800000 
 257              	.LVL33:
 258              		.loc 1 109 9 discriminator 4
 259 0202 97000000 		call	__fixunssfsi
 259      E7800000 
 260              	.LVL34:
 261              		.loc 1 109 50 discriminator 4
 262 020a 83A50400 		lw	a1,%lo(.LC2)(s1)
 263              		.loc 1 109 9 discriminator 4
 264 020e 2AC4     		sw	a0,8(sp)
 265              		.loc 1 109 50 discriminator 4
 266 0210 7245     		lw	a0,28(sp)
 267 0212 97000000 		call	__divsf3
 267      E7800000 
 268              	.LVL35:
 269              		.loc 1 109 42 discriminator 4
 270 021a 83250900 		lw	a1,%lo(.LC4)(s2)
 271 021e 97000000 		call	__addsf3
 271      E7800000 
 272              	.LVL36:
 273              		.loc 1 109 9 discriminator 4
 274 0226 97000000 		call	__fixunssfsi
 274      E7800000 
 275              	.LVL37:
 276 022e A246     		lw	a3,8(sp)
 277 0230 2287     		mv	a4,s0
 278 0232 2A86     		mv	a2,a0
 279 0234 93058002 		li	a1,40
 280 0238 13050005 		li	a0,80
 281 023c 97000000 		call	LCD_DrawLine
 281      E7800000 
 282              	.LVL38:
 110:main.c        ****         /* Store the last vector so it can be erased */
 111:main.c        ****         vec_temp = vec;
 283              		.loc 1 111 9 is_stmt 1 discriminator 4
 284              		.loc 1 111 18 is_stmt 0 discriminator 4
 285 0244 3146     		li	a2,12
 286 0246 2C08     		addi	a1,sp,24
GAS LISTING C:\Users\Uzair\AppData\Local\Temp\ccqldcL9.s 			page 9


 287 0248 4810     		addi	a0,sp,36
 288 024a 97000000 		call	memcpy
 288      E7800000 
 289              	.LVL39:
 112:main.c        ****         /* Wait for LCD to finish drawing */
 113:main.c        ****         LCD_Wait_On_Queue();
 290              		.loc 1 113 9 is_stmt 1 discriminator 4
 291 0252 97000000 		call	LCD_Wait_On_Queue
 291      E7800000 
 292              	.LVL40:
 293              	.LBE3:
  77:main.c        ****         /* Get accelleration data (Note: Blocking read) puts a force vector with 1G = 4096 into x, 
 294              		.loc 1 77 13 is_stmt 0 discriminator 4
 295 025a 79B5     		j	.L6
 296              	.LVL41:
 297              	.L9:
 298              	.LBB4:
  92:main.c        ****             gpio_bit_set(GPIOB, VIBRATOR_PIN);
 299              		.loc 1 92 13 is_stmt 1
 300 025c 130504C0 		addi	a0,s0,-1024
 301 0260 97000000 		call	gpio_bit_set
 301      E7800000 
 302              	.LVL42:
  93:main.c        ****         }
 303              		.loc 1 93 13
 304 0268 93050002 		li	a1,32
 305 026c 130504C0 		addi	a0,s0,-1024
 306 0270 97000000 		call	gpio_bit_set
 306      E7800000 
 307              	.LVL43:
 308 0278 EDB5     		j	.L4
 309              	.LBE4:
 310              		.cfi_endproc
 311              	.LFE5:
 313              		.section	.rodata.main.cst4,"aM",@progbits,4
 314              		.align	2
 315              	.LC1:
 316 0000 00008242 		.word	1115815936
 317              	.LC2:
 318 0004 00001243 		.word	1125253120
 319              	.LC3:
 320 0008 00002042 		.word	1109393408
 321              	.LC4:
 322 000c 0000A042 		.word	1117782016
 323              		.section	.rodata.main.cst8,"aM",@progbits,8
 324              		.align	3
 325              	.LC0:
 326 0000 F8C1631A 		.word	442745336
 327 0004 DCA54C40 		.word	1078765020
 328              		.text
 329              	.Letext0:
 330              		.file 2 "c:\\kth\\he1043\\toolchain-gd32v-v202-win\\toolchain-gd32v-v202-win\\compiler\\lib\\gcc\\
 331              		.file 3 "c:\\kth\\he1043\\toolchain-gd32v-v202-win\\toolchain-gd32v-v202-win\\compiler\\riscv64-un
 332              		.file 4 "c:\\kth\\he1043\\toolchain-gd32v-v202-win\\toolchain-gd32v-v202-win\\compiler\\riscv64-un
 333              		.file 5 "c:\\kth\\he1043\\toolchain-gd32v-v202-win\\toolchain-gd32v-v202-win\\compiler\\riscv64-un
 334              		.file 6 "c:\\kth\\he1043\\toolchain-gd32v-v202-win\\toolchain-gd32v-v202-win\\compiler\\riscv64-un
 335              		.file 7 "c:\\kth\\he1043\\toolchain-gd32v-v202-win\\toolchain-gd32v-v202-win\\compiler\\riscv64-un
GAS LISTING C:\Users\Uzair\AppData\Local\Temp\ccqldcL9.s 			page 10


 336              		.file 8 "c:\\kth\\he1043\\toolchain-gd32v-v202-win\\toolchain-gd32v-v202-win\\compiler\\riscv64-un
 337              		.file 9 "./../../firmware/GD32VF103_standard_peripheral/system_gd32vf103.h"
 338              		.file 10 "c:\\kth\\he1043\\toolchain-gd32v-v202-win\\toolchain-gd32v-v202-win\\compiler\\riscv64-u
 339              		.file 11 "lcd.h"
 340              		.file 12 "mpu6500_driver.h"
 341              		.file 13 "./../../firmware/GD32VF103_standard_peripheral/Include/gd32vf103_gpio.h"
 342              		.file 14 "./../../firmware/GD32VF103_standard_peripheral/Include/gd32vf103_rcu.h"
 343              		.file 15 "gd32v_mpu6500_if.h"
 344              		.file 16 "<built-in>"
GAS LISTING C:\Users\Uzair\AppData\Local\Temp\ccqldcL9.s 			page 11


DEFINED SYMBOLS
                            *ABS*:0000000000000000 main.c
C:\Users\Uzair\AppData\Local\Temp\ccqldcL9.s:21     .text.startup.main:0000000000000000 main
C:\Users\Uzair\AppData\Local\Temp\ccqldcL9.s:25     .text.startup.main:0000000000000000 .L0 
C:\Users\Uzair\AppData\Local\Temp\ccqldcL9.s:26     .text.startup.main:0000000000000000 .L0 
C:\Users\Uzair\AppData\Local\Temp\ccqldcL9.s:27     .text.startup.main:0000000000000000 .L0 
C:\Users\Uzair\AppData\Local\Temp\ccqldcL9.s:28     .text.startup.main:0000000000000000 .L0 
C:\Users\Uzair\AppData\Local\Temp\ccqldcL9.s:29     .text.startup.main:0000000000000000 .L0 
C:\Users\Uzair\AppData\Local\Temp\ccqldcL9.s:30     .text.startup.main:0000000000000000 .L0 
C:\Users\Uzair\AppData\Local\Temp\ccqldcL9.s:32     .text.startup.main:0000000000000002 .L0 
C:\Users\Uzair\AppData\Local\Temp\ccqldcL9.s:34     .text.startup.main:0000000000000002 .L0 
C:\Users\Uzair\AppData\Local\Temp\ccqldcL9.s:36     .text.startup.main:0000000000000006 .L0 
C:\Users\Uzair\AppData\Local\Temp\ccqldcL9.s:39     .text.startup.main:000000000000000c .L0 
C:\Users\Uzair\AppData\Local\Temp\ccqldcL9.s:40     .text.startup.main:000000000000000c .L0 
C:\Users\Uzair\AppData\Local\Temp\ccqldcL9.s:41     .text.startup.main:000000000000000c .L0 
C:\Users\Uzair\AppData\Local\Temp\ccqldcL9.s:43     .text.startup.main:000000000000000c .L0 
C:\Users\Uzair\AppData\Local\Temp\ccqldcL9.s:45     .text.startup.main:0000000000000010 .L0 
C:\Users\Uzair\AppData\Local\Temp\ccqldcL9.s:53     .text.startup.main:0000000000000020 .L0 
C:\Users\Uzair\AppData\Local\Temp\ccqldcL9.s:54     .text.startup.main:0000000000000020 .L0 
C:\Users\Uzair\AppData\Local\Temp\ccqldcL9.s:55     .text.startup.main:0000000000000020 .L0 
C:\Users\Uzair\AppData\Local\Temp\ccqldcL9.s:56     .text.startup.main:0000000000000020 .L0 
C:\Users\Uzair\AppData\Local\Temp\ccqldcL9.s:57     .text.startup.main:0000000000000020 .L0 
C:\Users\Uzair\AppData\Local\Temp\ccqldcL9.s:58     .text.startup.main:0000000000000020 .L0 
C:\Users\Uzair\AppData\Local\Temp\ccqldcL9.s:59     .text.startup.main:0000000000000020 .L0 
C:\Users\Uzair\AppData\Local\Temp\ccqldcL9.s:60     .text.startup.main:0000000000000020 .L0 
C:\Users\Uzair\AppData\Local\Temp\ccqldcL9.s:62     .text.startup.main:0000000000000020 .L0 
C:\Users\Uzair\AppData\Local\Temp\ccqldcL9.s:65     .text.startup.main:0000000000000028 .L0 
C:\Users\Uzair\AppData\Local\Temp\ccqldcL9.s:72     .text.startup.main:000000000000003a .L0 
C:\Users\Uzair\AppData\Local\Temp\ccqldcL9.s:76     .text.startup.main:0000000000000046 .L0 
C:\Users\Uzair\AppData\Local\Temp\ccqldcL9.s:83     .text.startup.main:000000000000005a .L0 
C:\Users\Uzair\AppData\Local\Temp\ccqldcL9.s:87     .text.startup.main:0000000000000066 .L0 
C:\Users\Uzair\AppData\Local\Temp\ccqldcL9.s:91     .text.startup.main:0000000000000072 .L0 
C:\Users\Uzair\AppData\Local\Temp\ccqldcL9.s:98     .text.startup.main:0000000000000086 .L0 
C:\Users\Uzair\AppData\Local\Temp\ccqldcL9.s:103    .text.startup.main:0000000000000096 .L0 
C:\Users\Uzair\AppData\Local\Temp\ccqldcL9.s:107    .text.startup.main:00000000000000a0 .L0 
C:\Users\Uzair\AppData\Local\Temp\ccqldcL9.s:110    .text.startup.main:00000000000000a8 .L0 
C:\Users\Uzair\AppData\Local\Temp\ccqldcL9.s:114    .text.startup.main:00000000000000b2 .L0 
C:\Users\Uzair\AppData\Local\Temp\ccqldcL9.s:119    .text.startup.main:00000000000000bc .L0 
C:\Users\Uzair\AppData\Local\Temp\ccqldcL9.s:123    .text.startup.main:00000000000000c8 .L0 
C:\Users\Uzair\AppData\Local\Temp\ccqldcL9.s:125    .text.startup.main:00000000000000cc .L0 
C:\Users\Uzair\AppData\Local\Temp\ccqldcL9.s:127    .text.startup.main:00000000000000d0 .L0 
C:\Users\Uzair\AppData\Local\Temp\ccqldcL9.s:129    .text.startup.main:00000000000000d4 .L0 
C:\Users\Uzair\AppData\Local\Temp\ccqldcL9.s:131    .text.startup.main:00000000000000d8 .L0 
C:\Users\Uzair\AppData\Local\Temp\ccqldcL9.s:133    .text.startup.main:00000000000000dc .L0 
C:\Users\Uzair\AppData\Local\Temp\ccqldcL9.s:135    .text.startup.main:00000000000000e0 .L0 
C:\Users\Uzair\AppData\Local\Temp\ccqldcL9.s:137    .text.startup.main:00000000000000e4 .L0 
C:\Users\Uzair\AppData\Local\Temp\ccqldcL9.s:142    .text.startup.main:00000000000000e8 .L0 
C:\Users\Uzair\AppData\Local\Temp\ccqldcL9.s:143    .text.startup.main:00000000000000e8 .L0 
C:\Users\Uzair\AppData\Local\Temp\ccqldcL9.s:147    .text.startup.main:00000000000000f2 .L0 
C:\Users\Uzair\AppData\Local\Temp\ccqldcL9.s:148    .text.startup.main:00000000000000f2 .L0 
C:\Users\Uzair\AppData\Local\Temp\ccqldcL9.s:150    .text.startup.main:00000000000000f4 .L0 
C:\Users\Uzair\AppData\Local\Temp\ccqldcL9.s:152    .text.startup.main:00000000000000f8 .L0 
C:\Users\Uzair\AppData\Local\Temp\ccqldcL9.s:164    .text.startup.main:000000000000011a .L0 
C:\Users\Uzair\AppData\Local\Temp\ccqldcL9.s:165    .text.startup.main:000000000000011a .L0 
C:\Users\Uzair\AppData\Local\Temp\ccqldcL9.s:174    .text.startup.main:000000000000012e .L0 
C:\Users\Uzair\AppData\Local\Temp\ccqldcL9.s:177    .text.startup.main:0000000000000136 .L0 
C:\Users\Uzair\AppData\Local\Temp\ccqldcL9.s:181    .text.startup.main:0000000000000140 .L0 
GAS LISTING C:\Users\Uzair\AppData\Local\Temp\ccqldcL9.s 			page 12


C:\Users\Uzair\AppData\Local\Temp\ccqldcL9.s:183    .text.startup.main:0000000000000142 .L0 
C:\Users\Uzair\AppData\Local\Temp\ccqldcL9.s:185    .text.startup.main:0000000000000146 .L0 
C:\Users\Uzair\AppData\Local\Temp\ccqldcL9.s:189    .text.startup.main:0000000000000152 .L0 
C:\Users\Uzair\AppData\Local\Temp\ccqldcL9.s:195    .text.startup.main:0000000000000162 .L0 
C:\Users\Uzair\AppData\Local\Temp\ccqldcL9.s:196    .text.startup.main:0000000000000162 .L0 
C:\Users\Uzair\AppData\Local\Temp\ccqldcL9.s:207    .text.startup.main:000000000000017e .L0 
C:\Users\Uzair\AppData\Local\Temp\ccqldcL9.s:214    .text.startup.main:0000000000000192 .L0 
C:\Users\Uzair\AppData\Local\Temp\ccqldcL9.s:215    .text.startup.main:0000000000000192 .L0 
C:\Users\Uzair\AppData\Local\Temp\ccqldcL9.s:220    .text.startup.main:000000000000019e .L0 
C:\Users\Uzair\AppData\Local\Temp\ccqldcL9.s:224    .text.startup.main:00000000000001a8 .L0 
C:\Users\Uzair\AppData\Local\Temp\ccqldcL9.s:227    .text.startup.main:00000000000001b0 .L0 
C:\Users\Uzair\AppData\Local\Temp\ccqldcL9.s:229    .text.startup.main:00000000000001b4 .L0 
C:\Users\Uzair\AppData\Local\Temp\ccqldcL9.s:231    .text.startup.main:00000000000001b6 .L0 
C:\Users\Uzair\AppData\Local\Temp\ccqldcL9.s:235    .text.startup.main:00000000000001c0 .L0 
C:\Users\Uzair\AppData\Local\Temp\ccqldcL9.s:239    .text.startup.main:00000000000001ca .L0 
C:\Users\Uzair\AppData\Local\Temp\ccqldcL9.s:249    .text.startup.main:00000000000001e8 .L0 
C:\Users\Uzair\AppData\Local\Temp\ccqldcL9.s:250    .text.startup.main:00000000000001e8 .L0 
C:\Users\Uzair\AppData\Local\Temp\ccqldcL9.s:255    .text.startup.main:00000000000001f6 .L0 
C:\Users\Uzair\AppData\Local\Temp\ccqldcL9.s:259    .text.startup.main:0000000000000202 .L0 
C:\Users\Uzair\AppData\Local\Temp\ccqldcL9.s:262    .text.startup.main:000000000000020a .L0 
C:\Users\Uzair\AppData\Local\Temp\ccqldcL9.s:264    .text.startup.main:000000000000020e .L0 
C:\Users\Uzair\AppData\Local\Temp\ccqldcL9.s:266    .text.startup.main:0000000000000210 .L0 
C:\Users\Uzair\AppData\Local\Temp\ccqldcL9.s:270    .text.startup.main:000000000000021a .L0 
C:\Users\Uzair\AppData\Local\Temp\ccqldcL9.s:274    .text.startup.main:0000000000000226 .L0 
C:\Users\Uzair\AppData\Local\Temp\ccqldcL9.s:284    .text.startup.main:0000000000000244 .L0 
C:\Users\Uzair\AppData\Local\Temp\ccqldcL9.s:285    .text.startup.main:0000000000000244 .L0 
C:\Users\Uzair\AppData\Local\Temp\ccqldcL9.s:291    .text.startup.main:0000000000000252 .L0 
C:\Users\Uzair\AppData\Local\Temp\ccqldcL9.s:295    .text.startup.main:000000000000025a .L0 
C:\Users\Uzair\AppData\Local\Temp\ccqldcL9.s:300    .text.startup.main:000000000000025c .L0 
C:\Users\Uzair\AppData\Local\Temp\ccqldcL9.s:304    .text.startup.main:0000000000000268 .L0 
C:\Users\Uzair\AppData\Local\Temp\ccqldcL9.s:310    .text.startup.main:000000000000027a .L0 
C:\Users\Uzair\AppData\Local\Temp\ccqldcL9.s:313    .text.startup.main:000000000000027a .L0 
                     .debug_frame:0000000000000000 .L0 
C:\Users\Uzair\AppData\Local\Temp\ccqldcL9.s:325    .rodata.main.cst8:0000000000000000 .LC0
C:\Users\Uzair\AppData\Local\Temp\ccqldcL9.s:317    .rodata.main.cst4:0000000000000004 .LC2
C:\Users\Uzair\AppData\Local\Temp\ccqldcL9.s:315    .rodata.main.cst4:0000000000000000 .LC1
C:\Users\Uzair\AppData\Local\Temp\ccqldcL9.s:319    .rodata.main.cst4:0000000000000008 .LC3
C:\Users\Uzair\AppData\Local\Temp\ccqldcL9.s:321    .rodata.main.cst4:000000000000000c .LC4
C:\Users\Uzair\AppData\Local\Temp\ccqldcL9.s:297    .text.startup.main:000000000000025c .L9
C:\Users\Uzair\AppData\Local\Temp\ccqldcL9.s:204    .text.startup.main:000000000000017e .L5
C:\Users\Uzair\AppData\Local\Temp\ccqldcL9.s:138    .text.startup.main:00000000000000e8 .L6
C:\Users\Uzair\AppData\Local\Temp\ccqldcL9.s:193    .text.startup.main:0000000000000162 .L4
C:\Users\Uzair\AppData\Local\Temp\ccqldcL9.s:2505   .debug_abbrev:0000000000000000 .Ldebug_abbrev0
C:\Users\Uzair\AppData\Local\Temp\ccqldcL9.s:3573   .debug_str:00000000000006be .LASF187
C:\Users\Uzair\AppData\Local\Temp\ccqldcL9.s:3415   .debug_str:000000000000035d .LASF188
C:\Users\Uzair\AppData\Local\Temp\ccqldcL9.s:3507   .debug_str:0000000000000542 .LASF189
C:\Users\Uzair\AppData\Local\Temp\ccqldcL9.s:3225   .debug_ranges:0000000000000000 .Ldebug_ranges0
C:\Users\Uzair\AppData\Local\Temp\ccqldcL9.s:3239   .debug_line:0000000000000000 .Ldebug_line0
C:\Users\Uzair\AppData\Local\Temp\ccqldcL9.s:3555   .debug_str:0000000000000666 .LASF0
C:\Users\Uzair\AppData\Local\Temp\ccqldcL9.s:3503   .debug_str:0000000000000523 .LASF1
C:\Users\Uzair\AppData\Local\Temp\ccqldcL9.s:3339   .debug_str:00000000000001f7 .LASF2
C:\Users\Uzair\AppData\Local\Temp\ccqldcL9.s:3545   .debug_str:000000000000063f .LASF3
C:\Users\Uzair\AppData\Local\Temp\ccqldcL9.s:3457   .debug_str:000000000000044a .LASF5
C:\Users\Uzair\AppData\Local\Temp\ccqldcL9.s:3309   .debug_str:0000000000000175 .LASF4
C:\Users\Uzair\AppData\Local\Temp\ccqldcL9.s:3261   .debug_str:0000000000000066 .LASF6
C:\Users\Uzair\AppData\Local\Temp\ccqldcL9.s:3481   .debug_str:00000000000004c6 .LASF7
C:\Users\Uzair\AppData\Local\Temp\ccqldcL9.s:3561   .debug_str:0000000000000687 .LASF8
GAS LISTING C:\Users\Uzair\AppData\Local\Temp\ccqldcL9.s 			page 13


C:\Users\Uzair\AppData\Local\Temp\ccqldcL9.s:3557   .debug_str:0000000000000673 .LASF9
C:\Users\Uzair\AppData\Local\Temp\ccqldcL9.s:3269   .debug_str:000000000000008d .LASF10
C:\Users\Uzair\AppData\Local\Temp\ccqldcL9.s:3359   .debug_str:000000000000025d .LASF11
C:\Users\Uzair\AppData\Local\Temp\ccqldcL9.s:3383   .debug_str:00000000000002c8 .LASF12
C:\Users\Uzair\AppData\Local\Temp\ccqldcL9.s:3279   .debug_str:00000000000000ca .LASF13
C:\Users\Uzair\AppData\Local\Temp\ccqldcL9.s:3265   .debug_str:0000000000000079 .LASF14
C:\Users\Uzair\AppData\Local\Temp\ccqldcL9.s:3541   .debug_str:000000000000062e .LASF15
C:\Users\Uzair\AppData\Local\Temp\ccqldcL9.s:3599   .debug_str:00000000000007c8 .LASF16
C:\Users\Uzair\AppData\Local\Temp\ccqldcL9.s:3411   .debug_str:0000000000000350 .LASF17
C:\Users\Uzair\AppData\Local\Temp\ccqldcL9.s:3373   .debug_str:0000000000000295 .LASF18
C:\Users\Uzair\AppData\Local\Temp\ccqldcL9.s:3531   .debug_str:0000000000000605 .LASF19
C:\Users\Uzair\AppData\Local\Temp\ccqldcL9.s:3533   .debug_str:000000000000060d .LASF20
C:\Users\Uzair\AppData\Local\Temp\ccqldcL9.s:3463   .debug_str:0000000000000461 .LASF21
C:\Users\Uzair\AppData\Local\Temp\ccqldcL9.s:3581   .debug_str:0000000000000761 .LASF22
C:\Users\Uzair\AppData\Local\Temp\ccqldcL9.s:3433   .debug_str:00000000000003b1 .LASF23
C:\Users\Uzair\AppData\Local\Temp\ccqldcL9.s:3487   .debug_str:00000000000004e3 .LASF24
C:\Users\Uzair\AppData\Local\Temp\ccqldcL9.s:3367   .debug_str:0000000000000282 .LASF29
C:\Users\Uzair\AppData\Local\Temp\ccqldcL9.s:3567   .debug_str:00000000000006a1 .LASF25
C:\Users\Uzair\AppData\Local\Temp\ccqldcL9.s:3523   .debug_str:00000000000005e8 .LASF26
C:\Users\Uzair\AppData\Local\Temp\ccqldcL9.s:3361   .debug_str:0000000000000268 .LASF27
C:\Users\Uzair\AppData\Local\Temp\ccqldcL9.s:3595   .debug_str:00000000000007bd .LASF28
C:\Users\Uzair\AppData\Local\Temp\ccqldcL9.s:3371   .debug_str:0000000000000290 .LASF30
C:\Users\Uzair\AppData\Local\Temp\ccqldcL9.s:3301   .debug_str:0000000000000154 .LASF31
C:\Users\Uzair\AppData\Local\Temp\ccqldcL9.s:3615   .debug_str:0000000000000816 .LASF32
C:\Users\Uzair\AppData\Local\Temp\ccqldcL9.s:3317   .debug_str:0000000000000196 .LASF33
C:\Users\Uzair\AppData\Local\Temp\ccqldcL9.s:3629   .debug_str:000000000000084e .LASF34
C:\Users\Uzair\AppData\Local\Temp\ccqldcL9.s:3437   .debug_str:00000000000003d5 .LASF35
C:\Users\Uzair\AppData\Local\Temp\ccqldcL9.s:3429   .debug_str:000000000000039e .LASF36
C:\Users\Uzair\AppData\Local\Temp\ccqldcL9.s:3539   .debug_str:0000000000000624 .LASF37
C:\Users\Uzair\AppData\Local\Temp\ccqldcL9.s:3489   .debug_str:00000000000004ec .LASF38
C:\Users\Uzair\AppData\Local\Temp\ccqldcL9.s:3611   .debug_str:00000000000007fc .LASF39
C:\Users\Uzair\AppData\Local\Temp\ccqldcL9.s:3321   .debug_str:00000000000001a5 .LASF40
C:\Users\Uzair\AppData\Local\Temp\ccqldcL9.s:3251   .debug_str:0000000000000030 .LASF41
C:\Users\Uzair\AppData\Local\Temp\ccqldcL9.s:3241   .debug_str:0000000000000000 .LASF42
C:\Users\Uzair\AppData\Local\Temp\ccqldcL9.s:3575   .debug_str:0000000000000746 .LASF43
C:\Users\Uzair\AppData\Local\Temp\ccqldcL9.s:3331   .debug_str:00000000000001d4 .LASF44
C:\Users\Uzair\AppData\Local\Temp\ccqldcL9.s:3449   .debug_str:000000000000041e .LASF45
C:\Users\Uzair\AppData\Local\Temp\ccqldcL9.s:3509   .debug_str:0000000000000596 .LASF46
C:\Users\Uzair\AppData\Local\Temp\ccqldcL9.s:3357   .debug_str:0000000000000258 .LASF47
C:\Users\Uzair\AppData\Local\Temp\ccqldcL9.s:3491   .debug_str:00000000000004f6 .LASF48
C:\Users\Uzair\AppData\Local\Temp\ccqldcL9.s:3315   .debug_str:0000000000000190 .LASF49
C:\Users\Uzair\AppData\Local\Temp\ccqldcL9.s:3553   .debug_str:0000000000000660 .LASF50
C:\Users\Uzair\AppData\Local\Temp\ccqldcL9.s:3499   .debug_str:0000000000000512 .LASF51
C:\Users\Uzair\AppData\Local\Temp\ccqldcL9.s:3329   .debug_str:00000000000001cd .LASF52
C:\Users\Uzair\AppData\Local\Temp\ccqldcL9.s:3385   .debug_str:00000000000002da .LASF53
C:\Users\Uzair\AppData\Local\Temp\ccqldcL9.s:3285   .debug_str:00000000000000f5 .LASF54
C:\Users\Uzair\AppData\Local\Temp\ccqldcL9.s:3323   .debug_str:00000000000001b3 .LASF55
C:\Users\Uzair\AppData\Local\Temp\ccqldcL9.s:3369   .debug_str:000000000000028a .LASF56
C:\Users\Uzair\AppData\Local\Temp\ccqldcL9.s:3427   .debug_str:0000000000000397 .LASF57
C:\Users\Uzair\AppData\Local\Temp\ccqldcL9.s:3535   .debug_str:0000000000000615 .LASF58
C:\Users\Uzair\AppData\Local\Temp\ccqldcL9.s:3307   .debug_str:000000000000016e .LASF59
C:\Users\Uzair\AppData\Local\Temp\ccqldcL9.s:3313   .debug_str:000000000000018a .LASF60
C:\Users\Uzair\AppData\Local\Temp\ccqldcL9.s:3607   .debug_str:00000000000007ee .LASF61
C:\Users\Uzair\AppData\Local\Temp\ccqldcL9.s:3551   .debug_str:0000000000000657 .LASF62
C:\Users\Uzair\AppData\Local\Temp\ccqldcL9.s:3347   .debug_str:000000000000021d .LASF63
C:\Users\Uzair\AppData\Local\Temp\ccqldcL9.s:3397   .debug_str:000000000000030f .LASF64
C:\Users\Uzair\AppData\Local\Temp\ccqldcL9.s:3421   .debug_str:000000000000037a .LASF65
GAS LISTING C:\Users\Uzair\AppData\Local\Temp\ccqldcL9.s 			page 14


C:\Users\Uzair\AppData\Local\Temp\ccqldcL9.s:3501   .debug_str:000000000000051a .LASF66
C:\Users\Uzair\AppData\Local\Temp\ccqldcL9.s:3493   .debug_str:00000000000004fd .LASF67
C:\Users\Uzair\AppData\Local\Temp\ccqldcL9.s:3525   .debug_str:00000000000005f0 .LASF68
C:\Users\Uzair\AppData\Local\Temp\ccqldcL9.s:3547   .debug_str:000000000000064b .LASF69
C:\Users\Uzair\AppData\Local\Temp\ccqldcL9.s:3333   .debug_str:00000000000001dc .LASF70
C:\Users\Uzair\AppData\Local\Temp\ccqldcL9.s:3563   .debug_str:0000000000000691 .LASF71
C:\Users\Uzair\AppData\Local\Temp\ccqldcL9.s:3365   .debug_str:000000000000027a .LASF72
C:\Users\Uzair\AppData\Local\Temp\ccqldcL9.s:3387   .debug_str:00000000000002e0 .LASF73
C:\Users\Uzair\AppData\Local\Temp\ccqldcL9.s:3257   .debug_str:0000000000000054 .LASF74
C:\Users\Uzair\AppData\Local\Temp\ccqldcL9.s:3519   .debug_str:00000000000005c0 .LASF75
C:\Users\Uzair\AppData\Local\Temp\ccqldcL9.s:3515   .debug_str:00000000000005ae .LASF76
C:\Users\Uzair\AppData\Local\Temp\ccqldcL9.s:3453   .debug_str:0000000000000430 .LASF77
C:\Users\Uzair\AppData\Local\Temp\ccqldcL9.s:3517   .debug_str:00000000000005b6 .LASF78
C:\Users\Uzair\AppData\Local\Temp\ccqldcL9.s:3409   .debug_str:0000000000000348 .LASF79
C:\Users\Uzair\AppData\Local\Temp\ccqldcL9.s:3335   .debug_str:00000000000001e3 .LASF80
C:\Users\Uzair\AppData\Local\Temp\ccqldcL9.s:3623   .debug_str:000000000000083b .LASF81
C:\Users\Uzair\AppData\Local\Temp\ccqldcL9.s:3461   .debug_str:0000000000000457 .LASF82
C:\Users\Uzair\AppData\Local\Temp\ccqldcL9.s:3381   .debug_str:00000000000002c0 .LASF83
C:\Users\Uzair\AppData\Local\Temp\ccqldcL9.s:3345   .debug_str:0000000000000215 .LASF84
C:\Users\Uzair\AppData\Local\Temp\ccqldcL9.s:3417   .debug_str:0000000000000364 .LASF85
C:\Users\Uzair\AppData\Local\Temp\ccqldcL9.s:3263   .debug_str:0000000000000070 .LASF86
C:\Users\Uzair\AppData\Local\Temp\ccqldcL9.s:3603   .debug_str:00000000000007db .LASF87
C:\Users\Uzair\AppData\Local\Temp\ccqldcL9.s:3325   .debug_str:00000000000001bb .LASF88
C:\Users\Uzair\AppData\Local\Temp\ccqldcL9.s:3319   .debug_str:00000000000001a0 .LASF89
C:\Users\Uzair\AppData\Local\Temp\ccqldcL9.s:3549   .debug_str:0000000000000652 .LASF90
C:\Users\Uzair\AppData\Local\Temp\ccqldcL9.s:3495   .debug_str:0000000000000505 .LASF91
C:\Users\Uzair\AppData\Local\Temp\ccqldcL9.s:3597   .debug_str:00000000000007c2 .LASF92
C:\Users\Uzair\AppData\Local\Temp\ccqldcL9.s:3399   .debug_str:0000000000000315 .LASF93
C:\Users\Uzair\AppData\Local\Temp\ccqldcL9.s:3483   .debug_str:00000000000004d4 .LASF94
C:\Users\Uzair\AppData\Local\Temp\ccqldcL9.s:3527   .debug_str:00000000000005f7 .LASF95
C:\Users\Uzair\AppData\Local\Temp\ccqldcL9.s:3529   .debug_str:00000000000005ff .LASF96
C:\Users\Uzair\AppData\Local\Temp\ccqldcL9.s:3423   .debug_str:0000000000000380 .LASF97
C:\Users\Uzair\AppData\Local\Temp\ccqldcL9.s:3579   .debug_str:000000000000075c .LASF98
C:\Users\Uzair\AppData\Local\Temp\ccqldcL9.s:3593   .debug_str:00000000000007b0 .LASF99
C:\Users\Uzair\AppData\Local\Temp\ccqldcL9.s:3569   .debug_str:00000000000006a7 .LASF100
C:\Users\Uzair\AppData\Local\Temp\ccqldcL9.s:3407   .debug_str:000000000000033b .LASF101
C:\Users\Uzair\AppData\Local\Temp\ccqldcL9.s:3613   .debug_str:0000000000000807 .LASF102
C:\Users\Uzair\AppData\Local\Temp\ccqldcL9.s:3455   .debug_str:000000000000043b .LASF103
C:\Users\Uzair\AppData\Local\Temp\ccqldcL9.s:3401   .debug_str:000000000000031c .LASF104
C:\Users\Uzair\AppData\Local\Temp\ccqldcL9.s:3617   .debug_str:000000000000081f .LASF105
C:\Users\Uzair\AppData\Local\Temp\ccqldcL9.s:3479   .debug_str:00000000000004b9 .LASF106
C:\Users\Uzair\AppData\Local\Temp\ccqldcL9.s:3621   .debug_str:000000000000082d .LASF107
C:\Users\Uzair\AppData\Local\Temp\ccqldcL9.s:3299   .debug_str:0000000000000146 .LASF108
C:\Users\Uzair\AppData\Local\Temp\ccqldcL9.s:3601   .debug_str:00000000000007d1 .LASF109
C:\Users\Uzair\AppData\Local\Temp\ccqldcL9.s:3405   .debug_str:000000000000032f .LASF110
C:\Users\Uzair\AppData\Local\Temp\ccqldcL9.s:3583   .debug_str:0000000000000769 .LASF111
C:\Users\Uzair\AppData\Local\Temp\ccqldcL9.s:3351   .debug_str:0000000000000236 .LASF112
C:\Users\Uzair\AppData\Local\Temp\ccqldcL9.s:3297   .debug_str:0000000000000137 .LASF113
C:\Users\Uzair\AppData\Local\Temp\ccqldcL9.s:3349   .debug_str:0000000000000225 .LASF114
C:\Users\Uzair\AppData\Local\Temp\ccqldcL9.s:3271   .debug_str:0000000000000096 .LASF115
C:\Users\Uzair\AppData\Local\Temp\ccqldcL9.s:3273   .debug_str:00000000000000a5 .LASF116
C:\Users\Uzair\AppData\Local\Temp\ccqldcL9.s:3485   .debug_str:00000000000004da .LASF117
C:\Users\Uzair\AppData\Local\Temp\ccqldcL9.s:3441   .debug_str:00000000000003f6 .LASF118
C:\Users\Uzair\AppData\Local\Temp\ccqldcL9.s:3431   .debug_str:00000000000003a8 .LASF119
C:\Users\Uzair\AppData\Local\Temp\ccqldcL9.s:3609   .debug_str:00000000000007f4 .LASF120
C:\Users\Uzair\AppData\Local\Temp\ccqldcL9.s:3289   .debug_str:0000000000000108 .LASF190
C:\Users\Uzair\AppData\Local\Temp\ccqldcL9.s:3363   .debug_str:000000000000026e .LASF121
GAS LISTING C:\Users\Uzair\AppData\Local\Temp\ccqldcL9.s 			page 15


C:\Users\Uzair\AppData\Local\Temp\ccqldcL9.s:3589   .debug_str:000000000000078f .LASF122
C:\Users\Uzair\AppData\Local\Temp\ccqldcL9.s:3459   .debug_str:0000000000000451 .LASF123
C:\Users\Uzair\AppData\Local\Temp\ccqldcL9.s:3343   .debug_str:000000000000020e .LASF124
C:\Users\Uzair\AppData\Local\Temp\ccqldcL9.s:3587   .debug_str:000000000000077e .LASF191
C:\Users\Uzair\AppData\Local\Temp\ccqldcL9.s:3591   .debug_str:00000000000007a2 .LASF125
C:\Users\Uzair\AppData\Local\Temp\ccqldcL9.s:3521   .debug_str:00000000000005d9 .LASF126
C:\Users\Uzair\AppData\Local\Temp\ccqldcL9.s:3293   .debug_str:000000000000011d .LASF127
C:\Users\Uzair\AppData\Local\Temp\ccqldcL9.s:3565   .debug_str:0000000000000699 .LASF128
C:\Users\Uzair\AppData\Local\Temp\ccqldcL9.s:3341   .debug_str:0000000000000205 .LASF129
C:\Users\Uzair\AppData\Local\Temp\ccqldcL9.s:3627   .debug_str:0000000000000845 .LASF130
C:\Users\Uzair\AppData\Local\Temp\ccqldcL9.s:3375   .debug_str:000000000000029c .LASF131
C:\Users\Uzair\AppData\Local\Temp\ccqldcL9.s:3249   .debug_str:0000000000000027 .LASF132
C:\Users\Uzair\AppData\Local\Temp\ccqldcL9.s:3311   .debug_str:0000000000000181 .LASF133
C:\Users\Uzair\AppData\Local\Temp\ccqldcL9.s:3305   .debug_str:0000000000000166 .LASF134
C:\Users\Uzair\AppData\Local\Temp\ccqldcL9.s:3559   .debug_str:000000000000067e .LASF135
C:\Users\Uzair\AppData\Local\Temp\ccqldcL9.s:3337   .debug_str:00000000000001ed .LASF136
C:\Users\Uzair\AppData\Local\Temp\ccqldcL9.s:3467   .debug_str:0000000000000477 .LASF137
C:\Users\Uzair\AppData\Local\Temp\ccqldcL9.s:3469   .debug_str:0000000000000482 .LASF138
C:\Users\Uzair\AppData\Local\Temp\ccqldcL9.s:3471   .debug_str:000000000000048d .LASF139
C:\Users\Uzair\AppData\Local\Temp\ccqldcL9.s:3473   .debug_str:0000000000000498 .LASF140
C:\Users\Uzair\AppData\Local\Temp\ccqldcL9.s:3475   .debug_str:00000000000004a3 .LASF141
C:\Users\Uzair\AppData\Local\Temp\ccqldcL9.s:3477   .debug_str:00000000000004ae .LASF142
C:\Users\Uzair\AppData\Local\Temp\ccqldcL9.s:3571   .debug_str:00000000000006b4 .LASF143
C:\Users\Uzair\AppData\Local\Temp\ccqldcL9.s:3245   .debug_str:0000000000000015 .LASF144
C:\Users\Uzair\AppData\Local\Temp\ccqldcL9.s:3247   .debug_str:000000000000001e .LASF145
C:\Users\Uzair\AppData\Local\Temp\ccqldcL9.s:3445   .debug_str:0000000000000408 .LASF146
C:\Users\Uzair\AppData\Local\Temp\ccqldcL9.s:3447   .debug_str:0000000000000413 .LASF147
C:\Users\Uzair\AppData\Local\Temp\ccqldcL9.s:3281   .debug_str:00000000000000e1 .LASF148
C:\Users\Uzair\AppData\Local\Temp\ccqldcL9.s:3283   .debug_str:00000000000000eb .LASF149
C:\Users\Uzair\AppData\Local\Temp\ccqldcL9.s:3605   .debug_str:00000000000007e5 .LASF150
C:\Users\Uzair\AppData\Local\Temp\ccqldcL9.s:3537   .debug_str:000000000000061b .LASF151
C:\Users\Uzair\AppData\Local\Temp\ccqldcL9.s:3353   .debug_str:0000000000000244 .LASF152
C:\Users\Uzair\AppData\Local\Temp\ccqldcL9.s:3303   .debug_str:000000000000015d .LASF153
C:\Users\Uzair\AppData\Local\Temp\ccqldcL9.s:3543   .debug_str:0000000000000636 .LASF154
C:\Users\Uzair\AppData\Local\Temp\ccqldcL9.s:3585   .debug_str:0000000000000776 .LASF155
C:\Users\Uzair\AppData\Local\Temp\ccqldcL9.s:3403   .debug_str:0000000000000327 .LASF156
C:\Users\Uzair\AppData\Local\Temp\ccqldcL9.s:3395   .debug_str:0000000000000307 .LASF157
C:\Users\Uzair\AppData\Local\Temp\ccqldcL9.s:3259   .debug_str:000000000000005f .LASF158
C:\Users\Uzair\AppData\Local\Temp\ccqldcL9.s:3287   .debug_str:00000000000000fe .LASF159
C:\Users\Uzair\AppData\Local\Temp\ccqldcL9.s:3377   .debug_str:00000000000002ac .LASF160
C:\Users\Uzair\AppData\Local\Temp\ccqldcL9.s:3379   .debug_str:00000000000002b6 .LASF161
C:\Users\Uzair\AppData\Local\Temp\ccqldcL9.s:3291   .debug_str:0000000000000113 .LASF162
C:\Users\Uzair\AppData\Local\Temp\ccqldcL9.s:3295   .debug_str:000000000000012d .LASF163
C:\Users\Uzair\AppData\Local\Temp\ccqldcL9.s:3391   .debug_str:00000000000002f5 .LASF164
C:\Users\Uzair\AppData\Local\Temp\ccqldcL9.s:3393   .debug_str:00000000000002fe .LASF165
C:\Users\Uzair\AppData\Local\Temp\ccqldcL9.s:3465   .debug_str:000000000000046c .LASF166
C:\Users\Uzair\AppData\Local\Temp\ccqldcL9.s:3243   .debug_str:000000000000000c .LASF167
C:\Users\Uzair\AppData\Local\Temp\ccqldcL9.s:3443   .debug_str:00000000000003fd .LASF168
C:\Users\Uzair\AppData\Local\Temp\ccqldcL9.s:3451   .debug_str:0000000000000426 .LASF169
C:\Users\Uzair\AppData\Local\Temp\ccqldcL9.s:3277   .debug_str:00000000000000bf .LASF170
C:\Users\Uzair\AppData\Local\Temp\ccqldcL9.s:3267   .debug_str:0000000000000080 .LASF171
C:\Users\Uzair\AppData\Local\Temp\ccqldcL9.s:3625   .debug_str:0000000000000840 .LASF192
C:\Users\Uzair\AppData\Local\Temp\ccqldcL9.s:22     .text.startup.main:0000000000000000 .LFB5
C:\Users\Uzair\AppData\Local\Temp\ccqldcL9.s:311    .text.startup.main:000000000000027a .LFE5
C:\Users\Uzair\AppData\Local\Temp\ccqldcL9.s:3192   .debug_loc:0000000000000000 .LLST0
C:\Users\Uzair\AppData\Local\Temp\ccqldcL9.s:3275   .debug_str:00000000000000b6 .LASF172
C:\Users\Uzair\AppData\Local\Temp\ccqldcL9.s:3355   .debug_str:000000000000024d .LASF173
GAS LISTING C:\Users\Uzair\AppData\Local\Temp\ccqldcL9.s 			page 16


C:\Users\Uzair\AppData\Local\Temp\ccqldcL9.s:3205   .debug_loc:0000000000000021 .LLST1
C:\Users\Uzair\AppData\Local\Temp\ccqldcL9.s:3511   .debug_str:000000000000059b .LASF193
C:\Users\Uzair\AppData\Local\Temp\ccqldcL9.s:145    .text.startup.main:00000000000000f2 .LVL12
C:\Users\Uzair\AppData\Local\Temp\ccqldcL9.s:162    .text.startup.main:000000000000011a .LVL15
C:\Users\Uzair\AppData\Local\Temp\ccqldcL9.s:187    .text.startup.main:0000000000000152 .LVL20
C:\Users\Uzair\AppData\Local\Temp\ccqldcL9.s:192    .text.startup.main:0000000000000162 .LVL21
C:\Users\Uzair\AppData\Local\Temp\ccqldcL9.s:212    .text.startup.main:0000000000000192 .LVL24
C:\Users\Uzair\AppData\Local\Temp\ccqldcL9.s:247    .text.startup.main:00000000000001e8 .LVL31
C:\Users\Uzair\AppData\Local\Temp\ccqldcL9.s:282    .text.startup.main:0000000000000244 .LVL38
C:\Users\Uzair\AppData\Local\Temp\ccqldcL9.s:289    .text.startup.main:0000000000000252 .LVL39
C:\Users\Uzair\AppData\Local\Temp\ccqldcL9.s:292    .text.startup.main:000000000000025a .LVL40
C:\Users\Uzair\AppData\Local\Temp\ccqldcL9.s:302    .text.startup.main:0000000000000268 .LVL42
C:\Users\Uzair\AppData\Local\Temp\ccqldcL9.s:307    .text.startup.main:0000000000000278 .LVL43
C:\Users\Uzair\AppData\Local\Temp\ccqldcL9.s:63     .text.startup.main:0000000000000028 .LVL0
C:\Users\Uzair\AppData\Local\Temp\ccqldcL9.s:70     .text.startup.main:000000000000003a .LVL1
C:\Users\Uzair\AppData\Local\Temp\ccqldcL9.s:74     .text.startup.main:0000000000000046 .LVL2
C:\Users\Uzair\AppData\Local\Temp\ccqldcL9.s:81     .text.startup.main:000000000000005a .LVL3
C:\Users\Uzair\AppData\Local\Temp\ccqldcL9.s:85     .text.startup.main:0000000000000066 .LVL4
C:\Users\Uzair\AppData\Local\Temp\ccqldcL9.s:89     .text.startup.main:0000000000000072 .LVL5
C:\Users\Uzair\AppData\Local\Temp\ccqldcL9.s:96     .text.startup.main:0000000000000086 .LVL6
C:\Users\Uzair\AppData\Local\Temp\ccqldcL9.s:101    .text.startup.main:0000000000000096 .LVL7
C:\Users\Uzair\AppData\Local\Temp\ccqldcL9.s:105    .text.startup.main:00000000000000a0 .LVL8
C:\Users\Uzair\AppData\Local\Temp\ccqldcL9.s:108    .text.startup.main:00000000000000a8 .LVL9
C:\Users\Uzair\AppData\Local\Temp\ccqldcL9.s:112    .text.startup.main:00000000000000b2 .LVL10
C:\Users\Uzair\AppData\Local\Temp\ccqldcL9.s:116    .text.startup.main:00000000000000bc .LVL11
C:\Users\Uzair\AppData\Local\Temp\ccqldcL9.s:3425   .debug_str:0000000000000386 .LASF174
C:\Users\Uzair\AppData\Local\Temp\ccqldcL9.s:3497   .debug_str:000000000000050c .LASF175
C:\Users\Uzair\AppData\Local\Temp\ccqldcL9.s:3253   .debug_str:0000000000000038 .LASF176
C:\Users\Uzair\AppData\Local\Temp\ccqldcL9.s:3513   .debug_str:00000000000005a2 .LASF177
C:\Users\Uzair\AppData\Local\Temp\ccqldcL9.s:3577   .debug_str:000000000000074f .LASF178
C:\Users\Uzair\AppData\Local\Temp\ccqldcL9.s:3413   .debug_str:0000000000000356 .LASF194
C:\Users\Uzair\AppData\Local\Temp\ccqldcL9.s:3419   .debug_str:0000000000000369 .LASF195
C:\Users\Uzair\AppData\Local\Temp\ccqldcL9.s:3435   .debug_str:00000000000003c3 .LASF179
C:\Users\Uzair\AppData\Local\Temp\ccqldcL9.s:3255   .debug_str:0000000000000047 .LASF180
C:\Users\Uzair\AppData\Local\Temp\ccqldcL9.s:3439   .debug_str:00000000000003de .LASF181
C:\Users\Uzair\AppData\Local\Temp\ccqldcL9.s:3631   .debug_str:0000000000000858 .LASF182
C:\Users\Uzair\AppData\Local\Temp\ccqldcL9.s:3389   .debug_str:00000000000002e5 .LASF183
C:\Users\Uzair\AppData\Local\Temp\ccqldcL9.s:3505   .debug_str:0000000000000536 .LASF184
C:\Users\Uzair\AppData\Local\Temp\ccqldcL9.s:3619   .debug_str:0000000000000824 .LASF185
C:\Users\Uzair\AppData\Local\Temp\ccqldcL9.s:3327   .debug_str:00000000000001c3 .LASF186
C:\Users\Uzair\AppData\Local\Temp\ccqldcL9.s:31     .text.startup.main:0000000000000002 .LCFI0
C:\Users\Uzair\AppData\Local\Temp\ccqldcL9.s:205    .text.startup.main:000000000000017e .LVL23
C:\Users\Uzair\AppData\Local\Temp\ccqldcL9.s:296    .text.startup.main:000000000000025c .LVL41
C:\Users\Uzair\AppData\Local\Temp\ccqldcL9.s:346    .debug_info:0000000000000000 .Ldebug_info0
C:\Users\Uzair\AppData\Local\Temp\ccqldcL9.s:117    .text.startup.main:00000000000000bc .LBB2
C:\Users\Uzair\AppData\Local\Temp\ccqldcL9.s:139    .text.startup.main:00000000000000e8 .LBE2
C:\Users\Uzair\AppData\Local\Temp\ccqldcL9.s:141    .text.startup.main:00000000000000e8 .LBB3
C:\Users\Uzair\AppData\Local\Temp\ccqldcL9.s:293    .text.startup.main:000000000000025a .LBE3
C:\Users\Uzair\AppData\Local\Temp\ccqldcL9.s:298    .text.startup.main:000000000000025c .LBB4
C:\Users\Uzair\AppData\Local\Temp\ccqldcL9.s:309    .text.startup.main:000000000000027a .LBE4

UNDEFINED SYMBOLS
__extendsfdf2
__muldf3
__truncdfsf2
__gtsf2
__ltsf2
GAS LISTING C:\Users\Uzair\AppData\Local\Temp\ccqldcL9.s 			page 17


__divsf3
__addsf3
__fixunssfsi
rcu_periph_clock_enable
gpio_init
mpu6500_install
Lcd_SetType
Lcd_Init
LCD_Clear
mpu6500_getAccel
atan2
gpio_bit_reset
Draw_Circle
LCD_DrawLine
memcpy
LCD_Wait_On_Queue
gpio_bit_set
