GAS LISTING C:\Users\Uzair\AppData\Local\Temp\cc0eZgbn.s 			page 1


   1              		.file	"tf_card.c"
   2              		.option nopic
   3              		.attribute arch, "rv32i2p0_m2p0_a2p0_c2p0"
   4              		.attribute unaligned_access, 0
   5              		.attribute stack_align, 16
   6              		.text
   7              	.Ltext0:
   8              		.cfi_sections	.debug_frame
   9              		.section	.text.xchg_spi,"ax",@progbits
  10              		.align	1
  12              	xchg_spi:
  13              	.LFB6:
  14              		.file 1 "tf_card.c"
   1:tf_card.c     **** #include "tf_card.h"
   2:tf_card.c     **** #include "tf_delay.h"
   3:tf_card.c     **** #include "systick.h"
   4:tf_card.c     **** 
   5:tf_card.c     **** #define FCLK_SLOW() { SPI_CTL0(SPI1) = (SPI_CTL0(SPI1) & ~0x38) | 0x28; }	/* Set SCLK = PCLK2 / 64 
   6:tf_card.c     **** #define FCLK_FAST() { SPI_CTL0(SPI1) = (SPI_CTL0(SPI1) & ~0x38) | 0x10; }	/* Set SCLK = PCLK2 / 2 *
   7:tf_card.c     **** 
   8:tf_card.c     **** // #define FCLK_SLOW()
   9:tf_card.c     **** // #define FCLK_FAST()
  10:tf_card.c     **** 
  11:tf_card.c     **** //#define CS_HIGH() PB_OUT(4,1)
  12:tf_card.c     **** #define CS_HIGH() gpio_bit_set(GPIOC, GPIO_PIN_14)
  13:tf_card.c     **** //#define CS_LOW() PB_OUT(4,0)
  14:tf_card.c     **** #define CS_LOW() gpio_bit_reset(GPIOC, GPIO_PIN_14)
  15:tf_card.c     **** 
  16:tf_card.c     **** /*--------------------------------------------------------------------------
  17:tf_card.c     **** 
  18:tf_card.c     ****    Module Private Functions
  19:tf_card.c     **** 
  20:tf_card.c     **** ---------------------------------------------------------------------------*/
  21:tf_card.c     **** 
  22:tf_card.c     **** /* MMC/SD command */
  23:tf_card.c     **** #define CMD0	(0)			/* GO_IDLE_STATE */
  24:tf_card.c     **** #define CMD1	(1)			/* SEND_OP_COND (MMC) */
  25:tf_card.c     **** #define	ACMD41	(0x80+41)	/* SEND_OP_COND (SDC) */
  26:tf_card.c     **** #define CMD8	(8)			/* SEND_IF_COND */
  27:tf_card.c     **** #define CMD9	(9)			/* SEND_CSD */
  28:tf_card.c     **** #define CMD10	(10)		/* SEND_CID */
  29:tf_card.c     **** #define CMD12	(12)		/* STOP_TRANSMISSION */
  30:tf_card.c     **** #define ACMD13	(0x80+13)	/* SD_STATUS (SDC) */
  31:tf_card.c     **** #define CMD16	(16)		/* SET_BLOCKLEN */
  32:tf_card.c     **** #define CMD17	(17)		/* READ_SINGLE_BLOCK */
  33:tf_card.c     **** #define CMD18	(18)		/* READ_MULTIPLE_BLOCK */
  34:tf_card.c     **** #define CMD23	(23)		/* SET_BLOCK_COUNT (MMC) */
  35:tf_card.c     **** #define	ACMD23	(0x80+23)	/* SET_WR_BLK_ERASE_COUNT (SDC) */
  36:tf_card.c     **** #define CMD24	(24)		/* WRITE_BLOCK */
  37:tf_card.c     **** #define CMD25	(25)		/* WRITE_MULTIPLE_BLOCK */
  38:tf_card.c     **** #define CMD32	(32)		/* ERASE_ER_BLK_START */
  39:tf_card.c     **** #define CMD33	(33)		/* ERASE_ER_BLK_END */
  40:tf_card.c     **** #define CMD38	(38)		/* ERASE */
  41:tf_card.c     **** #define CMD55	(55)		/* APP_CMD */
  42:tf_card.c     **** #define CMD58	(58)		/* READ_OCR */
  43:tf_card.c     **** 
  44:tf_card.c     **** static volatile
GAS LISTING C:\Users\Uzair\AppData\Local\Temp\cc0eZgbn.s 			page 2


  45:tf_card.c     **** DSTATUS Stat = STA_NOINIT;	/* Physical drive status */
  46:tf_card.c     **** 
  47:tf_card.c     **** // static volatile
  48:tf_card.c     **** // UINT Timer1, Timer2;	/* 1kHz decrement timer stopped at zero (disk_timerproc()) */
  49:tf_card.c     **** static volatile
  50:tf_card.c     **** UINT delay_timer1, delay_timer2;        	/* 1kHz decrement timer stopped at zero (disk_timerproc())
  51:tf_card.c     **** 
  52:tf_card.c     **** static
  53:tf_card.c     **** BYTE CardType;			/* Card type flags */
  54:tf_card.c     **** 
  55:tf_card.c     **** 
  56:tf_card.c     **** /*-----------------------------------------------------------------------*/
  57:tf_card.c     **** /* SPI controls (Platform dependent)                                     */
  58:tf_card.c     **** /*-----------------------------------------------------------------------*/
  59:tf_card.c     **** 
  60:tf_card.c     **** /* Initialize MMC interface */
  61:tf_card.c     **** static
  62:tf_card.c     **** void init_spi(void)
  63:tf_card.c     **** {
  64:tf_card.c     ****     spi_parameter_struct spi_init_struct;
  65:tf_card.c     **** 
  66:tf_card.c     ****     rcu_periph_clock_enable(RCU_GPIOB);
  67:tf_card.c     **** 	rcu_periph_clock_enable(RCU_GPIOC);
  68:tf_card.c     ****     rcu_periph_clock_enable(RCU_SPI1);
  69:tf_card.c     **** 
  70:tf_card.c     ****     /* SPI1_SCK(PB13), SPI1_MISO(PB14) and SPI1_MOSI(PB15) GPIO pin configuration */
  71:tf_card.c     ****     gpio_init(GPIOB, GPIO_MODE_AF_PP, GPIO_OSPEED_50MHZ, GPIO_PIN_13 | GPIO_PIN_15);
  72:tf_card.c     ****     gpio_init(GPIOB, GPIO_MODE_IN_FLOATING, GPIO_OSPEED_50MHZ, GPIO_PIN_14);
  73:tf_card.c     ****     /* SPI1_CS(PB12) GPIO pin configuration */
  74:tf_card.c     ****     gpio_init(GPIOC, GPIO_MODE_OUT_PP, GPIO_OSPEED_50MHZ, GPIO_PIN_14);
  75:tf_card.c     **** 
  76:tf_card.c     ****     /* chip _select invalid*/
  77:tf_card.c     ****     CS_HIGH();
  78:tf_card.c     **** 
  79:tf_card.c     ****     /* SPI1 parameter config */
  80:tf_card.c     ****     spi_init_struct.trans_mode           = SPI_TRANSMODE_FULLDUPLEX;
  81:tf_card.c     ****     spi_init_struct.device_mode          = SPI_MASTER;
  82:tf_card.c     ****     spi_init_struct.frame_size           = SPI_FRAMESIZE_8BIT;
  83:tf_card.c     ****     spi_init_struct.clock_polarity_phase = SPI_CK_PL_HIGH_PH_2EDGE;
  84:tf_card.c     ****     spi_init_struct.nss                  = SPI_NSS_SOFT;
  85:tf_card.c     ****     spi_init_struct.prescale             = SPI_PSC_32;
  86:tf_card.c     ****     spi_init_struct.endian               = SPI_ENDIAN_MSB;
  87:tf_card.c     ****     spi_init(SPI1, &spi_init_struct);
  88:tf_card.c     **** 
  89:tf_card.c     ****     /* set crc polynomial */
  90:tf_card.c     ****     spi_crc_polynomial_set(SPI1,7);
  91:tf_card.c     ****     /* enable SPI1 */
  92:tf_card.c     ****     spi_enable(SPI1);
  93:tf_card.c     **** 
  94:tf_card.c     **** }
  95:tf_card.c     **** 
  96:tf_card.c     **** /* Exchange a byte */
  97:tf_card.c     **** static
  98:tf_card.c     **** BYTE xchg_spi (
  99:tf_card.c     **** 	BYTE dat	/* Data to send */
 100:tf_card.c     **** )
 101:tf_card.c     **** {
GAS LISTING C:\Users\Uzair\AppData\Local\Temp\cc0eZgbn.s 			page 3


  15              		.loc 1 101 1
  16              		.cfi_startproc
  17              	.LVL0:
 102:tf_card.c     **** 	while(RESET == spi_i2s_flag_get(SPI1, SPI_FLAG_TBE));
  18              		.loc 1 102 2
 101:tf_card.c     **** 	while(RESET == spi_i2s_flag_get(SPI1, SPI_FLAG_TBE));
  19              		.loc 1 101 1 is_stmt 0
  20 0000 4111     		addi	sp,sp,-16
  21              	.LCFI0:
  22              		.cfi_def_cfa_offset 16
  23 0002 22C4     		sw	s0,8(sp)
  24              		.cfi_offset 8, -8
  25              		.loc 1 102 17
  26 0004 37440040 		li	s0,1073758208
 101:tf_card.c     **** 	while(RESET == spi_i2s_flag_get(SPI1, SPI_FLAG_TBE));
  27              		.loc 1 101 1
  28 0008 26C2     		sw	s1,4(sp)
  29 000a 4AC0     		sw	s2,0(sp)
  30 000c 06C6     		sw	ra,12(sp)
  31              		.cfi_offset 9, -12
  32              		.cfi_offset 18, -16
  33              		.cfi_offset 1, -4
 101:tf_card.c     **** 	while(RESET == spi_i2s_flag_get(SPI1, SPI_FLAG_TBE));
  34              		.loc 1 101 1
  35 000e AA84     		mv	s1,a0
  36              		.loc 1 102 17
  37 0010 13090480 		addi	s2,s0,-2048
  38              	.LVL1:
  39              	.L2:
  40              		.loc 1 102 54 is_stmt 1 discriminator 1
  41              		.loc 1 102 17 is_stmt 0 discriminator 1
  42 0014 8945     		li	a1,2
  43 0016 4A85     		mv	a0,s2
  44 0018 97000000 		call	spi_i2s_flag_get
  44      E7800000 
  45              	.LVL2:
  46              		.loc 1 102 7 discriminator 1
  47 0020 75D9     		beq	a0,zero,.L2
 103:tf_card.c     ****         spi_i2s_data_transmit(SPI1, dat);
  48              		.loc 1 103 9 is_stmt 1
  49 0022 A685     		mv	a1,s1
  50 0024 13050480 		addi	a0,s0,-2048
 104:tf_card.c     **** 	while(RESET == spi_i2s_flag_get(SPI1, SPI_FLAG_RBNE));
  51              		.loc 1 104 17 is_stmt 0
  52 0028 37440040 		li	s0,1073758208
 103:tf_card.c     ****         spi_i2s_data_transmit(SPI1, dat);
  53              		.loc 1 103 9
  54 002c 97000000 		call	spi_i2s_data_transmit
  54      E7800000 
  55              	.LVL3:
  56              		.loc 1 104 2 is_stmt 1
  57              		.loc 1 104 17 is_stmt 0
  58 0034 93040480 		addi	s1,s0,-2048
  59              	.L3:
  60              		.loc 1 104 55 is_stmt 1 discriminator 1
  61              		.loc 1 104 17 is_stmt 0 discriminator 1
  62 0038 8545     		li	a1,1
GAS LISTING C:\Users\Uzair\AppData\Local\Temp\cc0eZgbn.s 			page 4


  63 003a 2685     		mv	a0,s1
  64 003c 97000000 		call	spi_i2s_flag_get
  64      E7800000 
  65              	.LVL4:
  66              		.loc 1 104 7 discriminator 1
  67 0044 75D9     		beq	a0,zero,.L3
 105:tf_card.c     ****         return(spi_i2s_data_receive(SPI1));     /* Return received byte */
  68              		.loc 1 105 9 is_stmt 1
  69              		.loc 1 105 16 is_stmt 0
  70 0046 13050480 		addi	a0,s0,-2048
  71 004a 97000000 		call	spi_i2s_data_receive
  71      E7800000 
  72              	.LVL5:
 106:tf_card.c     **** }
  73              		.loc 1 106 1
  74 0052 B240     		lw	ra,12(sp)
  75              		.cfi_restore 1
  76 0054 2244     		lw	s0,8(sp)
  77              		.cfi_restore 8
  78 0056 9244     		lw	s1,4(sp)
  79              		.cfi_restore 9
  80 0058 0249     		lw	s2,0(sp)
  81              		.cfi_restore 18
  82 005a 1375F50F 		andi	a0,a0,0xff
  83 005e 4101     		addi	sp,sp,16
  84              	.LCFI1:
  85              		.cfi_def_cfa_offset 0
  86 0060 8280     		jr	ra
  87              		.cfi_endproc
  88              	.LFE6:
  90              		.section	.text.deselect,"ax",@progbits
  91              		.align	1
  93              	deselect:
  94              	.LFB10:
 107:tf_card.c     **** 
 108:tf_card.c     **** 
 109:tf_card.c     **** /* Receive multiple byte */
 110:tf_card.c     **** static
 111:tf_card.c     **** void rcvr_spi_multi (
 112:tf_card.c     **** 	BYTE *buff,		/* Pointer to data buffer */
 113:tf_card.c     **** 	UINT btr		/* Number of bytes to receive (even number) */
 114:tf_card.c     **** )
 115:tf_card.c     **** {
 116:tf_card.c     **** 	do
 117:tf_card.c     **** 	{
 118:tf_card.c     **** 		*buff = xchg_spi(0xff);
 119:tf_card.c     **** 		buff++;
 120:tf_card.c     **** 	} while (btr--);
 121:tf_card.c     **** 
 122:tf_card.c     **** }
 123:tf_card.c     **** 
 124:tf_card.c     **** /* Send multiple byte */
 125:tf_card.c     **** static
 126:tf_card.c     **** void xmit_spi_multi (
 127:tf_card.c     **** 	const BYTE *buff,	/* Pointer to the data */
 128:tf_card.c     **** 	UINT btx			/* Number of bytes to send (even number) */
 129:tf_card.c     **** )
GAS LISTING C:\Users\Uzair\AppData\Local\Temp\cc0eZgbn.s 			page 5


 130:tf_card.c     **** {
 131:tf_card.c     **** 	for(UINT i=0; i<btx; i++) {
 132:tf_card.c     **** 		xchg_spi(*(buff+i));
 133:tf_card.c     **** 	}
 134:tf_card.c     **** }
 135:tf_card.c     **** 
 136:tf_card.c     **** /*-----------------------------------------------------------------------*/
 137:tf_card.c     **** /* Wait for card ready                                                   */
 138:tf_card.c     **** /*-----------------------------------------------------------------------*/
 139:tf_card.c     **** 
 140:tf_card.c     **** static
 141:tf_card.c     **** int wait_ready (	/* 1:Ready, 0:Timeout */
 142:tf_card.c     **** 	UINT wt			/* Timeout [ms] */
 143:tf_card.c     **** )
 144:tf_card.c     **** {
 145:tf_card.c     **** 	uint64_t start_mtime, delta_mtime;
 146:tf_card.c     **** 	BYTE d;
 147:tf_card.c     **** 	start_mtime = get_timer_value();
 148:tf_card.c     **** 
 149:tf_card.c     **** 	do {
 150:tf_card.c     **** 		delta_mtime = get_timer_value();
 151:tf_card.c     **** 		delta_mtime -=  start_mtime;
 152:tf_card.c     **** 		d = xchg_spi(0xFF);
 153:tf_card.c     **** 	}while((d != 0xFF) && (delta_mtime <(SystemCoreClock/4000.0 *wt )));
 154:tf_card.c     **** 	/*
 155:tf_card.c     **** 	
 156:tf_card.c     **** 	BYTE d;
 157:tf_card.c     **** 
 158:tf_card.c     **** 	// Timer2 = wt;
 159:tf_card.c     ****     delay_timer2 = wt;
 160:tf_card.c     **** 	do {
 161:tf_card.c     **** 		d = xchg_spi(0xFF);
 162:tf_card.c     **** 		
 163:tf_card.c     **** 	} while (d != 0xFF && delay_timer2);	
 164:tf_card.c     **** */
 165:tf_card.c     **** 	return (d == 0xFF) ? 1 : 0; 
 166:tf_card.c     **** }
 167:tf_card.c     **** 
 168:tf_card.c     **** 
 169:tf_card.c     **** 
 170:tf_card.c     **** /*-----------------------------------------------------------------------*/
 171:tf_card.c     **** /* Deselect card and release SPI                                         */
 172:tf_card.c     **** /*-----------------------------------------------------------------------*/
 173:tf_card.c     **** 
 174:tf_card.c     **** static
 175:tf_card.c     **** void deselect (void)
 176:tf_card.c     **** {
  95              		.loc 1 176 1 is_stmt 1
  96              		.cfi_startproc
 177:tf_card.c     **** 	CS_HIGH();		/* Set CS# high */
  97              		.loc 1 177 2
 176:tf_card.c     **** 	CS_HIGH();		/* Set CS# high */
  98              		.loc 1 176 1 is_stmt 0
  99 0000 4111     		addi	sp,sp,-16
 100              	.LCFI2:
 101              		.cfi_def_cfa_offset 16
 102              		.loc 1 177 2
GAS LISTING C:\Users\Uzair\AppData\Local\Temp\cc0eZgbn.s 			page 6


 103 0002 37150140 		li	a0,1073811456
 104 0006 9165     		li	a1,16384
 176:tf_card.c     **** 	CS_HIGH();		/* Set CS# high */
 105              		.loc 1 176 1
 106 0008 06C6     		sw	ra,12(sp)
 107              		.cfi_offset 1, -4
 108              		.loc 1 177 2
 109 000a 97000000 		call	gpio_bit_set
 109      E7800000 
 110              	.LVL6:
 178:tf_card.c     **** 	xchg_spi(0xFF);	/* Dummy clock (force DO hi-z for multiple slave SPI) */
 111              		.loc 1 178 2 is_stmt 1
 179:tf_card.c     **** }
 112              		.loc 1 179 1 is_stmt 0
 113 0012 B240     		lw	ra,12(sp)
 114              		.cfi_restore 1
 178:tf_card.c     **** 	xchg_spi(0xFF);	/* Dummy clock (force DO hi-z for multiple slave SPI) */
 115              		.loc 1 178 2
 116 0014 1305F00F 		li	a0,255
 117              		.loc 1 179 1
 118 0018 4101     		addi	sp,sp,16
 119              	.LCFI3:
 120              		.cfi_def_cfa_offset 0
 178:tf_card.c     **** 	xchg_spi(0xFF);	/* Dummy clock (force DO hi-z for multiple slave SPI) */
 121              		.loc 1 178 2
 122 001a 17030000 		tail	xchg_spi
 122      67000300 
 123              	.LVL7:
 124              		.cfi_endproc
 125              	.LFE10:
 127              		.globl	__floatundidf
 128              		.globl	__floatunsidf
 129              		.globl	__divdf3
 130              		.globl	__muldf3
 131              		.globl	__ltdf2
 132              		.section	.text.wait_ready,"ax",@progbits
 133              		.align	1
 135              	wait_ready:
 136              	.LFB9:
 144:tf_card.c     **** 	uint64_t start_mtime, delta_mtime;
 137              		.loc 1 144 1 is_stmt 1
 138              		.cfi_startproc
 139              	.LVL8:
 145:tf_card.c     **** 	BYTE d;
 140              		.loc 1 145 2
 146:tf_card.c     **** 	start_mtime = get_timer_value();
 141              		.loc 1 146 2
 147:tf_card.c     **** 
 142              		.loc 1 147 2
 144:tf_card.c     **** 	uint64_t start_mtime, delta_mtime;
 143              		.loc 1 144 1 is_stmt 0
 144 0000 3971     		addi	sp,sp,-64
 145              	.LCFI4:
 146              		.cfi_def_cfa_offset 64
 147 0002 26DA     		sw	s1,52(sp)
 148 0004 5AD0     		sw	s6,32(sp)
 149 0006 5ECE     		sw	s7,28(sp)
GAS LISTING C:\Users\Uzair\AppData\Local\Temp\cc0eZgbn.s 			page 7


 150 0008 62CC     		sw	s8,24(sp)
 151 000a 66CA     		sw	s9,20(sp)
 152 000c 6AC8     		sw	s10,16(sp)
 153 000e 06DE     		sw	ra,60(sp)
 154 0010 22DC     		sw	s0,56(sp)
 155 0012 4AD8     		sw	s2,48(sp)
 156 0014 4ED6     		sw	s3,44(sp)
 157 0016 52D4     		sw	s4,40(sp)
 158 0018 56D2     		sw	s5,36(sp)
 159              		.cfi_offset 9, -12
 160              		.cfi_offset 22, -32
 161              		.cfi_offset 23, -36
 162              		.cfi_offset 24, -40
 163              		.cfi_offset 25, -44
 164              		.cfi_offset 26, -48
 165              		.cfi_offset 1, -4
 166              		.cfi_offset 8, -8
 167              		.cfi_offset 18, -16
 168              		.cfi_offset 19, -20
 169              		.cfi_offset 20, -24
 170              		.cfi_offset 21, -28
 144:tf_card.c     **** 	uint64_t start_mtime, delta_mtime;
 171              		.loc 1 144 1
 172 001a AA84     		mv	s1,a0
 147:tf_card.c     **** 
 173              		.loc 1 147 16
 174 001c 97000000 		call	get_timer_value
 174      E7800000 
 175              	.LVL9:
 153:tf_card.c     **** 	/*
 176              		.loc 1 153 54
 177 0024 B7070000 		lui	a5,%hi(.LC0)
 178 0028 03AB0700 		lw	s6,%lo(.LC0)(a5)
 179 002c 83AB4700 		lw	s7,%lo(.LC0+4)(a5)
 147:tf_card.c     **** 
 180              		.loc 1 147 16
 181 0030 AA8C     		mv	s9,a0
 182 0032 2E8D     		mv	s10,a1
 183              	.LVL10:
 153:tf_card.c     **** 	/*
 184              		.loc 1 153 54
 185 0034 370C0000 		lui	s8,%hi(SystemCoreClock)
 186              	.LVL11:
 187              	.L13:
 149:tf_card.c     **** 		delta_mtime = get_timer_value();
 188              		.loc 1 149 2 is_stmt 1 discriminator 2
 150:tf_card.c     **** 		delta_mtime -=  start_mtime;
 189              		.loc 1 150 3 discriminator 2
 150:tf_card.c     **** 		delta_mtime -=  start_mtime;
 190              		.loc 1 150 17 is_stmt 0 discriminator 2
 191 0038 97000000 		call	get_timer_value
 191      E7800000 
 192              	.LVL12:
 151:tf_card.c     **** 		d = xchg_spi(0xFF);
 193              		.loc 1 151 3 is_stmt 1 discriminator 2
 151:tf_card.c     **** 		d = xchg_spi(0xFF);
 194              		.loc 1 151 15 is_stmt 0 discriminator 2
GAS LISTING C:\Users\Uzair\AppData\Local\Temp\cc0eZgbn.s 			page 8


 195 0040 33099541 		sub	s2,a0,s9
 196 0044 33352501 		sgtu	a0,s2,a0
 197              	.LVL13:
 198 0048 B385A541 		sub	a1,a1,s10
 199 004c 898D     		sub	a1,a1,a0
 152:tf_card.c     **** 	}while((d != 0xFF) && (delta_mtime <(SystemCoreClock/4000.0 *wt )));
 200              		.loc 1 152 7 discriminator 2
 201 004e 1305F00F 		li	a0,255
 151:tf_card.c     **** 		d = xchg_spi(0xFF);
 202              		.loc 1 151 15 discriminator 2
 203 0052 2EC6     		sw	a1,12(sp)
 204              	.LVL14:
 152:tf_card.c     **** 	}while((d != 0xFF) && (delta_mtime <(SystemCoreClock/4000.0 *wt )));
 205              		.loc 1 152 3 is_stmt 1 discriminator 2
 152:tf_card.c     **** 	}while((d != 0xFF) && (delta_mtime <(SystemCoreClock/4000.0 *wt )));
 206              		.loc 1 152 7 is_stmt 0 discriminator 2
 207 0054 97000000 		call	xchg_spi
 207      E7800000 
 208              	.LVL15:
 153:tf_card.c     **** 	/*
 209              		.loc 1 153 2 discriminator 2
 210 005c 9307F00F 		li	a5,255
 152:tf_card.c     **** 	}while((d != 0xFF) && (delta_mtime <(SystemCoreClock/4000.0 *wt )));
 211              		.loc 1 152 7 discriminator 2
 212 0060 2A84     		mv	s0,a0
 213              	.LVL16:
 153:tf_card.c     **** 	/*
 214              		.loc 1 153 2 discriminator 2
 215 0062 630FF504 		beq	a0,a5,.L12
 153:tf_card.c     **** 	/*
 216              		.loc 1 153 37 discriminator 1
 217 0066 B245     		lw	a1,12(sp)
 218 0068 4A85     		mv	a0,s2
 219              	.LVL17:
 220 006a 97000000 		call	__floatundidf
 220      E7800000 
 221              	.LVL18:
 222 0072 2A89     		mv	s2,a0
 223              	.LVL19:
 153:tf_card.c     **** 	/*
 224              		.loc 1 153 54 discriminator 1
 225 0074 03250C00 		lw	a0,%lo(SystemCoreClock)(s8)
 153:tf_card.c     **** 	/*
 226              		.loc 1 153 37 discriminator 1
 227 0078 AE89     		mv	s3,a1
 153:tf_card.c     **** 	/*
 228              		.loc 1 153 54 discriminator 1
 229 007a 97000000 		call	__floatunsidf
 229      E7800000 
 230              	.LVL20:
 231 0082 5A86     		mv	a2,s6
 232 0084 DE86     		mv	a3,s7
 233 0086 97000000 		call	__divdf3
 233      E7800000 
 234              	.LVL21:
 235 008e 2A8A     		mv	s4,a0
 153:tf_card.c     **** 	/*
GAS LISTING C:\Users\Uzair\AppData\Local\Temp\cc0eZgbn.s 			page 9


 236              		.loc 1 153 62 discriminator 1
 237 0090 2685     		mv	a0,s1
 153:tf_card.c     **** 	/*
 238              		.loc 1 153 54 discriminator 1
 239 0092 AE8A     		mv	s5,a1
 153:tf_card.c     **** 	/*
 240              		.loc 1 153 62 discriminator 1
 241 0094 97000000 		call	__floatunsidf
 241      E7800000 
 242              	.LVL22:
 243 009c 2A86     		mv	a2,a0
 244 009e AE86     		mv	a3,a1
 245 00a0 5285     		mv	a0,s4
 246 00a2 D685     		mv	a1,s5
 247 00a4 97000000 		call	__muldf3
 247      E7800000 
 248              	.LVL23:
 153:tf_card.c     **** 	/*
 249              		.loc 1 153 21 discriminator 1
 250 00ac 2A86     		mv	a2,a0
 251 00ae AE86     		mv	a3,a1
 252 00b0 4A85     		mv	a0,s2
 253 00b2 CE85     		mv	a1,s3
 254 00b4 97000000 		call	__ltdf2
 254      E7800000 
 255              	.LVL24:
 256 00bc E34E05F6 		blt	a0,zero,.L13
 257              	.L12:
 165:tf_card.c     **** }
 258              		.loc 1 165 2 is_stmt 1
 165:tf_card.c     **** }
 259              		.loc 1 165 25 is_stmt 0
 260 00c0 130514F0 		addi	a0,s0,-255
 166:tf_card.c     **** 
 261              		.loc 1 166 1
 262 00c4 F250     		lw	ra,60(sp)
 263              		.cfi_restore 1
 264 00c6 6254     		lw	s0,56(sp)
 265              		.cfi_restore 8
 266 00c8 D254     		lw	s1,52(sp)
 267              		.cfi_restore 9
 268              	.LVL25:
 269 00ca 4259     		lw	s2,48(sp)
 270              		.cfi_restore 18
 271 00cc B259     		lw	s3,44(sp)
 272              		.cfi_restore 19
 273 00ce 225A     		lw	s4,40(sp)
 274              		.cfi_restore 20
 275 00d0 925A     		lw	s5,36(sp)
 276              		.cfi_restore 21
 277 00d2 025B     		lw	s6,32(sp)
 278              		.cfi_restore 22
 279 00d4 F24B     		lw	s7,28(sp)
 280              		.cfi_restore 23
 281 00d6 624C     		lw	s8,24(sp)
 282              		.cfi_restore 24
 283 00d8 D24C     		lw	s9,20(sp)
GAS LISTING C:\Users\Uzair\AppData\Local\Temp\cc0eZgbn.s 			page 10


 284              		.cfi_restore 25
 285              	.LVL26:
 286 00da 424D     		lw	s10,16(sp)
 287              		.cfi_restore 26
 288 00dc 13351500 		seqz	a0,a0
 289 00e0 2161     		addi	sp,sp,64
 290              	.LCFI5:
 291              		.cfi_def_cfa_offset 0
 292 00e2 8280     		jr	ra
 293              		.cfi_endproc
 294              	.LFE9:
 296              		.section	.text._select,"ax",@progbits
 297              		.align	1
 299              	_select:
 300              	.LFB11:
 180:tf_card.c     **** 
 181:tf_card.c     **** 
 182:tf_card.c     **** 
 183:tf_card.c     **** /*-----------------------------------------------------------------------*/
 184:tf_card.c     **** /* Select card and wait for ready                                        */
 185:tf_card.c     **** /*-----------------------------------------------------------------------*/
 186:tf_card.c     **** 
 187:tf_card.c     **** static
 188:tf_card.c     **** int _select (void)	/* 1:OK, 0:Timeout */
 189:tf_card.c     **** {
 301              		.loc 1 189 1 is_stmt 1
 302              		.cfi_startproc
 190:tf_card.c     **** 	CS_LOW();		/* Set CS# low */
 303              		.loc 1 190 2
 189:tf_card.c     **** 	CS_LOW();		/* Set CS# low */
 304              		.loc 1 189 1 is_stmt 0
 305 0000 0111     		addi	sp,sp,-32
 306              	.LCFI6:
 307              		.cfi_def_cfa_offset 32
 308              		.loc 1 190 2
 309 0002 9165     		li	a1,16384
 310 0004 37150140 		li	a0,1073811456
 189:tf_card.c     **** 	CS_LOW();		/* Set CS# low */
 311              		.loc 1 189 1
 312 0008 06CE     		sw	ra,28(sp)
 313              		.cfi_offset 1, -4
 314              		.loc 1 190 2
 315 000a 97000000 		call	gpio_bit_reset
 315      E7800000 
 316              	.LVL27:
 191:tf_card.c     **** 	xchg_spi(0xFF);	/* Dummy clock (force DO enabled) */
 317              		.loc 1 191 2 is_stmt 1
 318 0012 1305F00F 		li	a0,255
 319 0016 97000000 		call	xchg_spi
 319      E7800000 
 320              	.LVL28:
 192:tf_card.c     **** 	if (wait_ready(500)) return 1;	/* Wait for card ready */
 321              		.loc 1 192 2
 322              		.loc 1 192 6 is_stmt 0
 323 001e 1305401F 		li	a0,500
 324 0022 97000000 		call	wait_ready
 324      E7800000 
GAS LISTING C:\Users\Uzair\AppData\Local\Temp\cc0eZgbn.s 			page 11


 325              	.LVL29:
 326              		.loc 1 192 5
 327 002a 2AC6     		sw	a0,12(sp)
 328 002c 09E9     		bne	a0,zero,.L18
 193:tf_card.c     **** 
 194:tf_card.c     **** 	deselect();
 329              		.loc 1 194 2 is_stmt 1
 330 002e 97000000 		call	deselect
 330      E7800000 
 331              	.LVL30:
 195:tf_card.c     **** 	return 0;	/* Timeout */
 332              		.loc 1 195 2
 333              		.loc 1 195 9 is_stmt 0
 334 0036 3245     		lw	a0,12(sp)
 335              	.L16:
 196:tf_card.c     **** }
 336              		.loc 1 196 1
 337 0038 F240     		lw	ra,28(sp)
 338              		.cfi_remember_state
 339              		.cfi_restore 1
 340 003a 0561     		addi	sp,sp,32
 341              	.LCFI7:
 342              		.cfi_def_cfa_offset 0
 343 003c 8280     		jr	ra
 344              	.L18:
 345              	.LCFI8:
 346              		.cfi_restore_state
 192:tf_card.c     **** 
 347              		.loc 1 192 30
 348 003e 0545     		li	a0,1
 349 0040 E5BF     		j	.L16
 350              		.cfi_endproc
 351              	.LFE11:
 353              		.section	.text.send_cmd,"ax",@progbits
 354              		.align	1
 356              	send_cmd:
 357              	.LFB14:
 197:tf_card.c     **** 
 198:tf_card.c     **** 
 199:tf_card.c     **** 
 200:tf_card.c     **** /*-----------------------------------------------------------------------*/
 201:tf_card.c     **** /* Receive a data packet from the MMC                                    */
 202:tf_card.c     **** /*-----------------------------------------------------------------------*/
 203:tf_card.c     **** 
 204:tf_card.c     **** static
 205:tf_card.c     **** int rcvr_datablock (	/* 1:OK, 0:Error */
 206:tf_card.c     **** 	BYTE *buff,			/* Data buffer */
 207:tf_card.c     **** 	UINT btr			/* Data block length (byte) */
 208:tf_card.c     **** )
 209:tf_card.c     **** {
 210:tf_card.c     **** 	BYTE token;
 211:tf_card.c     **** 
 212:tf_card.c     **** 	tf_start_timer(200);
 213:tf_card.c     **** 	do {							/* Wait for DataStart token in timeout of 200ms */
 214:tf_card.c     **** 		token = xchg_spi(0xFF);
 215:tf_card.c     **** 		/* This loop will take a time. Insert rot_rdq() here for multitask envilonment. */
 216:tf_card.c     **** 	} while ((token == 0xFF) && tf_timer_done());
GAS LISTING C:\Users\Uzair\AppData\Local\Temp\cc0eZgbn.s 			page 12


 217:tf_card.c     **** 	if(token != 0xFE) return 0;		/* Function fails if invalid DataStart token or timeout */
 218:tf_card.c     **** 
 219:tf_card.c     **** 	rcvr_spi_multi(buff, btr);		/* Store trailing data to the buffer */
 220:tf_card.c     **** 	xchg_spi(0xFF); xchg_spi(0xFF);			/* Discard CRC */
 221:tf_card.c     **** 
 222:tf_card.c     **** 	return 1;						/* Function succeeded */
 223:tf_card.c     **** }
 224:tf_card.c     **** 
 225:tf_card.c     **** static
 226:tf_card.c     **** int xmit_datablock (	/* 1:OK, 0:Failed */
 227:tf_card.c     **** 	const BYTE *buff,	/* Ponter to 512 byte data to be sent */
 228:tf_card.c     **** 	BYTE token			/* Token */
 229:tf_card.c     **** )
 230:tf_card.c     **** {
 231:tf_card.c     **** 	BYTE resp;
 232:tf_card.c     **** 
 233:tf_card.c     **** 
 234:tf_card.c     **** 	if (!wait_ready(500)) return 0;		/* Wait for card ready */
 235:tf_card.c     **** 
 236:tf_card.c     **** 	xchg_spi(token);					/* Send token */
 237:tf_card.c     **** 	if (token != 0xFD) {				/* Send data if token is other than StopTran */
 238:tf_card.c     **** 		xmit_spi_multi(buff, 512);		/* Data */
 239:tf_card.c     **** 		xchg_spi(0xFF); xchg_spi(0xFF);	/* Dummy CRC */
 240:tf_card.c     **** 
 241:tf_card.c     **** 		resp = xchg_spi(0xFF);				/* Receive data resp */
 242:tf_card.c     **** 		if ((resp & 0x1F) != 0x05) return 0;	/* Function fails if the data packet was not accepted */
 243:tf_card.c     **** 	}
 244:tf_card.c     **** 	return 1;
 245:tf_card.c     **** }
 246:tf_card.c     **** 
 247:tf_card.c     **** /*-----------------------------------------------------------------------*/
 248:tf_card.c     **** /* Send a command packet to the MMC                                      */
 249:tf_card.c     **** /*-----------------------------------------------------------------------*/
 250:tf_card.c     **** 
 251:tf_card.c     **** static
 252:tf_card.c     **** BYTE send_cmd (		/* Return value: R1 resp (bit7==1:Failed to send) */
 253:tf_card.c     **** 	BYTE cmd,		/* Command index */
 254:tf_card.c     **** 	DWORD arg		/* Argument */
 255:tf_card.c     **** )
 256:tf_card.c     **** {
 358              		.loc 1 256 1 is_stmt 1
 359              		.cfi_startproc
 360              	.LVL31:
 257:tf_card.c     **** 	BYTE n, res;
 361              		.loc 1 257 2
 258:tf_card.c     **** 
 259:tf_card.c     **** 
 260:tf_card.c     **** 	if (cmd & 0x80) {	/* Send a CMD55 prior to ACMD<n> */
 362              		.loc 1 260 2
 256:tf_card.c     **** 	BYTE n, res;
 363              		.loc 1 256 1 is_stmt 0
 364 0000 4111     		addi	sp,sp,-16
 365              	.LCFI9:
 366              		.cfi_def_cfa_offset 16
 367              		.loc 1 260 5
 368 0002 93178501 		slli	a5,a0,24
 256:tf_card.c     **** 	BYTE n, res;
GAS LISTING C:\Users\Uzair\AppData\Local\Temp\cc0eZgbn.s 			page 13


 369              		.loc 1 256 1
 370 0006 22C4     		sw	s0,8(sp)
 371 0008 26C2     		sw	s1,4(sp)
 372 000a 06C6     		sw	ra,12(sp)
 373              		.cfi_offset 8, -8
 374              		.cfi_offset 9, -12
 375              		.cfi_offset 1, -4
 376              		.loc 1 260 5
 377 000c E187     		srai	a5,a5,24
 256:tf_card.c     **** 	BYTE n, res;
 378              		.loc 1 256 1
 379 000e 2A84     		mv	s0,a0
 380 0010 AE84     		mv	s1,a1
 381              		.loc 1 260 5
 382 0012 63DF0700 		bge	a5,zero,.L21
 261:tf_card.c     **** 		cmd &= 0x7F;
 383              		.loc 1 261 3 is_stmt 1
 384              	.LVL32:
 262:tf_card.c     **** 		res = send_cmd(CMD55, 0);
 385              		.loc 1 262 3
 386              		.loc 1 262 9 is_stmt 0
 387 0016 8145     		li	a1,0
 388              	.LVL33:
 389 0018 13057003 		li	a0,55
 390 001c 97000000 		call	send_cmd
 390      E7800000 
 391              	.LVL34:
 263:tf_card.c     **** 		if (res > 1) return res;
 392              		.loc 1 263 6
 393 0024 0547     		li	a4,1
 262:tf_card.c     **** 		res = send_cmd(CMD55, 0);
 394              		.loc 1 262 9
 395 0026 AA87     		mv	a5,a0
 396              	.LVL35:
 397              		.loc 1 263 3 is_stmt 1
 398              		.loc 1 263 6 is_stmt 0
 399 0028 636CA70A 		bgtu	a0,a4,.L22
 261:tf_card.c     **** 		cmd &= 0x7F;
 400              		.loc 1 261 7
 401 002c 1374F407 		andi	s0,s0,127
 402              	.LVL36:
 403              	.L21:
 264:tf_card.c     **** 	}
 265:tf_card.c     **** 
 266:tf_card.c     **** 	/* Select the card and wait for ready except to stop multiple block read */
 267:tf_card.c     **** 	if (cmd != CMD12) {
 404              		.loc 1 267 2 is_stmt 1
 405              		.loc 1 267 5 is_stmt 0
 406 0030 B147     		li	a5,12
 407 0032 631CF408 		bne	s0,a5,.L23
 408              	.L26:
 268:tf_card.c     **** 		deselect();
 269:tf_card.c     **** 		if (!_select()) return 0xFF;
 270:tf_card.c     **** 	}
 271:tf_card.c     **** 
 272:tf_card.c     **** 	/* Send command packet */
 273:tf_card.c     **** 	xchg_spi(0x40 | cmd);				/* Start + command index */
GAS LISTING C:\Users\Uzair\AppData\Local\Temp\cc0eZgbn.s 			page 14


 409              		.loc 1 273 2 is_stmt 1
 410 0036 13650404 		ori	a0,s0,64
 411 003a 97000000 		call	xchg_spi
 411      E7800000 
 412              	.LVL37:
 274:tf_card.c     **** 	xchg_spi((BYTE)(arg >> 24));		/* Argument[31..24] */
 413              		.loc 1 274 2
 414 0042 13D58401 		srli	a0,s1,24
 415 0046 97000000 		call	xchg_spi
 415      E7800000 
 416              	.LVL38:
 275:tf_card.c     **** 	xchg_spi((BYTE)(arg >> 16));		/* Argument[23..16] */
 417              		.loc 1 275 2
 418              		.loc 1 275 22 is_stmt 0
 419 004e 13D50401 		srli	a0,s1,16
 420              		.loc 1 275 2
 421 0052 1375F50F 		andi	a0,a0,0xff
 422 0056 97000000 		call	xchg_spi
 422      E7800000 
 423              	.LVL39:
 276:tf_card.c     **** 	xchg_spi((BYTE)(arg >> 8));			/* Argument[15..8] */
 424              		.loc 1 276 2 is_stmt 1
 425              		.loc 1 276 22 is_stmt 0
 426 005e 13D58400 		srli	a0,s1,8
 427              		.loc 1 276 2
 428 0062 1375F50F 		andi	a0,a0,0xff
 429 0066 97000000 		call	xchg_spi
 429      E7800000 
 430              	.LVL40:
 277:tf_card.c     **** 	xchg_spi((BYTE)arg);				/* Argument[7..0] */
 431              		.loc 1 277 2 is_stmt 1
 432 006e 13F5F40F 		andi	a0,s1,0xff
 433 0072 97000000 		call	xchg_spi
 433      E7800000 
 434              	.LVL41:
 278:tf_card.c     **** 	n = 0x01;							/* Dummy CRC + Stop */
 435              		.loc 1 278 2
 279:tf_card.c     **** 	if (cmd == CMD0) n = 0x95;			/* Valid CRC for CMD0(0) */
 436              		.loc 1 279 2
 437              		.loc 1 279 21 is_stmt 0
 438 007a 13055009 		li	a0,149
 439              		.loc 1 279 5
 440 007e 19C4     		beq	s0,zero,.L24
 280:tf_card.c     **** 	if (cmd == CMD8) n = 0x87;			/* Valid CRC for CMD8(0x1AA) */
 441              		.loc 1 280 2 is_stmt 1
 442              		.loc 1 280 5 is_stmt 0
 443 0080 A147     		li	a5,8
 278:tf_card.c     **** 	n = 0x01;							/* Dummy CRC + Stop */
 444              		.loc 1 278 4
 445 0082 0545     		li	a0,1
 446              		.loc 1 280 5
 447 0084 6314F400 		bne	s0,a5,.L24
 448              		.loc 1 280 21
 449 0088 13057008 		li	a0,135
 450              	.L24:
 451              	.LVL42:
 281:tf_card.c     **** 	xchg_spi(n);
GAS LISTING C:\Users\Uzair\AppData\Local\Temp\cc0eZgbn.s 			page 15


 452              		.loc 1 281 2 is_stmt 1
 453 008c 97000000 		call	xchg_spi
 453      E7800000 
 454              	.LVL43:
 282:tf_card.c     **** 
 283:tf_card.c     **** 	/* Receive command resp */
 284:tf_card.c     **** 	if (cmd == CMD12) xchg_spi(0xFF);	/* Diacard following one byte when CMD12 */
 455              		.loc 1 284 2
 456              		.loc 1 284 5 is_stmt 0
 457 0094 B147     		li	a5,12
 458 0096 6318F400 		bne	s0,a5,.L27
 459              		.loc 1 284 20 is_stmt 1 discriminator 1
 460 009a 1305F00F 		li	a0,255
 461 009e 97000000 		call	xchg_spi
 461      E7800000 
 462              	.LVL44:
 463              	.L27:
 280:tf_card.c     **** 	xchg_spi(n);
 464              		.loc 1 280 21 is_stmt 0 discriminator 2
 465 00a6 2944     		li	s0,10
 466              	.LVL45:
 467              	.L28:
 285:tf_card.c     **** 	n = 10;								/* Wait for response (10 bytes max) */
 286:tf_card.c     **** 	do {
 468              		.loc 1 286 2 is_stmt 1 discriminator 2
 287:tf_card.c     **** 		res = xchg_spi(0xFF);
 469              		.loc 1 287 3 discriminator 2
 470              		.loc 1 287 9 is_stmt 0 discriminator 2
 471 00a8 1305F00F 		li	a0,255
 472 00ac 97000000 		call	xchg_spi
 472      E7800000 
 473              	.LVL46:
 288:tf_card.c     **** 	} while ((res & 0x80) && --n);
 474              		.loc 1 288 2 discriminator 2
 475 00b4 13178501 		slli	a4,a0,24
 476 00b8 6187     		srai	a4,a4,24
 287:tf_card.c     **** 		res = xchg_spi(0xFF);
 477              		.loc 1 287 9 discriminator 2
 478 00ba AA87     		mv	a5,a0
 479              	.LVL47:
 480              		.loc 1 288 2 discriminator 2
 481 00bc 63520702 		bge	a4,zero,.L22
 482              	.LVL48:
 483 00c0 7D14     		addi	s0,s0,-1
 484              	.LVL49:
 485 00c2 1374F40F 		andi	s0,s0,0xff
 486              		.loc 1 288 24 discriminator 1
 487 00c6 6DF0     		bne	s0,zero,.L28
 488 00c8 21A8     		j	.L22
 489              	.LVL50:
 490              	.L23:
 268:tf_card.c     **** 		if (!_select()) return 0xFF;
 491              		.loc 1 268 3 is_stmt 1
 492 00ca 97000000 		call	deselect
 492      E7800000 
 493              	.LVL51:
 269:tf_card.c     **** 	}
GAS LISTING C:\Users\Uzair\AppData\Local\Temp\cc0eZgbn.s 			page 16


 494              		.loc 1 269 3
 269:tf_card.c     **** 	}
 495              		.loc 1 269 8 is_stmt 0
 496 00d2 97000000 		call	_select
 496      E7800000 
 497              	.LVL52:
 269:tf_card.c     **** 	}
 498              		.loc 1 269 26
 499 00da 9307F00F 		li	a5,255
 269:tf_card.c     **** 	}
 500              		.loc 1 269 6
 501 00de 21FD     		bne	a0,zero,.L26
 502              	.LVL53:
 503              	.L22:
 289:tf_card.c     **** 
 290:tf_card.c     **** 	return res;							/* Return received response */
 291:tf_card.c     **** }
 504              		.loc 1 291 1
 505 00e0 B240     		lw	ra,12(sp)
 506              		.cfi_restore 1
 507 00e2 2244     		lw	s0,8(sp)
 508              		.cfi_restore 8
 509 00e4 9244     		lw	s1,4(sp)
 510              		.cfi_restore 9
 511              	.LVL54:
 512 00e6 3E85     		mv	a0,a5
 513 00e8 4101     		addi	sp,sp,16
 514              	.LCFI10:
 515              		.cfi_def_cfa_offset 0
 516 00ea 8280     		jr	ra
 517              		.cfi_endproc
 518              	.LFE14:
 520              		.section	.text.rcvr_datablock,"ax",@progbits
 521              		.align	1
 523              	rcvr_datablock:
 524              	.LFB12:
 209:tf_card.c     **** 	BYTE token;
 525              		.loc 1 209 1 is_stmt 1
 526              		.cfi_startproc
 527              	.LVL55:
 528 0000 4111     		addi	sp,sp,-16
 529              	.LCFI11:
 530              		.cfi_def_cfa_offset 16
 531 0002 22C4     		sw	s0,8(sp)
 532              		.cfi_offset 8, -8
 533 0004 2A84     		mv	s0,a0
 210:tf_card.c     **** 
 534              		.loc 1 210 2
 212:tf_card.c     **** 	do {							/* Wait for DataStart token in timeout of 200ms */
 535              		.loc 1 212 2
 536 0006 1305800C 		li	a0,200
 537              	.LVL56:
 209:tf_card.c     **** 	BYTE token;
 538              		.loc 1 209 1 is_stmt 0
 539 000a 26C2     		sw	s1,4(sp)
 540 000c 06C6     		sw	ra,12(sp)
 541              		.cfi_offset 9, -12
GAS LISTING C:\Users\Uzair\AppData\Local\Temp\cc0eZgbn.s 			page 17


 542              		.cfi_offset 1, -4
 209:tf_card.c     **** 	BYTE token;
 543              		.loc 1 209 1
 544 000e AE84     		mv	s1,a1
 212:tf_card.c     **** 	do {							/* Wait for DataStart token in timeout of 200ms */
 545              		.loc 1 212 2
 546 0010 97000000 		call	tf_start_timer
 546      E7800000 
 547              	.LVL57:
 548              	.L38:
 213:tf_card.c     **** 		token = xchg_spi(0xFF);
 549              		.loc 1 213 2 is_stmt 1 discriminator 2
 214:tf_card.c     **** 		/* This loop will take a time. Insert rot_rdq() here for multitask envilonment. */
 550              		.loc 1 214 3 discriminator 2
 214:tf_card.c     **** 		/* This loop will take a time. Insert rot_rdq() here for multitask envilonment. */
 551              		.loc 1 214 11 is_stmt 0 discriminator 2
 552 0018 1305F00F 		li	a0,255
 553 001c 97000000 		call	xchg_spi
 553      E7800000 
 554              	.LVL58:
 216:tf_card.c     **** 	if(token != 0xFE) return 0;		/* Function fails if invalid DataStart token or timeout */
 555              		.loc 1 216 2 discriminator 2
 556 0024 9307F00F 		li	a5,255
 557 0028 631DF500 		bne	a0,a5,.L37
 216:tf_card.c     **** 	if(token != 0xFE) return 0;		/* Function fails if invalid DataStart token or timeout */
 558              		.loc 1 216 30 discriminator 1
 559 002c 97000000 		call	tf_timer_done
 559      E7800000 
 560              	.LVL59:
 216:tf_card.c     **** 	if(token != 0xFE) return 0;		/* Function fails if invalid DataStart token or timeout */
 561              		.loc 1 216 27 discriminator 1
 562 0034 75F1     		bne	a0,zero,.L38
 563              	.L40:
 217:tf_card.c     **** 
 564              		.loc 1 217 27
 565 0036 0145     		li	a0,0
 566              	.LVL60:
 567              	.L36:
 223:tf_card.c     **** 
 568              		.loc 1 223 1
 569 0038 B240     		lw	ra,12(sp)
 570              		.cfi_remember_state
 571              		.cfi_restore 1
 572 003a 2244     		lw	s0,8(sp)
 573              		.cfi_restore 8
 574 003c 9244     		lw	s1,4(sp)
 575              		.cfi_restore 9
 576 003e 4101     		addi	sp,sp,16
 577              	.LCFI12:
 578              		.cfi_def_cfa_offset 0
 579 0040 8280     		jr	ra
 580              	.LVL61:
 581              	.L37:
 582              	.LCFI13:
 583              		.cfi_restore_state
 217:tf_card.c     **** 
 584              		.loc 1 217 2 is_stmt 1
GAS LISTING C:\Users\Uzair\AppData\Local\Temp\cc0eZgbn.s 			page 18


 217:tf_card.c     **** 
 585              		.loc 1 217 4 is_stmt 0
 586 0042 9307E00F 		li	a5,254
 587 0046 E318F5FE 		bne	a0,a5,.L40
 588 004a 8504     		addi	s1,s1,1
 589              	.LVL62:
 590 004c A294     		add	s1,s0,s1
 591              	.LVL63:
 592              	.L41:
 593              	.LBB7:
 594              	.LBB8:
 595              	.LBB9:
 596              	.LBB10:
 116:tf_card.c     **** 	{
 597              		.loc 1 116 2 is_stmt 1
 118:tf_card.c     **** 		buff++;
 598              		.loc 1 118 3
 118:tf_card.c     **** 		buff++;
 599              		.loc 1 118 11 is_stmt 0
 600 004e 1305F00F 		li	a0,255
 601 0052 97000000 		call	xchg_spi
 601      E7800000 
 602              	.LVL64:
 118:tf_card.c     **** 		buff++;
 603              		.loc 1 118 9
 604 005a 2300A400 		sb	a0,0(s0)
 119:tf_card.c     **** 	} while (btr--);
 605              		.loc 1 119 3 is_stmt 1
 119:tf_card.c     **** 	} while (btr--);
 606              		.loc 1 119 7 is_stmt 0
 607 005e 0504     		addi	s0,s0,1
 608              	.LVL65:
 120:tf_card.c     **** 
 609              		.loc 1 120 2
 610 0060 E39784FE 		bne	s1,s0,.L41
 611              	.LVL66:
 612              	.LBE10:
 613              	.LBE9:
 220:tf_card.c     **** 
 614              		.loc 1 220 2 is_stmt 1
 615 0064 1305F00F 		li	a0,255
 616 0068 97000000 		call	xchg_spi
 616      E7800000 
 617              	.LVL67:
 220:tf_card.c     **** 
 618              		.loc 1 220 18
 619 0070 1305F00F 		li	a0,255
 620 0074 97000000 		call	xchg_spi
 620      E7800000 
 621              	.LVL68:
 222:tf_card.c     **** }
 622              		.loc 1 222 2
 220:tf_card.c     **** 
 623              		.loc 1 220 18 is_stmt 0
 624 007c 0545     		li	a0,1
 625 007e 6DBF     		j	.L36
 626              	.LBE8:
GAS LISTING C:\Users\Uzair\AppData\Local\Temp\cc0eZgbn.s 			page 19


 627              	.LBE7:
 628              		.cfi_endproc
 629              	.LFE12:
 631              		.section	.text.xmit_datablock.part.1,"ax",@progbits
 632              		.align	1
 634              	xmit_datablock.part.1:
 635              	.LFB21:
 226:tf_card.c     **** 	const BYTE *buff,	/* Ponter to 512 byte data to be sent */
 636              		.loc 1 226 5 is_stmt 1
 637              		.cfi_startproc
 638              	.LVL69:
 238:tf_card.c     **** 		xchg_spi(0xFF); xchg_spi(0xFF);	/* Dummy CRC */
 639              		.loc 1 238 3
 226:tf_card.c     **** 	const BYTE *buff,	/* Ponter to 512 byte data to be sent */
 640              		.loc 1 226 5 is_stmt 0
 641 0000 4111     		addi	sp,sp,-16
 642              	.LCFI14:
 643              		.cfi_def_cfa_offset 16
 644 0002 22C4     		sw	s0,8(sp)
 645 0004 26C2     		sw	s1,4(sp)
 646 0006 4AC0     		sw	s2,0(sp)
 647 0008 06C6     		sw	ra,12(sp)
 648              		.cfi_offset 8, -8
 649              		.cfi_offset 9, -12
 650              		.cfi_offset 18, -16
 651              		.cfi_offset 1, -4
 226:tf_card.c     **** 	const BYTE *buff,	/* Ponter to 512 byte data to be sent */
 652              		.loc 1 226 5
 653 000a 2A89     		mv	s2,a0
 654              	.LVL70:
 655              	.LBB14:
 656              	.LBB15:
 131:tf_card.c     **** 		xchg_spi(*(buff+i));
 657              		.loc 1 131 11
 658 000c 0144     		li	s0,0
 131:tf_card.c     **** 		xchg_spi(*(buff+i));
 659              		.loc 1 131 2
 660 000e 93040020 		li	s1,512
 661              	.LVL71:
 662              	.L46:
 132:tf_card.c     **** 	}
 663              		.loc 1 132 3 is_stmt 1
 664 0012 B3078900 		add	a5,s2,s0
 665 0016 03C50700 		lbu	a0,0(a5)
 131:tf_card.c     **** 		xchg_spi(*(buff+i));
 666              		.loc 1 131 24 is_stmt 0
 667 001a 0504     		addi	s0,s0,1
 668              	.LVL72:
 132:tf_card.c     **** 	}
 669              		.loc 1 132 3
 670 001c 97000000 		call	xchg_spi
 670      E7800000 
 671              	.LVL73:
 131:tf_card.c     **** 		xchg_spi(*(buff+i));
 672              		.loc 1 131 2
 673 0024 E31794FE 		bne	s0,s1,.L46
 674              	.LVL74:
GAS LISTING C:\Users\Uzair\AppData\Local\Temp\cc0eZgbn.s 			page 20


 675              	.LBE15:
 676              	.LBE14:
 239:tf_card.c     **** 
 677              		.loc 1 239 3 is_stmt 1
 678 0028 1305F00F 		li	a0,255
 679 002c 97000000 		call	xchg_spi
 679      E7800000 
 680              	.LVL75:
 239:tf_card.c     **** 
 681              		.loc 1 239 19
 682 0034 1305F00F 		li	a0,255
 683 0038 97000000 		call	xchg_spi
 683      E7800000 
 684              	.LVL76:
 241:tf_card.c     **** 		if ((resp & 0x1F) != 0x05) return 0;	/* Function fails if the data packet was not accepted */
 685              		.loc 1 241 3
 241:tf_card.c     **** 		if ((resp & 0x1F) != 0x05) return 0;	/* Function fails if the data packet was not accepted */
 686              		.loc 1 241 10 is_stmt 0
 687 0040 1305F00F 		li	a0,255
 688 0044 97000000 		call	xchg_spi
 688      E7800000 
 689              	.LVL77:
 242:tf_card.c     **** 	}
 690              		.loc 1 242 3 is_stmt 1
 245:tf_card.c     **** 
 691              		.loc 1 245 1 is_stmt 0
 692 004c B240     		lw	ra,12(sp)
 693              		.cfi_restore 1
 694 004e 2244     		lw	s0,8(sp)
 695              		.cfi_restore 8
 242:tf_card.c     **** 	}
 696              		.loc 1 242 6
 697 0050 7D89     		andi	a0,a0,31
 698              	.LVL78:
 699 0052 6D15     		addi	a0,a0,-5
 245:tf_card.c     **** 
 700              		.loc 1 245 1
 701 0054 9244     		lw	s1,4(sp)
 702              		.cfi_restore 9
 703 0056 0249     		lw	s2,0(sp)
 704              		.cfi_restore 18
 705              	.LVL79:
 706 0058 13351500 		seqz	a0,a0
 707 005c 4101     		addi	sp,sp,16
 708              	.LCFI15:
 709              		.cfi_def_cfa_offset 0
 710 005e 8280     		jr	ra
 711              		.cfi_endproc
 712              	.LFE21:
 714              		.section	.text.disk_initialize,"ax",@progbits
 715              		.align	1
 716              		.globl	disk_initialize
 718              	disk_initialize:
 719              	.LFB15:
 292:tf_card.c     **** 
 293:tf_card.c     **** 
 294:tf_card.c     **** 
GAS LISTING C:\Users\Uzair\AppData\Local\Temp\cc0eZgbn.s 			page 21


 295:tf_card.c     **** /*--------------------------------------------------------------------------
 296:tf_card.c     **** 
 297:tf_card.c     ****    Public Functions
 298:tf_card.c     **** 
 299:tf_card.c     **** ---------------------------------------------------------------------------*/
 300:tf_card.c     **** 
 301:tf_card.c     **** 
 302:tf_card.c     **** /*-----------------------------------------------------------------------*/
 303:tf_card.c     **** /* Initialize disk drive                                                 */
 304:tf_card.c     **** /*-----------------------------------------------------------------------*/
 305:tf_card.c     **** 
 306:tf_card.c     **** DSTATUS disk_initialize (
 307:tf_card.c     **** 	BYTE drv		/* Physical drive number (0) */
 308:tf_card.c     **** )
 309:tf_card.c     **** {
 720              		.loc 1 309 1 is_stmt 1
 721              		.cfi_startproc
 722              	.LVL80:
 310:tf_card.c     **** 	BYTE n, cmd, ty, ocr[4];
 723              		.loc 1 310 2
 311:tf_card.c     **** 
 312:tf_card.c     **** 
 313:tf_card.c     **** 	if (drv) return STA_NOINIT;			/* Supports only drive 0 */
 724              		.loc 1 313 2
 725              		.loc 1 313 5 is_stmt 0
 726 0000 631C0526 		bne	a0,zero,.L65
 314:tf_card.c     **** 	init_spi();							/* Initialize SPI */
 727              		.loc 1 314 2 is_stmt 1
 728              	.LBB18:
 729              	.LBB19:
  64:tf_card.c     **** 
 730              		.loc 1 64 5
  66:tf_card.c     **** 	rcu_periph_clock_enable(RCU_GPIOC);
 731              		.loc 1 66 5
 732              	.LBE19:
 733              	.LBE18:
 309:tf_card.c     **** 	BYTE n, cmd, ty, ocr[4];
 734              		.loc 1 309 1 is_stmt 0
 735 0004 7971     		addi	sp,sp,-48
 736              	.LCFI16:
 737              		.cfi_def_cfa_offset 48
 738              	.LBB22:
 739              	.LBB20:
  66:tf_card.c     **** 	rcu_periph_clock_enable(RCU_GPIOC);
 740              		.loc 1 66 5
 741 0006 13053060 		li	a0,1539
 742              	.LVL81:
 743              	.LBE20:
 744              	.LBE22:
 309:tf_card.c     **** 	BYTE n, cmd, ty, ocr[4];
 745              		.loc 1 309 1
 746 000a 06D6     		sw	ra,44(sp)
 747 000c 22D4     		sw	s0,40(sp)
 748 000e 26D2     		sw	s1,36(sp)
 749 0010 4AD0     		sw	s2,32(sp)
 750              		.cfi_offset 1, -4
 751              		.cfi_offset 8, -8
GAS LISTING C:\Users\Uzair\AppData\Local\Temp\cc0eZgbn.s 			page 22


 752              		.cfi_offset 9, -12
 753              		.cfi_offset 18, -16
 754              	.LBB23:
 755              	.LBB21:
  66:tf_card.c     **** 	rcu_periph_clock_enable(RCU_GPIOC);
 756              		.loc 1 66 5
 757 0012 97000000 		call	rcu_periph_clock_enable
 757      E7800000 
 758              	.LVL82:
  67:tf_card.c     ****     rcu_periph_clock_enable(RCU_SPI1);
 759              		.loc 1 67 2 is_stmt 1
 760 001a 13054060 		li	a0,1540
 761 001e 97000000 		call	rcu_periph_clock_enable
 761      E7800000 
 762              	.LVL83:
  68:tf_card.c     **** 
 763              		.loc 1 68 5
 764 0026 1305E070 		li	a0,1806
 765 002a 97000000 		call	rcu_periph_clock_enable
 765      E7800000 
 766              	.LVL84:
  71:tf_card.c     ****     gpio_init(GPIOB, GPIO_MODE_IN_FLOATING, GPIO_OSPEED_50MHZ, GPIO_PIN_14);
 767              		.loc 1 71 5
 768 0032 37140140 		li	s0,1073811456
 769 0036 130504C0 		addi	a0,s0,-1024
 770 003a A966     		li	a3,40960
 771 003c 0D46     		li	a2,3
 772 003e E145     		li	a1,24
 773 0040 97000000 		call	gpio_init
 773      E7800000 
 774              	.LVL85:
  72:tf_card.c     ****     /* SPI1_CS(PB12) GPIO pin configuration */
 775              		.loc 1 72 5
 776 0048 130504C0 		addi	a0,s0,-1024
 777 004c 9166     		li	a3,16384
 778 004e 0D46     		li	a2,3
 779 0050 9145     		li	a1,4
 780 0052 97000000 		call	gpio_init
 780      E7800000 
 781              	.LVL86:
  74:tf_card.c     **** 
 782              		.loc 1 74 5
 783 005a 9166     		li	a3,16384
 784 005c 0D46     		li	a2,3
 785 005e C145     		li	a1,16
 786 0060 37150140 		li	a0,1073811456
 787 0064 97000000 		call	gpio_init
 787      E7800000 
 788              	.LVL87:
  77:tf_card.c     **** 
 789              		.loc 1 77 5
 790 006c 9165     		li	a1,16384
 791 006e 37150140 		li	a0,1073811456
 792 0072 97000000 		call	gpio_bit_set
 792      E7800000 
 793              	.LVL88:
  80:tf_card.c     ****     spi_init_struct.device_mode          = SPI_MASTER;
GAS LISTING C:\Users\Uzair\AppData\Local\Temp\cc0eZgbn.s 			page 23


 794              		.loc 1 80 5
  81:tf_card.c     ****     spi_init_struct.frame_size           = SPI_FRAMESIZE_8BIT;
 795              		.loc 1 81 42 is_stmt 0
 796 007a 93074010 		li	a5,260
 797 007e 3EC2     		sw	a5,4(sp)
  83:tf_card.c     ****     spi_init_struct.nss                  = SPI_NSS_SOFT;
 798              		.loc 1 83 42
 799 0080 8D47     		li	a5,3
  87:tf_card.c     **** 
 800              		.loc 1 87 5
 801 0082 B7440040 		li	s1,1073758208
  83:tf_card.c     ****     spi_init_struct.nss                  = SPI_NSS_SOFT;
 802              		.loc 1 83 42
 803 0086 3ECC     		sw	a5,24(sp)
  84:tf_card.c     ****     spi_init_struct.prescale             = SPI_PSC_32;
 804              		.loc 1 84 42
 805 0088 93070020 		li	a5,512
 806 008c 3EC8     		sw	a5,16(sp)
  87:tf_card.c     **** 
 807              		.loc 1 87 5
 808 008e 4C00     		addi	a1,sp,4
  85:tf_card.c     ****     spi_init_struct.endian               = SPI_ENDIAN_MSB;
 809              		.loc 1 85 42
 810 0090 93070002 		li	a5,32
  87:tf_card.c     **** 
 811              		.loc 1 87 5
 812 0094 13850480 		addi	a0,s1,-2048
  85:tf_card.c     ****     spi_init_struct.endian               = SPI_ENDIAN_MSB;
 813              		.loc 1 85 42
 814 0098 3ECE     		sw	a5,28(sp)
  80:tf_card.c     ****     spi_init_struct.device_mode          = SPI_MASTER;
 815              		.loc 1 80 42
 816 009a 02C4     		sw	zero,8(sp)
  81:tf_card.c     ****     spi_init_struct.frame_size           = SPI_FRAMESIZE_8BIT;
 817              		.loc 1 81 5 is_stmt 1
  82:tf_card.c     ****     spi_init_struct.clock_polarity_phase = SPI_CK_PL_HIGH_PH_2EDGE;
 818              		.loc 1 82 5
  82:tf_card.c     ****     spi_init_struct.clock_polarity_phase = SPI_CK_PL_HIGH_PH_2EDGE;
 819              		.loc 1 82 42 is_stmt 0
 820 009c 02C6     		sw	zero,12(sp)
  83:tf_card.c     ****     spi_init_struct.nss                  = SPI_NSS_SOFT;
 821              		.loc 1 83 5 is_stmt 1
  84:tf_card.c     ****     spi_init_struct.prescale             = SPI_PSC_32;
 822              		.loc 1 84 5
  85:tf_card.c     ****     spi_init_struct.endian               = SPI_ENDIAN_MSB;
 823              		.loc 1 85 5
  86:tf_card.c     ****     spi_init(SPI1, &spi_init_struct);
 824              		.loc 1 86 5
  86:tf_card.c     ****     spi_init(SPI1, &spi_init_struct);
 825              		.loc 1 86 42 is_stmt 0
 826 009e 02CA     		sw	zero,20(sp)
  87:tf_card.c     **** 
 827              		.loc 1 87 5 is_stmt 1
 828 00a0 97000000 		call	spi_init
 828      E7800000 
 829              	.LVL89:
  90:tf_card.c     ****     /* enable SPI1 */
GAS LISTING C:\Users\Uzair\AppData\Local\Temp\cc0eZgbn.s 			page 24


 830              		.loc 1 90 5
 831 00a8 9D45     		li	a1,7
 832 00aa 13850480 		addi	a0,s1,-2048
 833 00ae 97000000 		call	spi_crc_polynomial_set
 833      E7800000 
 834              	.LVL90:
  92:tf_card.c     **** 
 835              		.loc 1 92 5
 836 00b6 13850480 		addi	a0,s1,-2048
 837 00ba 97000000 		call	spi_enable
 837      E7800000 
 838              	.LVL91:
 839              	.LBE21:
 840              	.LBE23:
 315:tf_card.c     ****     delay_1ms(10);
 841              		.loc 1 315 5
 842 00c2 2945     		li	a0,10
 843 00c4 97000000 		call	delay_1ms
 843      E7800000 
 844              	.LVL92:
 316:tf_card.c     ****     //init_timer2();
 317:tf_card.c     **** 
 318:tf_card.c     **** 	if (Stat & STA_NODISK) return Stat;	/* Is card existing in the soket? */
 845              		.loc 1 318 2
 846              		.loc 1 318 11 is_stmt 0
 847 00cc 37040000 		lui	s0,%hi(.LANCHOR0)
 848 00d0 13070400 		addi	a4,s0,%lo(.LANCHOR0)
 849 00d4 83470700 		lbu	a5,0(a4)
 850 00d8 13040400 		addi	s0,s0,%lo(.LANCHOR0)
 851              		.loc 1 318 5
 852 00dc 898B     		andi	a5,a5,2
 853 00de 99CB     		beq	a5,zero,.L51
 854              		.loc 1 318 25 is_stmt 1 discriminator 1
 855              		.loc 1 318 32 is_stmt 0 discriminator 1
 856 00e0 03450700 		lbu	a0,0(a4)
 857              	.L93:
 319:tf_card.c     **** 
 320:tf_card.c     **** 	FCLK_SLOW();
 321:tf_card.c     **** 	CS_LOW();
 322:tf_card.c     **** 	for (n = 10; n; n--) xchg_spi(0xFF);	/* Send 80 dummy clocks */
 323:tf_card.c     **** 
 324:tf_card.c     **** 	ty = 0;
 325:tf_card.c     **** 	if (send_cmd(CMD0, 0) == 1) {			/* Put the card SPI/Idle state */
 326:tf_card.c     **** 		tf_start_timer(1000);						/* Initialization timeout = 1 sec */
 327:tf_card.c     **** 		if (send_cmd(CMD8, 0x1AA) == 1) {	/* SDv2? */
 328:tf_card.c     **** 			for (n = 0; n < 4; n++) ocr[n] = xchg_spi(0xFF);	/* Get 32 bit return value of R7 resp */
 329:tf_card.c     **** 			if (ocr[2] == 0x01 && ocr[3] == 0xAA) {				/* Is the card supports vcc of 2.7-3.6V? */
 330:tf_card.c     **** 				while (tf_timer_done() && send_cmd(ACMD41, 1UL << 30)) ;	/* Wait for end of initialization with
 331:tf_card.c     **** 				if (tf_timer_done() && send_cmd(CMD58, 0) == 0) {		/* Check CCS bit in the OCR */
 332:tf_card.c     **** 					for (n = 0; n < 4; n++) ocr[n] = xchg_spi(0xFF);
 333:tf_card.c     **** 					ty = (ocr[0] & 0x40) ? CT_SD2 | CT_BLOCK : CT_SD2;	/* Card id SDv2 */
 334:tf_card.c     **** 				}
 335:tf_card.c     **** 			}
 336:tf_card.c     **** 		} else {	/* Not SDv2 card */
 337:tf_card.c     **** 			if (send_cmd(ACMD41, 0) <= 1) 	{	/* SDv1 or MMC? */
 338:tf_card.c     **** 				ty = CT_SD1; cmd = ACMD41;	/* SDv1 (ACMD41(0)) */
 339:tf_card.c     **** 			} else {
GAS LISTING C:\Users\Uzair\AppData\Local\Temp\cc0eZgbn.s 			page 25


 340:tf_card.c     **** 				ty = CT_MMC; cmd = CMD1;	/* MMCv3 (CMD1(0)) */
 341:tf_card.c     **** 			}
 342:tf_card.c     **** 			while (tf_timer_done() && send_cmd(cmd, 0)) ;		/* Wait for end of initialization */
 343:tf_card.c     **** 			if (!tf_timer_done() || send_cmd(CMD16, 512) != 0)	/* Set block length: 512 */
 344:tf_card.c     **** 				ty = 0;
 345:tf_card.c     **** 		}
 346:tf_card.c     **** 	}
 347:tf_card.c     **** 	CardType = ty;	/* Card type */
 348:tf_card.c     **** 	deselect();
 349:tf_card.c     **** 
 350:tf_card.c     **** 	if (ty) {			/* OK */
 351:tf_card.c     **** 		FCLK_FAST();			/* Set fast clock */
 352:tf_card.c     **** 		Stat &= ~STA_NOINIT;	/* Clear STA_NOINIT flag */
 353:tf_card.c     **** 	} else {			/* Failed */
 354:tf_card.c     **** 		Stat = STA_NOINIT;
 355:tf_card.c     **** 	}
 356:tf_card.c     **** 
 357:tf_card.c     **** 	return Stat;
 358:tf_card.c     **** }
 858              		.loc 1 358 1
 859 00e4 B250     		lw	ra,44(sp)
 860              		.cfi_remember_state
 861              		.cfi_restore 1
 862 00e6 2254     		lw	s0,40(sp)
 863              		.cfi_restore 8
 864 00e8 9254     		lw	s1,36(sp)
 865              		.cfi_restore 9
 866 00ea 0259     		lw	s2,32(sp)
 867              		.cfi_restore 18
 357:tf_card.c     **** }
 868              		.loc 1 357 9
 869 00ec 1375F50F 		andi	a0,a0,0xff
 870              		.loc 1 358 1
 871 00f0 4561     		addi	sp,sp,48
 872              	.LCFI17:
 873              		.cfi_def_cfa_offset 0
 874 00f2 8280     		jr	ra
 875              	.L51:
 876              	.LCFI18:
 877              		.cfi_restore_state
 320:tf_card.c     **** 	CS_LOW();
 878              		.loc 1 320 2 is_stmt 1
 879 00f4 83A70480 		lw	a5,-2048(s1)
 321:tf_card.c     **** 	for (n = 10; n; n--) xchg_spi(0xFF);	/* Send 80 dummy clocks */
 880              		.loc 1 321 2 is_stmt 0
 881 00f8 9165     		li	a1,16384
 882 00fa 37150140 		li	a0,1073811456
 320:tf_card.c     **** 	CS_LOW();
 883              		.loc 1 320 2
 884 00fe 93F777FC 		andi	a5,a5,-57
 885 0102 93E78702 		ori	a5,a5,40
 886 0106 23A0F480 		sw	a5,-2048(s1)
 320:tf_card.c     **** 	CS_LOW();
 887              		.loc 1 320 13 is_stmt 1
 321:tf_card.c     **** 	for (n = 10; n; n--) xchg_spi(0xFF);	/* Send 80 dummy clocks */
 888              		.loc 1 321 2
 889 010a 97000000 		call	gpio_bit_reset
GAS LISTING C:\Users\Uzair\AppData\Local\Temp\cc0eZgbn.s 			page 26


 889      E7800000 
 890              	.LVL93:
 322:tf_card.c     **** 
 891              		.loc 1 322 2
 321:tf_card.c     **** 	for (n = 10; n; n--) xchg_spi(0xFF);	/* Send 80 dummy clocks */
 892              		.loc 1 321 2 is_stmt 0
 893 0112 A944     		li	s1,10
 894              	.LVL94:
 895              	.L52:
 322:tf_card.c     **** 
 896              		.loc 1 322 23 is_stmt 1 discriminator 3
 897 0114 FD14     		addi	s1,s1,-1
 898 0116 1305F00F 		li	a0,255
 899 011a 93F4F40F 		andi	s1,s1,0xff
 900 011e 97000000 		call	xchg_spi
 900      E7800000 
 901              	.LVL95:
 322:tf_card.c     **** 
 902              		.loc 1 322 2 is_stmt 0 discriminator 3
 903 0126 FDF4     		bne	s1,zero,.L52
 324:tf_card.c     **** 	if (send_cmd(CMD0, 0) == 1) {			/* Put the card SPI/Idle state */
 904              		.loc 1 324 2 is_stmt 1
 905              	.LVL96:
 325:tf_card.c     **** 		tf_start_timer(1000);						/* Initialization timeout = 1 sec */
 906              		.loc 1 325 2
 325:tf_card.c     **** 		tf_start_timer(1000);						/* Initialization timeout = 1 sec */
 907              		.loc 1 325 6 is_stmt 0
 908 0128 8145     		li	a1,0
 909 012a 0145     		li	a0,0
 910 012c 97000000 		call	send_cmd
 910      E7800000 
 911              	.LVL97:
 325:tf_card.c     **** 		tf_start_timer(1000);						/* Initialization timeout = 1 sec */
 912              		.loc 1 325 5
 913 0134 8547     		li	a5,1
 325:tf_card.c     **** 		tf_start_timer(1000);						/* Initialization timeout = 1 sec */
 914              		.loc 1 325 6
 915 0136 2A89     		mv	s2,a0
 325:tf_card.c     **** 		tf_start_timer(1000);						/* Initialization timeout = 1 sec */
 916              		.loc 1 325 5
 917 0138 631EF512 		bne	a0,a5,.L53
 326:tf_card.c     **** 		if (send_cmd(CMD8, 0x1AA) == 1) {	/* SDv2? */
 918              		.loc 1 326 3 is_stmt 1
 919 013c 1305803E 		li	a0,1000
 920 0140 97000000 		call	tf_start_timer
 920      E7800000 
 921              	.LVL98:
 327:tf_card.c     **** 			for (n = 0; n < 4; n++) ocr[n] = xchg_spi(0xFF);	/* Get 32 bit return value of R7 resp */
 922              		.loc 1 327 3
 327:tf_card.c     **** 			for (n = 0; n < 4; n++) ocr[n] = xchg_spi(0xFF);	/* Get 32 bit return value of R7 resp */
 923              		.loc 1 327 7 is_stmt 0
 924 0148 9305A01A 		li	a1,426
 925 014c 2145     		li	a0,8
 926 014e 97000000 		call	send_cmd
 926      E7800000 
 927              	.LVL99:
 327:tf_card.c     **** 			for (n = 0; n < 4; n++) ocr[n] = xchg_spi(0xFF);	/* Get 32 bit return value of R7 resp */
GAS LISTING C:\Users\Uzair\AppData\Local\Temp\cc0eZgbn.s 			page 27


 928              		.loc 1 327 6
 929 0156 6319250D 		bne	a0,s2,.L54
 328:tf_card.c     **** 			if (ocr[2] == 0x01 && ocr[3] == 0xAA) {				/* Is the card supports vcc of 2.7-3.6V? */
 930              		.loc 1 328 4
 931 015a 1149     		li	s2,4
 932              	.L55:
 933              	.LVL100:
 328:tf_card.c     **** 			if (ocr[2] == 0x01 && ocr[3] == 0xAA) {				/* Is the card supports vcc of 2.7-3.6V? */
 934              		.loc 1 328 28 is_stmt 1 discriminator 3
 328:tf_card.c     **** 			if (ocr[2] == 0x01 && ocr[3] == 0xAA) {				/* Is the card supports vcc of 2.7-3.6V? */
 935              		.loc 1 328 37 is_stmt 0 discriminator 3
 936 015c 1305F00F 		li	a0,255
 937 0160 97000000 		call	xchg_spi
 937      E7800000 
 938              	.LVL101:
 328:tf_card.c     **** 			if (ocr[2] == 0x01 && ocr[3] == 0xAA) {				/* Is the card supports vcc of 2.7-3.6V? */
 939              		.loc 1 328 35 discriminator 3
 940 0168 5C00     		addi	a5,sp,4
 941 016a A697     		add	a5,a5,s1
 942 016c 2380A700 		sb	a0,0(a5)
 943              	.LVL102:
 944 0170 8504     		addi	s1,s1,1
 945              	.LVL103:
 328:tf_card.c     **** 			if (ocr[2] == 0x01 && ocr[3] == 0xAA) {				/* Is the card supports vcc of 2.7-3.6V? */
 946              		.loc 1 328 4 discriminator 3
 947 0172 E39524FF 		bne	s1,s2,.L55
 329:tf_card.c     **** 				while (tf_timer_done() && send_cmd(ACMD41, 1UL << 30)) ;	/* Wait for end of initialization with
 948              		.loc 1 329 4 is_stmt 1
 329:tf_card.c     **** 				while (tf_timer_done() && send_cmd(ACMD41, 1UL << 30)) ;	/* Wait for end of initialization with
 949              		.loc 1 329 7 is_stmt 0
 950 0176 03476100 		lbu	a4,6(sp)
 951 017a 8547     		li	a5,1
 952 017c 631CF70E 		bne	a4,a5,.L53
 329:tf_card.c     **** 				while (tf_timer_done() && send_cmd(ACMD41, 1UL << 30)) ;	/* Wait for end of initialization with
 953              		.loc 1 329 23 discriminator 1
 954 0180 03477100 		lbu	a4,7(sp)
 955 0184 9307A00A 		li	a5,170
 956 0188 6316F70E 		bne	a4,a5,.L53
 957              	.L57:
 330:tf_card.c     **** 				if (tf_timer_done() && send_cmd(CMD58, 0) == 0) {		/* Check CCS bit in the OCR */
 958              		.loc 1 330 60 is_stmt 1 discriminator 2
 330:tf_card.c     **** 				if (tf_timer_done() && send_cmd(CMD58, 0) == 0) {		/* Check CCS bit in the OCR */
 959              		.loc 1 330 12 is_stmt 0 discriminator 2
 960 018c 97000000 		call	tf_timer_done
 960      E7800000 
 961              	.LVL104:
 330:tf_card.c     **** 				if (tf_timer_done() && send_cmd(CMD58, 0) == 0) {		/* Check CCS bit in the OCR */
 962              		.loc 1 330 11 discriminator 2
 963 0194 11C9     		beq	a0,zero,.L56
 330:tf_card.c     **** 				if (tf_timer_done() && send_cmd(CMD58, 0) == 0) {		/* Check CCS bit in the OCR */
 964              		.loc 1 330 31 discriminator 1
 965 0196 B7050040 		li	a1,1073741824
 966 019a 1305900A 		li	a0,169
 967 019e 97000000 		call	send_cmd
 967      E7800000 
 968              	.LVL105:
 330:tf_card.c     **** 				if (tf_timer_done() && send_cmd(CMD58, 0) == 0) {		/* Check CCS bit in the OCR */
GAS LISTING C:\Users\Uzair\AppData\Local\Temp\cc0eZgbn.s 			page 28


 969              		.loc 1 330 28 discriminator 1
 970 01a6 7DF1     		bne	a0,zero,.L57
 971              	.L56:
 331:tf_card.c     **** 					for (n = 0; n < 4; n++) ocr[n] = xchg_spi(0xFF);
 972              		.loc 1 331 5 is_stmt 1
 331:tf_card.c     **** 					for (n = 0; n < 4; n++) ocr[n] = xchg_spi(0xFF);
 973              		.loc 1 331 9 is_stmt 0
 974 01a8 97000000 		call	tf_timer_done
 974      E7800000 
 975              	.LVL106:
 331:tf_card.c     **** 					for (n = 0; n < 4; n++) ocr[n] = xchg_spi(0xFF);
 976              		.loc 1 331 8
 977 01b0 71C1     		beq	a0,zero,.L53
 331:tf_card.c     **** 					for (n = 0; n < 4; n++) ocr[n] = xchg_spi(0xFF);
 978              		.loc 1 331 28 discriminator 1
 979 01b2 8145     		li	a1,0
 980 01b4 1305A003 		li	a0,58
 981 01b8 97000000 		call	send_cmd
 981      E7800000 
 982              	.LVL107:
 331:tf_card.c     **** 					for (n = 0; n < 4; n++) ocr[n] = xchg_spi(0xFF);
 983              		.loc 1 331 25 discriminator 1
 984 01c0 55E9     		bne	a0,zero,.L53
 985 01c2 8144     		li	s1,0
 332:tf_card.c     **** 					ty = (ocr[0] & 0x40) ? CT_SD2 | CT_BLOCK : CT_SD2;	/* Card id SDv2 */
 986              		.loc 1 332 6
 987 01c4 1149     		li	s2,4
 988              	.L58:
 989              	.LVL108:
 332:tf_card.c     **** 					ty = (ocr[0] & 0x40) ? CT_SD2 | CT_BLOCK : CT_SD2;	/* Card id SDv2 */
 990              		.loc 1 332 30 is_stmt 1 discriminator 3
 332:tf_card.c     **** 					ty = (ocr[0] & 0x40) ? CT_SD2 | CT_BLOCK : CT_SD2;	/* Card id SDv2 */
 991              		.loc 1 332 39 is_stmt 0 discriminator 3
 992 01c6 1305F00F 		li	a0,255
 993 01ca 97000000 		call	xchg_spi
 993      E7800000 
 994              	.LVL109:
 332:tf_card.c     **** 					ty = (ocr[0] & 0x40) ? CT_SD2 | CT_BLOCK : CT_SD2;	/* Card id SDv2 */
 995              		.loc 1 332 37 discriminator 3
 996 01d2 5C00     		addi	a5,sp,4
 997 01d4 A697     		add	a5,a5,s1
 998 01d6 2380A700 		sb	a0,0(a5)
 999              	.LVL110:
 1000 01da 8504     		addi	s1,s1,1
 1001              	.LVL111:
 332:tf_card.c     **** 					ty = (ocr[0] & 0x40) ? CT_SD2 | CT_BLOCK : CT_SD2;	/* Card id SDv2 */
 1002              		.loc 1 332 6 discriminator 3
 1003 01dc E39524FF 		bne	s1,s2,.L58
 333:tf_card.c     **** 				}
 1004              		.loc 1 333 6 is_stmt 1
 333:tf_card.c     **** 				}
 1005              		.loc 1 333 9 is_stmt 0
 1006 01e0 83474100 		lbu	a5,4(sp)
 1007 01e4 B144     		li	s1,12
 1008 01e6 93F70704 		andi	a5,a5,64
 1009 01ea 91E3     		bne	a5,zero,.L59
 1010 01ec 9144     		li	s1,4
GAS LISTING C:\Users\Uzair\AppData\Local\Temp\cc0eZgbn.s 			page 29


 1011              	.LVL112:
 1012              	.L59:
 347:tf_card.c     **** 	deselect();
 1013              		.loc 1 347 2 is_stmt 1
 347:tf_card.c     **** 	deselect();
 1014              		.loc 1 347 11 is_stmt 0
 1015 01ee B7070000 		lui	a5,%hi(.LANCHOR1)
 1016 01f2 23809700 		sb	s1,%lo(.LANCHOR1)(a5)
 348:tf_card.c     **** 
 1017              		.loc 1 348 2 is_stmt 1
 1018 01f6 97000000 		call	deselect
 1018      E7800000 
 1019              	.LVL113:
 350:tf_card.c     **** 		FCLK_FAST();			/* Set fast clock */
 1020              		.loc 1 350 2
 354:tf_card.c     **** 	}
 1021              		.loc 1 354 8 is_stmt 0
 1022 01fe 8547     		li	a5,1
 350:tf_card.c     **** 		FCLK_FAST();			/* Set fast clock */
 1023              		.loc 1 350 5
 1024 0200 99CC     		beq	s1,zero,.L92
 351:tf_card.c     **** 		Stat &= ~STA_NOINIT;	/* Clear STA_NOINIT flag */
 1025              		.loc 1 351 3 is_stmt 1
 1026 0202 37470040 		li	a4,1073758208
 1027 0206 83270780 		lw	a5,-2048(a4)
 1028 020a 93F777FC 		andi	a5,a5,-57
 1029 020e 93E70701 		ori	a5,a5,16
 1030 0212 2320F780 		sw	a5,-2048(a4)
 351:tf_card.c     **** 		Stat &= ~STA_NOINIT;	/* Clear STA_NOINIT flag */
 1031              		.loc 1 351 14
 352:tf_card.c     **** 	} else {			/* Failed */
 1032              		.loc 1 352 3
 352:tf_card.c     **** 	} else {			/* Failed */
 1033              		.loc 1 352 8 is_stmt 0
 1034 0216 83470400 		lbu	a5,0(s0)
 1035 021a 93F7E70F 		andi	a5,a5,254
 1036              	.L92:
 354:tf_card.c     **** 	}
 1037              		.loc 1 354 8
 1038 021e 2300F400 		sb	a5,0(s0)
 357:tf_card.c     **** }
 1039              		.loc 1 357 2 is_stmt 1
 357:tf_card.c     **** }
 1040              		.loc 1 357 9 is_stmt 0
 1041 0222 03450400 		lbu	a0,0(s0)
 1042 0226 7DBD     		j	.L93
 1043              	.LVL114:
 1044              	.L54:
 337:tf_card.c     **** 				ty = CT_SD1; cmd = ACMD41;	/* SDv1 (ACMD41(0)) */
 1045              		.loc 1 337 4 is_stmt 1
 337:tf_card.c     **** 				ty = CT_SD1; cmd = ACMD41;	/* SDv1 (ACMD41(0)) */
 1046              		.loc 1 337 8 is_stmt 0
 1047 0228 8145     		li	a1,0
 1048 022a 1305900A 		li	a0,169
 1049 022e 97000000 		call	send_cmd
 1049      E7800000 
 1050              	.LVL115:
GAS LISTING C:\Users\Uzair\AppData\Local\Temp\cc0eZgbn.s 			page 30


 340:tf_card.c     **** 			}
 1051              		.loc 1 340 8
 1052 0236 8544     		li	s1,1
 337:tf_card.c     **** 				ty = CT_SD1; cmd = ACMD41;	/* SDv1 (ACMD41(0)) */
 1053              		.loc 1 337 7
 1054 0238 6365A900 		bgtu	a0,s2,.L62
 338:tf_card.c     **** 			} else {
 1055              		.loc 1 338 8
 1056 023c 8944     		li	s1,2
 338:tf_card.c     **** 			} else {
 1057              		.loc 1 338 22
 1058 023e 1309900A 		li	s2,169
 1059              	.LVL116:
 1060              	.L62:
 342:tf_card.c     **** 			if (!tf_timer_done() || send_cmd(CMD16, 512) != 0)	/* Set block length: 512 */
 1061              		.loc 1 342 48 is_stmt 1 discriminator 2
 342:tf_card.c     **** 			if (!tf_timer_done() || send_cmd(CMD16, 512) != 0)	/* Set block length: 512 */
 1062              		.loc 1 342 11 is_stmt 0 discriminator 2
 1063 0242 97000000 		call	tf_timer_done
 1063      E7800000 
 1064              	.LVL117:
 342:tf_card.c     **** 			if (!tf_timer_done() || send_cmd(CMD16, 512) != 0)	/* Set block length: 512 */
 1065              		.loc 1 342 10 discriminator 2
 1066 024a 01C9     		beq	a0,zero,.L61
 342:tf_card.c     **** 			if (!tf_timer_done() || send_cmd(CMD16, 512) != 0)	/* Set block length: 512 */
 1067              		.loc 1 342 30 discriminator 1
 1068 024c 8145     		li	a1,0
 1069 024e 4A85     		mv	a0,s2
 1070 0250 97000000 		call	send_cmd
 1070      E7800000 
 1071              	.LVL118:
 342:tf_card.c     **** 			if (!tf_timer_done() || send_cmd(CMD16, 512) != 0)	/* Set block length: 512 */
 1072              		.loc 1 342 27 discriminator 1
 1073 0258 6DF5     		bne	a0,zero,.L62
 1074              	.L61:
 343:tf_card.c     **** 				ty = 0;
 1075              		.loc 1 343 4 is_stmt 1
 343:tf_card.c     **** 				ty = 0;
 1076              		.loc 1 343 9 is_stmt 0
 1077 025a 97000000 		call	tf_timer_done
 1077      E7800000 
 1078              	.LVL119:
 343:tf_card.c     **** 				ty = 0;
 1079              		.loc 1 343 7
 1080 0262 09C9     		beq	a0,zero,.L53
 343:tf_card.c     **** 				ty = 0;
 1081              		.loc 1 343 28 discriminator 1
 1082 0264 93050020 		li	a1,512
 1083 0268 4145     		li	a0,16
 1084 026a 97000000 		call	send_cmd
 1084      E7800000 
 1085              	.LVL120:
 343:tf_card.c     **** 				ty = 0;
 1086              		.loc 1 343 25 discriminator 1
 1087 0272 35DD     		beq	a0,zero,.L59
 1088              	.LVL121:
 1089              	.L53:
GAS LISTING C:\Users\Uzair\AppData\Local\Temp\cc0eZgbn.s 			page 31


 344:tf_card.c     **** 		}
 1090              		.loc 1 344 8
 1091 0274 8144     		li	s1,0
 1092 0276 A5BF     		j	.L59
 1093              	.LVL122:
 1094              	.L65:
 1095              	.LCFI19:
 1096              		.cfi_def_cfa_offset 0
 1097              		.cfi_restore 1
 1098              		.cfi_restore 8
 1099              		.cfi_restore 9
 1100              		.cfi_restore 18
 313:tf_card.c     **** 	init_spi();							/* Initialize SPI */
 1101              		.loc 1 313 18
 1102 0278 0545     		li	a0,1
 1103              	.LVL123:
 1104              		.loc 1 358 1
 1105 027a 8280     		ret
 1106              		.cfi_endproc
 1107              	.LFE15:
 1109              		.section	.text.disk_status,"ax",@progbits
 1110              		.align	1
 1111              		.globl	disk_status
 1113              	disk_status:
 1114              	.LFB16:
 359:tf_card.c     **** 
 360:tf_card.c     **** 
 361:tf_card.c     **** 
 362:tf_card.c     **** /*-----------------------------------------------------------------------*/
 363:tf_card.c     **** /* Get disk status                                                       */
 364:tf_card.c     **** /*-----------------------------------------------------------------------*/
 365:tf_card.c     **** 
 366:tf_card.c     **** DSTATUS disk_status (
 367:tf_card.c     **** 	BYTE drv		/* Physical drive number (0) */
 368:tf_card.c     **** )
 369:tf_card.c     **** {
 1115              		.loc 1 369 1 is_stmt 1
 1116              		.cfi_startproc
 1117              	.LVL124:
 370:tf_card.c     **** 	if (drv) return STA_NOINIT;		/* Supports only drive 0 */
 1118              		.loc 1 370 2
 1119              		.loc 1 370 5 is_stmt 0
 1120 0000 01E9     		bne	a0,zero,.L96
 371:tf_card.c     **** 
 372:tf_card.c     **** 	return Stat;	/* Return disk status */
 1121              		.loc 1 372 2 is_stmt 1
 1122              		.loc 1 372 9 is_stmt 0
 1123 0002 B7070000 		lui	a5,%hi(.LANCHOR0)
 1124 0006 03C50700 		lbu	a0,%lo(.LANCHOR0)(a5)
 1125              	.LVL125:
 1126 000a 1375F50F 		andi	a0,a0,0xff
 1127 000e 8280     		ret
 1128              	.LVL126:
 1129              	.L96:
 370:tf_card.c     **** 	if (drv) return STA_NOINIT;		/* Supports only drive 0 */
 1130              		.loc 1 370 18
 1131 0010 0545     		li	a0,1
GAS LISTING C:\Users\Uzair\AppData\Local\Temp\cc0eZgbn.s 			page 32


 1132              	.LVL127:
 373:tf_card.c     **** }
 1133              		.loc 1 373 1
 1134 0012 8280     		ret
 1135              		.cfi_endproc
 1136              	.LFE16:
 1138              		.section	.text.disk_read,"ax",@progbits
 1139              		.align	1
 1140              		.globl	disk_read
 1142              	disk_read:
 1143              	.LFB17:
 374:tf_card.c     **** 
 375:tf_card.c     **** 
 376:tf_card.c     **** 
 377:tf_card.c     **** /*-----------------------------------------------------------------------*/
 378:tf_card.c     **** /* Read sector(s)                                                        */
 379:tf_card.c     **** /*-----------------------------------------------------------------------*/
 380:tf_card.c     **** 
 381:tf_card.c     **** DRESULT disk_read (
 382:tf_card.c     **** 	BYTE drv,		/* Physical drive number (0) */
 383:tf_card.c     **** 	BYTE *buff,		/* Pointer to the data buffer to store read data */
 384:tf_card.c     **** 	DWORD sector,	/* Start sector number (LBA) */
 385:tf_card.c     **** 	UINT count		/* Number of sectors to read (1..128) */
 386:tf_card.c     **** )
 387:tf_card.c     **** {
 1144              		.loc 1 387 1 is_stmt 1
 1145              		.cfi_startproc
 1146              	.LVL128:
 388:tf_card.c     **** 	if (drv || !count) return RES_PARERR;		/* Check parameter */
 1147              		.loc 1 388 2
 1148              		.loc 1 388 5 is_stmt 0
 1149 0000 59ED     		bne	a0,zero,.L104
 387:tf_card.c     **** 	if (drv || !count) return RES_PARERR;		/* Check parameter */
 1150              		.loc 1 387 1 discriminator 2
 1151 0002 4111     		addi	sp,sp,-16
 1152              	.LCFI20:
 1153              		.cfi_def_cfa_offset 16
 1154 0004 22C4     		sw	s0,8(sp)
 1155 0006 06C6     		sw	ra,12(sp)
 1156 0008 26C2     		sw	s1,4(sp)
 1157              		.cfi_offset 8, -8
 1158              		.cfi_offset 1, -4
 1159              		.cfi_offset 9, -12
 1160 000a 3684     		mv	s0,a3
 1161              		.loc 1 388 28 discriminator 2
 1162 000c 1145     		li	a0,4
 1163              	.LVL129:
 1164              		.loc 1 388 10 discriminator 2
 1165 000e B1CA     		beq	a3,zero,.L97
 389:tf_card.c     **** 	if (Stat & STA_NOINIT) return RES_NOTRDY;	/* Check if drive is ready */
 1166              		.loc 1 389 2 is_stmt 1
 1167              		.loc 1 389 11 is_stmt 0
 1168 0010 B7070000 		lui	a5,%hi(.LANCHOR0)
 1169 0014 83C70700 		lbu	a5,%lo(.LANCHOR0)(a5)
 1170              		.loc 1 389 32
 1171 0018 0D45     		li	a0,3
 1172              		.loc 1 389 5
GAS LISTING C:\Users\Uzair\AppData\Local\Temp\cc0eZgbn.s 			page 33


 1173 001a 858B     		andi	a5,a5,1
 1174 001c B9E3     		bne	a5,zero,.L97
 390:tf_card.c     **** 
 391:tf_card.c     **** 	if (!(CardType & CT_BLOCK)) sector *= 512;	/* LBA ot BA conversion (byte addressing cards) */
 1175              		.loc 1 391 5
 1176 001e B7070000 		lui	a5,%hi(.LANCHOR1)
 1177 0022 83C70700 		lbu	a5,%lo(.LANCHOR1)(a5)
 1178 0026 AE84     		mv	s1,a1
 1179 0028 B285     		mv	a1,a2
 1180              	.LVL130:
 1181              		.loc 1 391 2 is_stmt 1
 1182              		.loc 1 391 5 is_stmt 0
 1183 002a A18B     		andi	a5,a5,8
 1184 002c 99E3     		bne	a5,zero,.L99
 1185              		.loc 1 391 30 is_stmt 1 discriminator 1
 1186              		.loc 1 391 37 is_stmt 0 discriminator 1
 1187 002e 93159600 		slli	a1,a2,9
 1188              	.LVL131:
 1189              	.L99:
 392:tf_card.c     **** 
 393:tf_card.c     **** 	if (count == 1) {	/* Single sector read */
 1190              		.loc 1 393 2 is_stmt 1
 1191              		.loc 1 393 5 is_stmt 0
 1192 0032 8547     		li	a5,1
 1193 0034 631CF402 		bne	s0,a5,.L100
 394:tf_card.c     **** 		if ((send_cmd(CMD17, sector) == 0)	/* READ_SINGLE_BLOCK */
 1194              		.loc 1 394 3 is_stmt 1
 1195              		.loc 1 394 8 is_stmt 0
 1196 0038 4545     		li	a0,17
 1197 003a 97000000 		call	send_cmd
 1197      E7800000 
 1198              	.LVL132:
 1199              		.loc 1 394 6
 1200 0042 11E9     		bne	a0,zero,.L101
 395:tf_card.c     **** 			&& rcvr_datablock(buff, 512)) {
 1201              		.loc 1 395 7
 1202 0044 93050020 		li	a1,512
 1203 0048 2685     		mv	a0,s1
 1204 004a 97000000 		call	rcvr_datablock
 1204      E7800000 
 1205              	.LVL133:
 1206              		.loc 1 395 4
 1207 0052 13341500 		seqz	s0,a0
 1208              	.LVL134:
 1209              	.L101:
 396:tf_card.c     **** 			count = 0;
 397:tf_card.c     **** 		}
 398:tf_card.c     **** 	}
 399:tf_card.c     **** 	else {				/* Multiple sector read */
 400:tf_card.c     **** 		if (send_cmd(CMD18, sector) == 0) {	/* READ_MULTIPLE_BLOCK */
 401:tf_card.c     **** 			do {
 402:tf_card.c     **** 				if (!rcvr_datablock(buff, 512)) break;
 403:tf_card.c     **** 				buff += 512;
 404:tf_card.c     **** 			} while (--count);
 405:tf_card.c     **** 			send_cmd(CMD12, 0);				/* STOP_TRANSMISSION */
 406:tf_card.c     **** 		}
 407:tf_card.c     **** 	}
GAS LISTING C:\Users\Uzair\AppData\Local\Temp\cc0eZgbn.s 			page 34


 408:tf_card.c     **** 	deselect();
 1210              		.loc 1 408 2 is_stmt 1
 1211 0056 97000000 		call	deselect
 1211      E7800000 
 1212              	.LVL135:
 409:tf_card.c     **** 
 410:tf_card.c     **** 	return count ? RES_ERROR : RES_OK;	/* Return result */
 1213              		.loc 1 410 2
 1214              		.loc 1 410 27 is_stmt 0
 1215 005e 33358000 		snez	a0,s0
 1216              	.LVL136:
 1217              	.L97:
 411:tf_card.c     **** }
 1218              		.loc 1 411 1
 1219 0062 B240     		lw	ra,12(sp)
 1220              		.cfi_remember_state
 1221              		.cfi_restore 1
 1222 0064 2244     		lw	s0,8(sp)
 1223              		.cfi_restore 8
 1224              	.LVL137:
 1225 0066 9244     		lw	s1,4(sp)
 1226              		.cfi_restore 9
 1227 0068 4101     		addi	sp,sp,16
 1228              	.LCFI21:
 1229              		.cfi_def_cfa_offset 0
 1230 006a 8280     		jr	ra
 1231              	.LVL138:
 1232              	.L100:
 1233              	.LCFI22:
 1234              		.cfi_restore_state
 400:tf_card.c     **** 			do {
 1235              		.loc 1 400 3 is_stmt 1
 400:tf_card.c     **** 			do {
 1236              		.loc 1 400 7 is_stmt 0
 1237 006c 4945     		li	a0,18
 1238 006e 97000000 		call	send_cmd
 1238      E7800000 
 1239              	.LVL139:
 400:tf_card.c     **** 			do {
 1240              		.loc 1 400 6
 1241 0076 65F1     		bne	a0,zero,.L101
 1242              	.L103:
 401:tf_card.c     **** 				if (!rcvr_datablock(buff, 512)) break;
 1243              		.loc 1 401 4 is_stmt 1
 402:tf_card.c     **** 				buff += 512;
 1244              		.loc 1 402 5
 402:tf_card.c     **** 				buff += 512;
 1245              		.loc 1 402 10 is_stmt 0
 1246 0078 93050020 		li	a1,512
 1247 007c 2685     		mv	a0,s1
 1248 007e 97000000 		call	rcvr_datablock
 1248      E7800000 
 1249              	.LVL140:
 402:tf_card.c     **** 				buff += 512;
 1250              		.loc 1 402 8
 1251 0086 09C5     		beq	a0,zero,.L102
 403:tf_card.c     **** 			} while (--count);
GAS LISTING C:\Users\Uzair\AppData\Local\Temp\cc0eZgbn.s 			page 35


 1252              		.loc 1 403 5 is_stmt 1
 404:tf_card.c     **** 			send_cmd(CMD12, 0);				/* STOP_TRANSMISSION */
 1253              		.loc 1 404 4 is_stmt 0
 1254 0088 7D14     		addi	s0,s0,-1
 1255              	.LVL141:
 403:tf_card.c     **** 			} while (--count);
 1256              		.loc 1 403 10
 1257 008a 93840420 		addi	s1,s1,512
 1258              	.LVL142:
 404:tf_card.c     **** 			send_cmd(CMD12, 0);				/* STOP_TRANSMISSION */
 1259              		.loc 1 404 4
 1260 008e 6DF4     		bne	s0,zero,.L103
 1261              	.L102:
 405:tf_card.c     **** 		}
 1262              		.loc 1 405 4 is_stmt 1
 1263 0090 8145     		li	a1,0
 1264 0092 3145     		li	a0,12
 1265 0094 97000000 		call	send_cmd
 1265      E7800000 
 1266              	.LVL143:
 1267 009c 6DBF     		j	.L101
 1268              	.LVL144:
 1269              	.L104:
 1270              	.LCFI23:
 1271              		.cfi_def_cfa_offset 0
 1272              		.cfi_restore 1
 1273              		.cfi_restore 8
 1274              		.cfi_restore 9
 388:tf_card.c     **** 	if (Stat & STA_NOINIT) return RES_NOTRDY;	/* Check if drive is ready */
 1275              		.loc 1 388 28 is_stmt 0
 1276 009e 1145     		li	a0,4
 1277              	.LVL145:
 1278              		.loc 1 411 1
 1279 00a0 8280     		ret
 1280              		.cfi_endproc
 1281              	.LFE17:
 1283              		.section	.text.disk_write,"ax",@progbits
 1284              		.align	1
 1285              		.globl	disk_write
 1287              	disk_write:
 1288              	.LFB18:
 412:tf_card.c     **** 
 413:tf_card.c     **** 
 414:tf_card.c     **** 
 415:tf_card.c     **** /*-----------------------------------------------------------------------*/
 416:tf_card.c     **** /* Write sector(s)                                                       */
 417:tf_card.c     **** /*-----------------------------------------------------------------------*/
 418:tf_card.c     **** 
 419:tf_card.c     **** #if FF_FS_READONLY == 0
 420:tf_card.c     **** DRESULT disk_write (
 421:tf_card.c     **** 	BYTE drv,			/* Physical drive number (0) */
 422:tf_card.c     **** 	const BYTE *buff,	/* Ponter to the data to write */
 423:tf_card.c     **** 	DWORD sector,		/* Start sector number (LBA) */
 424:tf_card.c     **** 	UINT count			/* Number of sectors to write (1..128) */
 425:tf_card.c     **** )
 426:tf_card.c     **** {
 1289              		.loc 1 426 1 is_stmt 1
GAS LISTING C:\Users\Uzair\AppData\Local\Temp\cc0eZgbn.s 			page 36


 1290              		.cfi_startproc
 1291              	.LVL146:
 427:tf_card.c     **** 	if (drv || !count) return RES_PARERR;		/* Check parameter */
 1292              		.loc 1 427 2
 1293              		.loc 1 427 5 is_stmt 0
 1294 0000 63120510 		bne	a0,zero,.L125
 426:tf_card.c     **** 	if (drv || !count) return RES_PARERR;		/* Check parameter */
 1295              		.loc 1 426 1 discriminator 2
 1296 0004 0111     		addi	sp,sp,-32
 1297              	.LCFI24:
 1298              		.cfi_def_cfa_offset 32
 1299 0006 22CC     		sw	s0,24(sp)
 1300 0008 06CE     		sw	ra,28(sp)
 1301 000a 26CA     		sw	s1,20(sp)
 1302              		.cfi_offset 8, -8
 1303              		.cfi_offset 1, -4
 1304              		.cfi_offset 9, -12
 1305 000c 3684     		mv	s0,a3
 1306              		.loc 1 427 28 discriminator 2
 1307 000e 1145     		li	a0,4
 1308              	.LVL147:
 1309              		.loc 1 427 10 discriminator 2
 1310 0010 A9CA     		beq	a3,zero,.L115
 428:tf_card.c     **** 	if (Stat & STA_NOINIT) return RES_NOTRDY;	/* Check drive status */
 1311              		.loc 1 428 2 is_stmt 1
 1312              		.loc 1 428 11 is_stmt 0
 1313 0012 B7070000 		lui	a5,%hi(.LANCHOR0)
 1314 0016 93870700 		addi	a5,a5,%lo(.LANCHOR0)
 1315 001a 03C70700 		lbu	a4,0(a5)
 1316              		.loc 1 428 32
 1317 001e 0D45     		li	a0,3
 1318              		.loc 1 428 5
 1319 0020 058B     		andi	a4,a4,1
 1320 0022 21E3     		bne	a4,zero,.L115
 429:tf_card.c     **** 	if (Stat & STA_PROTECT) return RES_WRPRT;	/* Check write protect */
 1321              		.loc 1 429 2 is_stmt 1
 1322              		.loc 1 429 11 is_stmt 0
 1323 0024 83C70700 		lbu	a5,0(a5)
 1324              		.loc 1 429 33
 1325 0028 0945     		li	a0,2
 1326              		.loc 1 429 5
 1327 002a 918B     		andi	a5,a5,4
 1328 002c 9DEB     		bne	a5,zero,.L115
 430:tf_card.c     **** 
 431:tf_card.c     **** 	if (!(CardType & CT_BLOCK)) sector *= 512;	/* LBA ==> BA conversion (byte addressing cards) */
 1329              		.loc 1 431 17
 1330 002e B7070000 		lui	a5,%hi(.LANCHOR1)
 1331 0032 83C70700 		lbu	a5,%lo(.LANCHOR1)(a5)
 1332 0036 AE84     		mv	s1,a1
 1333              		.loc 1 431 2 is_stmt 1
 1334              		.loc 1 431 5 is_stmt 0
 1335 0038 13F78700 		andi	a4,a5,8
 1336 003c 11E3     		bne	a4,zero,.L117
 1337              		.loc 1 431 30 is_stmt 1 discriminator 1
 1338              		.loc 1 431 37 is_stmt 0 discriminator 1
 1339 003e 2606     		slli	a2,a2,9
 1340              	.LVL148:
GAS LISTING C:\Users\Uzair\AppData\Local\Temp\cc0eZgbn.s 			page 37


 1341              	.L117:
 432:tf_card.c     **** 
 433:tf_card.c     **** 	if (count == 1) {	/* Single sector write */
 1342              		.loc 1 433 2 is_stmt 1
 1343              		.loc 1 433 5 is_stmt 0
 1344 0040 0547     		li	a4,1
 1345 0042 631AE404 		bne	s0,a4,.L118
 434:tf_card.c     **** 		if ((send_cmd(CMD24, sector) == 0)	/* WRITE_BLOCK */
 1346              		.loc 1 434 3 is_stmt 1
 1347              		.loc 1 434 8 is_stmt 0
 1348 0046 B285     		mv	a1,a2
 1349              	.LVL149:
 1350 0048 6145     		li	a0,24
 1351 004a 97000000 		call	send_cmd
 1351      E7800000 
 1352              	.LVL150:
 1353              		.loc 1 434 6
 1354 0052 09CD     		beq	a0,zero,.L119
 1355              	.L121:
 426:tf_card.c     **** 	if (drv || !count) return RES_PARERR;		/* Check parameter */
 1356              		.loc 1 426 1
 1357 0054 0544     		li	s0,1
 1358              	.LVL151:
 1359              	.L120:
 435:tf_card.c     **** 			&& xmit_datablock(buff, 0xFE)) {
 436:tf_card.c     **** 			count = 0;
 437:tf_card.c     **** 		}
 438:tf_card.c     **** 	}
 439:tf_card.c     **** 	else {				/* Multiple sector write */
 440:tf_card.c     **** 		if (CardType & CT_SDC) send_cmd(ACMD23, count);	/* Predefine number of sectors */
 441:tf_card.c     **** 		if (send_cmd(CMD25, sector) == 0) {	/* WRITE_MULTIPLE_BLOCK */
 442:tf_card.c     **** 			do {
 443:tf_card.c     **** 				if (!xmit_datablock(buff, 0xFC)) break;
 444:tf_card.c     **** 				buff += 512;
 445:tf_card.c     **** 			} while (--count);
 446:tf_card.c     **** 			if (!xmit_datablock(0, 0xFD)) count = 1;	/* STOP_TRAN token */
 447:tf_card.c     **** 		}
 448:tf_card.c     **** 	}
 449:tf_card.c     **** 	deselect();
 1360              		.loc 1 449 2 is_stmt 1
 1361 0056 97000000 		call	deselect
 1361      E7800000 
 1362              	.LVL152:
 450:tf_card.c     **** 
 451:tf_card.c     **** 	return count ? RES_ERROR : RES_OK;	/* Return result */
 1363              		.loc 1 451 2
 1364              		.loc 1 451 27 is_stmt 0
 1365 005e 33358000 		snez	a0,s0
 1366              	.LVL153:
 1367              	.L115:
 452:tf_card.c     **** }
 1368              		.loc 1 452 1
 1369 0062 F240     		lw	ra,28(sp)
 1370              		.cfi_remember_state
 1371              		.cfi_restore 1
 1372 0064 6244     		lw	s0,24(sp)
 1373              		.cfi_restore 8
GAS LISTING C:\Users\Uzair\AppData\Local\Temp\cc0eZgbn.s 			page 38


 1374              	.LVL154:
 1375 0066 D244     		lw	s1,20(sp)
 1376              		.cfi_restore 9
 1377 0068 0561     		addi	sp,sp,32
 1378              	.LCFI25:
 1379              		.cfi_def_cfa_offset 0
 1380 006a 8280     		jr	ra
 1381              	.LVL155:
 1382              	.L119:
 1383              	.LCFI26:
 1384              		.cfi_restore_state
 1385              	.LBB30:
 1386              	.LBB31:
 231:tf_card.c     **** 
 1387              		.loc 1 231 2 is_stmt 1
 234:tf_card.c     **** 
 1388              		.loc 1 234 2
 234:tf_card.c     **** 
 1389              		.loc 1 234 7 is_stmt 0
 1390 006c 1305401F 		li	a0,500
 1391 0070 97000000 		call	wait_ready
 1391      E7800000 
 1392              	.LVL156:
 234:tf_card.c     **** 
 1393              		.loc 1 234 5
 1394 0078 71DD     		beq	a0,zero,.L121
 236:tf_card.c     **** 	if (token != 0xFD) {				/* Send data if token is other than StopTran */
 1395              		.loc 1 236 2 is_stmt 1
 1396 007a 1305E00F 		li	a0,254
 1397 007e 97000000 		call	xchg_spi
 1397      E7800000 
 1398              	.LVL157:
 237:tf_card.c     **** 		xmit_spi_multi(buff, 512);		/* Data */
 1399              		.loc 1 237 2
 1400 0086 2685     		mv	a0,s1
 1401 0088 97000000 		call	xmit_datablock.part.1
 1401      E7800000 
 1402              	.LVL158:
 1403              	.LBE31:
 1404              	.LBE30:
 435:tf_card.c     **** 			count = 0;
 1405              		.loc 1 435 4 is_stmt 0
 1406 0090 13341500 		seqz	s0,a0
 1407              	.LVL159:
 1408 0094 C9B7     		j	.L120
 1409              	.LVL160:
 1410              	.L118:
 440:tf_card.c     **** 		if (send_cmd(CMD25, sector) == 0) {	/* WRITE_MULTIPLE_BLOCK */
 1411              		.loc 1 440 3 is_stmt 1
 440:tf_card.c     **** 		if (send_cmd(CMD25, sector) == 0) {	/* WRITE_MULTIPLE_BLOCK */
 1412              		.loc 1 440 6 is_stmt 0
 1413 0096 998B     		andi	a5,a5,6
 1414 0098 91CB     		beq	a5,zero,.L122
 440:tf_card.c     **** 		if (send_cmd(CMD25, sector) == 0) {	/* WRITE_MULTIPLE_BLOCK */
 1415              		.loc 1 440 26 discriminator 1
 1416 009a A285     		mv	a1,s0
 1417 009c 13057009 		li	a0,151
GAS LISTING C:\Users\Uzair\AppData\Local\Temp\cc0eZgbn.s 			page 39


 1418 00a0 32C6     		sw	a2,12(sp)
 440:tf_card.c     **** 		if (send_cmd(CMD25, sector) == 0) {	/* WRITE_MULTIPLE_BLOCK */
 1419              		.loc 1 440 26 is_stmt 1 discriminator 1
 1420 00a2 97000000 		call	send_cmd
 1420      E7800000 
 1421              	.LVL161:
 1422 00aa 3246     		lw	a2,12(sp)
 1423              	.LVL162:
 1424              	.L122:
 441:tf_card.c     **** 			do {
 1425              		.loc 1 441 3
 441:tf_card.c     **** 			do {
 1426              		.loc 1 441 7 is_stmt 0
 1427 00ac B285     		mv	a1,a2
 1428 00ae 6545     		li	a0,25
 1429 00b0 97000000 		call	send_cmd
 1429      E7800000 
 1430              	.LVL163:
 441:tf_card.c     **** 			do {
 1431              		.loc 1 441 6
 1432 00b8 59FD     		bne	a0,zero,.L120
 1433              	.L124:
 442:tf_card.c     **** 				if (!xmit_datablock(buff, 0xFC)) break;
 1434              		.loc 1 442 4 is_stmt 1
 443:tf_card.c     **** 				buff += 512;
 1435              		.loc 1 443 5
 1436              	.LVL164:
 1437              	.LBB32:
 1438              	.LBB33:
 231:tf_card.c     **** 
 1439              		.loc 1 231 2
 234:tf_card.c     **** 
 1440              		.loc 1 234 2
 234:tf_card.c     **** 
 1441              		.loc 1 234 7 is_stmt 0
 1442 00ba 1305401F 		li	a0,500
 1443 00be 97000000 		call	wait_ready
 1443      E7800000 
 1444              	.LVL165:
 234:tf_card.c     **** 
 1445              		.loc 1 234 5
 1446 00c6 0DC1     		beq	a0,zero,.L123
 236:tf_card.c     **** 	if (token != 0xFD) {				/* Send data if token is other than StopTran */
 1447              		.loc 1 236 2 is_stmt 1
 1448 00c8 1305C00F 		li	a0,252
 1449 00cc 97000000 		call	xchg_spi
 1449      E7800000 
 1450              	.LVL166:
 237:tf_card.c     **** 		xmit_spi_multi(buff, 512);		/* Data */
 1451              		.loc 1 237 2
 1452 00d4 2685     		mv	a0,s1
 1453 00d6 97000000 		call	xmit_datablock.part.1
 1453      E7800000 
 1454              	.LVL167:
 1455              	.LBE33:
 1456              	.LBE32:
 443:tf_card.c     **** 				buff += 512;
GAS LISTING C:\Users\Uzair\AppData\Local\Temp\cc0eZgbn.s 			page 40


 1457              		.loc 1 443 8 is_stmt 0
 1458 00de 09C5     		beq	a0,zero,.L123
 444:tf_card.c     **** 			} while (--count);
 1459              		.loc 1 444 5 is_stmt 1
 445:tf_card.c     **** 			if (!xmit_datablock(0, 0xFD)) count = 1;	/* STOP_TRAN token */
 1460              		.loc 1 445 4 is_stmt 0
 1461 00e0 7D14     		addi	s0,s0,-1
 1462              	.LVL168:
 444:tf_card.c     **** 			} while (--count);
 1463              		.loc 1 444 10
 1464 00e2 93840420 		addi	s1,s1,512
 1465              	.LVL169:
 445:tf_card.c     **** 			if (!xmit_datablock(0, 0xFD)) count = 1;	/* STOP_TRAN token */
 1466              		.loc 1 445 4
 1467 00e6 71F8     		bne	s0,zero,.L124
 1468              	.L123:
 446:tf_card.c     **** 		}
 1469              		.loc 1 446 4 is_stmt 1
 1470              	.LVL170:
 1471              	.LBB34:
 1472              	.LBB35:
 231:tf_card.c     **** 
 1473              		.loc 1 231 2
 234:tf_card.c     **** 
 1474              		.loc 1 234 2
 234:tf_card.c     **** 
 1475              		.loc 1 234 7 is_stmt 0
 1476 00e8 1305401F 		li	a0,500
 1477 00ec 97000000 		call	wait_ready
 1477      E7800000 
 1478              	.LVL171:
 234:tf_card.c     **** 
 1479              		.loc 1 234 5
 1480 00f4 25D1     		beq	a0,zero,.L121
 236:tf_card.c     **** 	if (token != 0xFD) {				/* Send data if token is other than StopTran */
 1481              		.loc 1 236 2 is_stmt 1
 1482 00f6 1305D00F 		li	a0,253
 1483 00fa 97000000 		call	xchg_spi
 1483      E7800000 
 1484              	.LVL172:
 237:tf_card.c     **** 		xmit_spi_multi(buff, 512);		/* Data */
 1485              		.loc 1 237 2
 1486 0102 91BF     		j	.L120
 1487              	.LVL173:
 1488              	.L125:
 1489              	.LCFI27:
 1490              		.cfi_def_cfa_offset 0
 1491              		.cfi_restore 1
 1492              		.cfi_restore 8
 1493              		.cfi_restore 9
 1494              	.LBE35:
 1495              	.LBE34:
 427:tf_card.c     **** 	if (Stat & STA_NOINIT) return RES_NOTRDY;	/* Check drive status */
 1496              		.loc 1 427 28 is_stmt 0
 1497 0104 1145     		li	a0,4
 1498              	.LVL174:
 1499              		.loc 1 452 1
GAS LISTING C:\Users\Uzair\AppData\Local\Temp\cc0eZgbn.s 			page 41


 1500 0106 8280     		ret
 1501              		.cfi_endproc
 1502              	.LFE18:
 1504              		.section	.text.disk_ioctl,"ax",@progbits
 1505              		.align	1
 1506              		.globl	disk_ioctl
 1508              	disk_ioctl:
 1509              	.LFB19:
 453:tf_card.c     **** #endif
 454:tf_card.c     **** 
 455:tf_card.c     **** 
 456:tf_card.c     **** /*-----------------------------------------------------------------------*/
 457:tf_card.c     **** /* Miscellaneous drive controls other than data read/write               */
 458:tf_card.c     **** /*-----------------------------------------------------------------------*/
 459:tf_card.c     **** 
 460:tf_card.c     **** DRESULT disk_ioctl (
 461:tf_card.c     **** 	BYTE drv,		/* Physical drive number (0) */
 462:tf_card.c     **** 	BYTE cmd,		/* Control command code */
 463:tf_card.c     **** 	void *buff		/* Pointer to the conrtol data */
 464:tf_card.c     **** )
 465:tf_card.c     **** {
 1510              		.loc 1 465 1 is_stmt 1
 1511              		.cfi_startproc
 1512              	.LVL175:
 466:tf_card.c     **** 	DRESULT res;
 1513              		.loc 1 466 2
 467:tf_card.c     **** 	BYTE n, csd[16];
 1514              		.loc 1 467 2
 468:tf_card.c     **** 	DWORD *dp, st, ed, csize;
 1515              		.loc 1 468 2
 469:tf_card.c     **** 
 470:tf_card.c     **** 
 471:tf_card.c     **** 	if (drv) return RES_PARERR;					/* Check parameter */
 1516              		.loc 1 471 2
 465:tf_card.c     **** 	DRESULT res;
 1517              		.loc 1 465 1 is_stmt 0
 1518 0000 0111     		addi	sp,sp,-32
 1519              	.LCFI28:
 1520              		.cfi_def_cfa_offset 32
 1521 0002 26CA     		sw	s1,20(sp)
 1522 0004 06CE     		sw	ra,28(sp)
 1523 0006 22CC     		sw	s0,24(sp)
 1524              		.cfi_offset 9, -12
 1525              		.cfi_offset 1, -4
 1526              		.cfi_offset 8, -8
 1527              		.loc 1 471 18
 1528 0008 9144     		li	s1,4
 1529              		.loc 1 471 5
 1530 000a 0DE9     		bne	a0,zero,.L149
 472:tf_card.c     **** 	if (Stat & STA_NOINIT) return RES_NOTRDY;	/* Check if drive is ready */
 1531              		.loc 1 472 2 is_stmt 1
 1532              		.loc 1 472 11 is_stmt 0
 1533 000c B7070000 		lui	a5,%hi(.LANCHOR0)
 1534 0010 83C70700 		lbu	a5,%lo(.LANCHOR0)(a5)
 1535              		.loc 1 472 32
 1536 0014 8D44     		li	s1,3
 1537              		.loc 1 472 5
GAS LISTING C:\Users\Uzair\AppData\Local\Temp\cc0eZgbn.s 			page 42


 1538 0016 858B     		andi	a5,a5,1
 1539 0018 95E3     		bne	a5,zero,.L149
 473:tf_card.c     **** 
 474:tf_card.c     **** 	res = RES_ERROR;
 475:tf_card.c     **** 
 476:tf_card.c     **** 	switch (cmd) {
 1540              		.loc 1 476 2
 1541 001a 8547     		li	a5,1
 1542 001c 3284     		mv	s0,a2
 1543 001e AE84     		mv	s1,a1
 474:tf_card.c     **** 
 1544              		.loc 1 474 2 is_stmt 1
 1545              	.LVL176:
 1546              		.loc 1 476 2
 1547 0020 638BF502 		beq	a1,a5,.L151
 1548 0024 95C1     		beq	a1,zero,.L152
 1549 0026 8D47     		li	a5,3
 1550 0028 6388F50A 		beq	a1,a5,.L153
 1551 002c 9147     		li	a5,4
 1552 002e 6383F516 		beq	a1,a5,.L154
 477:tf_card.c     **** 	case CTRL_SYNC :		/* Wait for end of internal write process of the drive */
 478:tf_card.c     **** 		if (_select()) res = RES_OK;
 479:tf_card.c     **** 		break;
 480:tf_card.c     **** 
 481:tf_card.c     **** 	case GET_SECTOR_COUNT :	/* Get drive capacity in unit of sector (DWORD) */
 482:tf_card.c     **** 		if ((send_cmd(CMD9, 0) == 0) && rcvr_datablock(csd, 16)) {
 483:tf_card.c     **** 			if ((csd[0] >> 6) == 1) {	/* SDC ver 2.00 */
 484:tf_card.c     **** 				csize = csd[9] + ((WORD)csd[8] << 8) + ((DWORD)(csd[7] & 63) << 16) + 1;
 485:tf_card.c     **** 				*(DWORD*)buff = csize << 10;
 486:tf_card.c     **** 			} else {					/* SDC ver 1.XX or MMC ver 3 */
 487:tf_card.c     **** 				n = (csd[5] & 15) + ((csd[10] & 128) >> 7) + ((csd[9] & 3) << 1) + 2;
 488:tf_card.c     **** 				csize = (csd[8] >> 6) + ((WORD)csd[7] << 2) + ((WORD)(csd[6] & 3) << 10) + 1;
 489:tf_card.c     **** 				*(DWORD*)buff = csize << (n - 9);
 490:tf_card.c     **** 			}
 491:tf_card.c     **** 			res = RES_OK;
 492:tf_card.c     **** 		}
 493:tf_card.c     **** 		break;
 494:tf_card.c     **** 
 495:tf_card.c     **** 	case GET_BLOCK_SIZE :	/* Get erase block size in unit of sector (DWORD) */
 496:tf_card.c     **** 		if (CardType & CT_SD2) {	/* SDC ver 2.00 */
 497:tf_card.c     **** 			if (send_cmd(ACMD13, 0) == 0) {	/* Read SD status */
 498:tf_card.c     **** 				xchg_spi(0xFF);
 499:tf_card.c     **** 				if (rcvr_datablock(csd, 16)) {				/* Read partial block */
 500:tf_card.c     **** 					for (n = 64 - 16; n; n--) xchg_spi(0xFF);	/* Purge trailing data */
 501:tf_card.c     **** 					*(DWORD*)buff = 16UL << (csd[10] >> 4);
 502:tf_card.c     **** 					res = RES_OK;
 503:tf_card.c     **** 				}
 504:tf_card.c     **** 			}
 505:tf_card.c     **** 		} else {					/* SDC ver 1.XX or MMC */
 506:tf_card.c     **** 			if ((send_cmd(CMD9, 0) == 0) && rcvr_datablock(csd, 16)) {	/* Read CSD */
 507:tf_card.c     **** 				if (CardType & CT_SD1) {	/* SDC ver 1.XX */
 508:tf_card.c     **** 					*(DWORD*)buff = (((csd[10] & 63) << 1) + ((WORD)(csd[11] & 128) >> 7) + 1) << ((csd[13] >> 6) 
 509:tf_card.c     **** 				} else {					/* MMC */
 510:tf_card.c     **** 					*(DWORD*)buff = ((WORD)((csd[10] & 124) >> 2) + 1) * (((csd[11] & 3) << 3) + ((csd[11] & 224) 
 511:tf_card.c     **** 				}
 512:tf_card.c     **** 				res = RES_OK;
 513:tf_card.c     **** 			}
GAS LISTING C:\Users\Uzair\AppData\Local\Temp\cc0eZgbn.s 			page 43


 514:tf_card.c     **** 		}
 515:tf_card.c     **** 		break;
 516:tf_card.c     **** 
 517:tf_card.c     **** 	case CTRL_TRIM :	/* Erase a block of sectors (used when _USE_ERASE == 1) */
 518:tf_card.c     **** 		if (!(CardType & CT_SDC)) break;				/* Check if the card is SDC */
 519:tf_card.c     **** 		if (disk_ioctl(drv, MMC_GET_CSD, csd)) break;	/* Get CSD */
 520:tf_card.c     **** 		if (!(csd[0] >> 6) && !(csd[10] & 0x40)) break;	/* Check if sector erase can be applied to the ca
 521:tf_card.c     **** 		dp = buff; st = dp[0]; ed = dp[1];				/* Load sector block */
 522:tf_card.c     **** 		if (!(CardType & CT_BLOCK)) {
 523:tf_card.c     **** 			st *= 512; ed *= 512;
 524:tf_card.c     **** 		}
 525:tf_card.c     **** 		if (send_cmd(CMD32, st) == 0 && send_cmd(CMD33, ed) == 0 && send_cmd(CMD38, 0) == 0 && wait_ready
 526:tf_card.c     **** 			res = RES_OK;	/* FatFs does not check result of this command */
 527:tf_card.c     **** 		}
 528:tf_card.c     **** 		break;
 529:tf_card.c     **** 
 530:tf_card.c     **** 	default:
 531:tf_card.c     **** 		res = RES_PARERR;
 1553              		.loc 1 531 7 is_stmt 0
 1554 0032 9144     		li	s1,4
 1555              	.LVL177:
 1556              	.L155:
 532:tf_card.c     **** 	}
 533:tf_card.c     **** 
 534:tf_card.c     **** 	deselect();
 1557              		.loc 1 534 2 is_stmt 1
 1558 0034 97000000 		call	deselect
 1558      E7800000 
 1559              	.LVL178:
 535:tf_card.c     **** 
 536:tf_card.c     **** 	return res;
 1560              		.loc 1 536 2
 1561              	.L149:
 537:tf_card.c     **** }
 1562              		.loc 1 537 1 is_stmt 0
 1563 003c F240     		lw	ra,28(sp)
 1564              		.cfi_remember_state
 1565              		.cfi_restore 1
 1566 003e 6244     		lw	s0,24(sp)
 1567              		.cfi_restore 8
 1568 0040 2685     		mv	a0,s1
 1569 0042 D244     		lw	s1,20(sp)
 1570              		.cfi_restore 9
 1571 0044 0561     		addi	sp,sp,32
 1572              	.LCFI29:
 1573              		.cfi_def_cfa_offset 0
 1574 0046 8280     		jr	ra
 1575              	.LVL179:
 1576              	.L152:
 1577              	.LCFI30:
 1578              		.cfi_restore_state
 478:tf_card.c     **** 		break;
 1579              		.loc 1 478 3 is_stmt 1
 478:tf_card.c     **** 		break;
 1580              		.loc 1 478 7 is_stmt 0
 1581 0048 97000000 		call	_select
 1581      E7800000 
GAS LISTING C:\Users\Uzair\AppData\Local\Temp\cc0eZgbn.s 			page 44


 1582              	.LVL180:
 1583              	.L182:
 525:tf_card.c     **** 			res = RES_OK;	/* FatFs does not check result of this command */
 1584              		.loc 1 525 87 discriminator 3
 1585 0050 93341500 		seqz	s1,a0
 1586 0054 C5B7     		j	.L155
 1587              	.LVL181:
 1588              	.L151:
 482:tf_card.c     **** 			if ((csd[0] >> 6) == 1) {	/* SDC ver 2.00 */
 1589              		.loc 1 482 3 is_stmt 1
 482:tf_card.c     **** 			if ((csd[0] >> 6) == 1) {	/* SDC ver 2.00 */
 1590              		.loc 1 482 8 is_stmt 0
 1591 0056 8145     		li	a1,0
 1592              	.LVL182:
 1593 0058 2545     		li	a0,9
 1594              	.LVL183:
 1595 005a 97000000 		call	send_cmd
 1595      E7800000 
 1596              	.LVL184:
 482:tf_card.c     **** 			if ((csd[0] >> 6) == 1) {	/* SDC ver 2.00 */
 1597              		.loc 1 482 6
 1598 0062 19C1     		beq	a0,zero,.L156
 1599              	.LVL185:
 1600              	.L157:
 474:tf_card.c     **** 
 1601              		.loc 1 474 6
 1602 0064 8544     		li	s1,1
 1603 0066 F9B7     		j	.L155
 1604              	.LVL186:
 1605              	.L156:
 482:tf_card.c     **** 			if ((csd[0] >> 6) == 1) {	/* SDC ver 2.00 */
 1606              		.loc 1 482 35 discriminator 1
 1607 0068 C145     		li	a1,16
 1608 006a 0A85     		mv	a0,sp
 1609 006c 97000000 		call	rcvr_datablock
 1609      E7800000 
 1610              	.LVL187:
 482:tf_card.c     **** 			if ((csd[0] >> 6) == 1) {	/* SDC ver 2.00 */
 1611              		.loc 1 482 32 discriminator 1
 1612 0074 65D9     		beq	a0,zero,.L157
 483:tf_card.c     **** 				csize = csd[9] + ((WORD)csd[8] << 8) + ((DWORD)(csd[7] & 63) << 16) + 1;
 1613              		.loc 1 483 4 is_stmt 1
 483:tf_card.c     **** 				csize = csd[9] + ((WORD)csd[8] << 8) + ((DWORD)(csd[7] & 63) << 16) + 1;
 1614              		.loc 1 483 22 is_stmt 0
 1615 0076 03460100 		lbu	a2,0(sp)
 1616 007a 83478100 		lbu	a5,8(sp)
 1617 007e 83469100 		lbu	a3,9(sp)
 483:tf_card.c     **** 				csize = csd[9] + ((WORD)csd[8] << 8) + ((DWORD)(csd[7] & 63) << 16) + 1;
 1618              		.loc 1 483 7
 1619 0082 1982     		srli	a2,a2,6
 1620 0084 03477100 		lbu	a4,7(sp)
 1621 0088 631E9600 		bne	a2,s1,.L158
 484:tf_card.c     **** 				*(DWORD*)buff = csize << 10;
 1622              		.loc 1 484 5 is_stmt 1
 1623              	.LVL188:
 485:tf_card.c     **** 			} else {					/* SDC ver 1.XX or MMC ver 3 */
 1624              		.loc 1 485 5
GAS LISTING C:\Users\Uzair\AppData\Local\Temp\cc0eZgbn.s 			page 45


 484:tf_card.c     **** 				*(DWORD*)buff = csize << 10;
 1625              		.loc 1 484 36 is_stmt 0
 1626 008c A207     		slli	a5,a5,8
 1627              	.LVL189:
 484:tf_card.c     **** 				*(DWORD*)buff = csize << 10;
 1628              		.loc 1 484 20
 1629 008e B697     		add	a5,a5,a3
 484:tf_card.c     **** 				*(DWORD*)buff = csize << 10;
 1630              		.loc 1 484 66
 1631 0090 4207     		slli	a4,a4,16
 1632              	.LVL190:
 1633 0092 B7063F00 		li	a3,4128768
 1634 0096 758F     		and	a4,a4,a3
 1635              	.LVL191:
 484:tf_card.c     **** 				*(DWORD*)buff = csize << 10;
 1636              		.loc 1 484 11
 1637 0098 0507     		addi	a4,a4,1
 1638 009a BA97     		add	a5,a5,a4
 485:tf_card.c     **** 			} else {					/* SDC ver 1.XX or MMC ver 3 */
 1639              		.loc 1 485 27
 1640 009c AA07     		slli	a5,a5,10
 1641              	.LVL192:
 1642              	.L183:
 510:tf_card.c     **** 				}
 1643              		.loc 1 510 20
 1644 009e 1CC0     		sw	a5,0(s0)
 512:tf_card.c     **** 			}
 1645              		.loc 1 512 9
 1646 00a0 8144     		li	s1,0
 1647 00a2 49BF     		j	.L155
 1648              	.L158:
 487:tf_card.c     **** 				csize = (csd[8] >> 6) + ((WORD)csd[7] << 2) + ((WORD)(csd[6] & 3) << 10) + 1;
 1649              		.loc 1 487 5 is_stmt 1
 1650              	.LVL193:
 488:tf_card.c     **** 				*(DWORD*)buff = csize << (n - 9);
 1651              		.loc 1 488 5
 489:tf_card.c     **** 			}
 1652              		.loc 1 489 5
 488:tf_card.c     **** 				*(DWORD*)buff = csize << (n - 9);
 1653              		.loc 1 488 43 is_stmt 0
 1654 00a4 0A07     		slli	a4,a4,2
 488:tf_card.c     **** 				*(DWORD*)buff = csize << (n - 9);
 1655              		.loc 1 488 21
 1656 00a6 9983     		srli	a5,a5,6
 488:tf_card.c     **** 				*(DWORD*)buff = csize << (n - 9);
 1657              		.loc 1 488 27
 1658 00a8 BA97     		add	a5,a5,a4
 488:tf_card.c     **** 				*(DWORD*)buff = csize << (n - 9);
 1659              		.loc 1 488 52
 1660 00aa 03476100 		lbu	a4,6(sp)
 488:tf_card.c     **** 				*(DWORD*)buff = csize << (n - 9);
 1661              		.loc 1 488 71
 1662 00ae 0566     		li	a2,4096
 1663 00b0 130606C0 		addi	a2,a2,-1024
 1664 00b4 2A07     		slli	a4,a4,10
 1665              	.LVL194:
 1666 00b6 718F     		and	a4,a4,a2
GAS LISTING C:\Users\Uzair\AppData\Local\Temp\cc0eZgbn.s 			page 46


 1667              	.LVL195:
 488:tf_card.c     **** 				*(DWORD*)buff = csize << (n - 9);
 1668              		.loc 1 488 49
 1669 00b8 BA97     		add	a5,a5,a4
 487:tf_card.c     **** 				csize = (csd[8] >> 6) + ((WORD)csd[7] << 2) + ((WORD)(csd[6] & 3) << 10) + 1;
 1670              		.loc 1 487 42
 1671 00ba 0346A100 		lbu	a2,10(sp)
 487:tf_card.c     **** 				csize = (csd[8] >> 6) + ((WORD)csd[7] << 2) + ((WORD)(csd[6] & 3) << 10) + 1;
 1672              		.loc 1 487 17
 1673 00be 03475100 		lbu	a4,5(sp)
 487:tf_card.c     **** 				csize = (csd[8] >> 6) + ((WORD)csd[7] << 2) + ((WORD)(csd[6] & 3) << 10) + 1;
 1674              		.loc 1 487 64
 1675 00c2 8606     		slli	a3,a3,1
 487:tf_card.c     **** 				csize = (csd[8] >> 6) + ((WORD)csd[7] << 2) + ((WORD)(csd[6] & 3) << 10) + 1;
 1676              		.loc 1 487 42
 1677 00c4 1D82     		srli	a2,a2,7
 487:tf_card.c     **** 				csize = (csd[8] >> 6) + ((WORD)csd[7] << 2) + ((WORD)(csd[6] & 3) << 10) + 1;
 1678              		.loc 1 487 17
 1679 00c6 3D8B     		andi	a4,a4,15
 487:tf_card.c     **** 				csize = (csd[8] >> 6) + ((WORD)csd[7] << 2) + ((WORD)(csd[6] & 3) << 10) + 1;
 1680              		.loc 1 487 23
 1681 00c8 3297     		add	a4,a4,a2
 487:tf_card.c     **** 				csize = (csd[8] >> 6) + ((WORD)csd[7] << 2) + ((WORD)(csd[6] & 3) << 10) + 1;
 1682              		.loc 1 487 64
 1683 00ca 998A     		andi	a3,a3,6
 489:tf_card.c     **** 			}
 1684              		.loc 1 489 33
 1685 00cc 3697     		add	a4,a4,a3
 488:tf_card.c     **** 				*(DWORD*)buff = csize << (n - 9);
 1686              		.loc 1 488 78
 1687 00ce 8507     		addi	a5,a5,1
 489:tf_card.c     **** 			}
 1688              		.loc 1 489 33
 1689 00d0 6517     		addi	a4,a4,-7
 1690              	.LVL196:
 1691              	.L184:
 508:tf_card.c     **** 				} else {					/* MMC */
 1692              		.loc 1 508 81
 1693 00d2 B397E700 		sll	a5,a5,a4
 1694 00d6 E1B7     		j	.L183
 1695              	.LVL197:
 1696              	.L153:
 496:tf_card.c     **** 			if (send_cmd(ACMD13, 0) == 0) {	/* Read SD status */
 1697              		.loc 1 496 3 is_stmt 1
 496:tf_card.c     **** 			if (send_cmd(ACMD13, 0) == 0) {	/* Read SD status */
 1698              		.loc 1 496 16 is_stmt 0
 1699 00d8 B7040000 		lui	s1,%hi(.LANCHOR1)
 1700 00dc 93840400 		addi	s1,s1,%lo(.LANCHOR1)
 496:tf_card.c     **** 			if (send_cmd(ACMD13, 0) == 0) {	/* Read SD status */
 1701              		.loc 1 496 6
 1702 00e0 83C70400 		lbu	a5,0(s1)
 497:tf_card.c     **** 				xchg_spi(0xFF);
 1703              		.loc 1 497 8
 1704 00e4 8145     		li	a1,0
 1705              	.LVL198:
 496:tf_card.c     **** 			if (send_cmd(ACMD13, 0) == 0) {	/* Read SD status */
 1706              		.loc 1 496 6
GAS LISTING C:\Users\Uzair\AppData\Local\Temp\cc0eZgbn.s 			page 47


 1707 00e6 918B     		andi	a5,a5,4
 1708 00e8 B1CB     		beq	a5,zero,.L159
 497:tf_card.c     **** 				xchg_spi(0xFF);
 1709              		.loc 1 497 4 is_stmt 1
 497:tf_card.c     **** 				xchg_spi(0xFF);
 1710              		.loc 1 497 8 is_stmt 0
 1711 00ea 1305D008 		li	a0,141
 1712              	.LVL199:
 1713 00ee 97000000 		call	send_cmd
 1713      E7800000 
 1714              	.LVL200:
 497:tf_card.c     **** 				xchg_spi(0xFF);
 1715              		.loc 1 497 7
 1716 00f6 3DF5     		bne	a0,zero,.L157
 498:tf_card.c     **** 				if (rcvr_datablock(csd, 16)) {				/* Read partial block */
 1717              		.loc 1 498 5 is_stmt 1
 1718 00f8 1305F00F 		li	a0,255
 1719 00fc 97000000 		call	xchg_spi
 1719      E7800000 
 1720              	.LVL201:
 499:tf_card.c     **** 					for (n = 64 - 16; n; n--) xchg_spi(0xFF);	/* Purge trailing data */
 1721              		.loc 1 499 5
 499:tf_card.c     **** 					for (n = 64 - 16; n; n--) xchg_spi(0xFF);	/* Purge trailing data */
 1722              		.loc 1 499 9 is_stmt 0
 1723 0104 C145     		li	a1,16
 1724 0106 0A85     		mv	a0,sp
 1725 0108 97000000 		call	rcvr_datablock
 1725      E7800000 
 1726              	.LVL202:
 499:tf_card.c     **** 					for (n = 64 - 16; n; n--) xchg_spi(0xFF);	/* Purge trailing data */
 1727              		.loc 1 499 8
 1728 0110 31D9     		beq	a0,zero,.L157
 1729 0112 93040003 		li	s1,48
 1730              	.L160:
 1731              	.LVL203:
 500:tf_card.c     **** 					*(DWORD*)buff = 16UL << (csd[10] >> 4);
 1732              		.loc 1 500 32 is_stmt 1 discriminator 3
 1733 0116 FD14     		addi	s1,s1,-1
 1734              	.LVL204:
 1735 0118 1305F00F 		li	a0,255
 1736 011c 93F4F40F 		andi	s1,s1,0xff
 1737 0120 97000000 		call	xchg_spi
 1737      E7800000 
 1738              	.LVL205:
 500:tf_card.c     **** 					*(DWORD*)buff = 16UL << (csd[10] >> 4);
 1739              		.loc 1 500 6 is_stmt 0 discriminator 3
 1740 0128 FDF4     		bne	s1,zero,.L160
 501:tf_card.c     **** 					res = RES_OK;
 1741              		.loc 1 501 6 is_stmt 1
 501:tf_card.c     **** 					res = RES_OK;
 1742              		.loc 1 501 39 is_stmt 0
 1743 012a 8347A100 		lbu	a5,10(sp)
 1744 012e 13D74700 		srli	a4,a5,4
 501:tf_card.c     **** 					res = RES_OK;
 1745              		.loc 1 501 27
 1746 0132 C147     		li	a5,16
 1747 0134 B397E700 		sll	a5,a5,a4
GAS LISTING C:\Users\Uzair\AppData\Local\Temp\cc0eZgbn.s 			page 48


 501:tf_card.c     **** 					res = RES_OK;
 1748              		.loc 1 501 20
 1749 0138 1CC0     		sw	a5,0(s0)
 502:tf_card.c     **** 				}
 1750              		.loc 1 502 6 is_stmt 1
 1751              	.LVL206:
 1752 013a EDBD     		j	.L155
 1753              	.LVL207:
 1754              	.L159:
 506:tf_card.c     **** 				if (CardType & CT_SD1) {	/* SDC ver 1.XX */
 1755              		.loc 1 506 4
 506:tf_card.c     **** 				if (CardType & CT_SD1) {	/* SDC ver 1.XX */
 1756              		.loc 1 506 9 is_stmt 0
 1757 013c 2545     		li	a0,9
 1758              	.LVL208:
 1759 013e 97000000 		call	send_cmd
 1759      E7800000 
 1760              	.LVL209:
 506:tf_card.c     **** 				if (CardType & CT_SD1) {	/* SDC ver 1.XX */
 1761              		.loc 1 506 7
 1762 0146 19FD     		bne	a0,zero,.L157
 506:tf_card.c     **** 				if (CardType & CT_SD1) {	/* SDC ver 1.XX */
 1763              		.loc 1 506 36 discriminator 1
 1764 0148 C145     		li	a1,16
 1765 014a 0A85     		mv	a0,sp
 1766 014c 97000000 		call	rcvr_datablock
 1766      E7800000 
 1767              	.LVL210:
 506:tf_card.c     **** 				if (CardType & CT_SD1) {	/* SDC ver 1.XX */
 1768              		.loc 1 506 33 discriminator 1
 1769 0154 01D9     		beq	a0,zero,.L157
 507:tf_card.c     **** 					*(DWORD*)buff = (((csd[10] & 63) << 1) + ((WORD)(csd[11] & 128) >> 7) + 1) << ((csd[13] >> 6) 
 1770              		.loc 1 507 5 is_stmt 1
 507:tf_card.c     **** 					*(DWORD*)buff = (((csd[10] & 63) << 1) + ((WORD)(csd[11] & 128) >> 7) + 1) << ((csd[13] >> 6) 
 1771              		.loc 1 507 8 is_stmt 0
 1772 0156 03C70400 		lbu	a4,0(s1)
 1773 015a 8347A100 		lbu	a5,10(sp)
 1774 015e 8346B100 		lbu	a3,11(sp)
 1775 0162 098B     		andi	a4,a4,2
 1776 0164 01CF     		beq	a4,zero,.L161
 508:tf_card.c     **** 				} else {					/* MMC */
 1777              		.loc 1 508 6 is_stmt 1
 508:tf_card.c     **** 				} else {					/* MMC */
 1778              		.loc 1 508 94 is_stmt 0
 1779 0166 0347D100 		lbu	a4,13(sp)
 508:tf_card.c     **** 				} else {					/* MMC */
 1780              		.loc 1 508 39
 1781 016a 8607     		slli	a5,a5,1
 1782 016c 93F7E707 		andi	a5,a5,126
 508:tf_card.c     **** 				} else {					/* MMC */
 1783              		.loc 1 508 70
 1784 0170 9D82     		srli	a3,a3,7
 508:tf_card.c     **** 				} else {					/* MMC */
 1785              		.loc 1 508 45
 1786 0172 B697     		add	a5,a5,a3
 508:tf_card.c     **** 				} else {					/* MMC */
 1787              		.loc 1 508 94
GAS LISTING C:\Users\Uzair\AppData\Local\Temp\cc0eZgbn.s 			page 49


 1788 0174 1983     		srli	a4,a4,6
 508:tf_card.c     **** 				} else {					/* MMC */
 1789              		.loc 1 508 76
 1790 0176 8507     		addi	a5,a5,1
 508:tf_card.c     **** 				} else {					/* MMC */
 1791              		.loc 1 508 100
 1792 0178 7D17     		addi	a4,a4,-1
 1793 017a A1BF     		j	.L184
 1794              	.L161:
 510:tf_card.c     **** 				}
 1795              		.loc 1 510 6 is_stmt 1
 510:tf_card.c     **** 				}
 1796              		.loc 1 510 75 is_stmt 0
 1797 017c 13973600 		slli	a4,a3,3
 1798 0180 618B     		andi	a4,a4,24
 510:tf_card.c     **** 				}
 1799              		.loc 1 510 100
 1800 0182 9582     		srli	a3,a3,5
 510:tf_card.c     **** 				}
 1801              		.loc 1 510 46
 1802 0184 8987     		srai	a5,a5,2
 510:tf_card.c     **** 				}
 1803              		.loc 1 510 81
 1804 0186 3697     		add	a4,a4,a3
 510:tf_card.c     **** 				}
 1805              		.loc 1 510 23
 1806 0188 FD8B     		andi	a5,a5,31
 510:tf_card.c     **** 				}
 1807              		.loc 1 510 106
 1808 018a 0507     		addi	a4,a4,1
 510:tf_card.c     **** 				}
 1809              		.loc 1 510 52
 1810 018c 8507     		addi	a5,a5,1
 510:tf_card.c     **** 				}
 1811              		.loc 1 510 57
 1812 018e B307F702 		mul	a5,a4,a5
 1813 0192 31B7     		j	.L183
 1814              	.LVL211:
 1815              	.L154:
 518:tf_card.c     **** 		if (disk_ioctl(drv, MMC_GET_CSD, csd)) break;	/* Get CSD */
 1816              		.loc 1 518 3 is_stmt 1
 518:tf_card.c     **** 		if (disk_ioctl(drv, MMC_GET_CSD, csd)) break;	/* Get CSD */
 1817              		.loc 1 518 18 is_stmt 0
 1818 0194 B7040000 		lui	s1,%hi(.LANCHOR1)
 1819 0198 93840400 		addi	s1,s1,%lo(.LANCHOR1)
 518:tf_card.c     **** 		if (disk_ioctl(drv, MMC_GET_CSD, csd)) break;	/* Get CSD */
 1820              		.loc 1 518 6
 1821 019c 83C70400 		lbu	a5,0(s1)
 1822 01a0 998B     		andi	a5,a5,6
 1823 01a2 E38107EC 		beq	a5,zero,.L157
 519:tf_card.c     **** 		if (!(csd[0] >> 6) && !(csd[10] & 0x40)) break;	/* Check if sector erase can be applied to the ca
 1824              		.loc 1 519 3 is_stmt 1
 519:tf_card.c     **** 		if (!(csd[0] >> 6) && !(csd[10] & 0x40)) break;	/* Check if sector erase can be applied to the ca
 1825              		.loc 1 519 7 is_stmt 0
 1826 01a6 0A86     		mv	a2,sp
 1827 01a8 AD45     		li	a1,11
 1828              	.LVL212:
GAS LISTING C:\Users\Uzair\AppData\Local\Temp\cc0eZgbn.s 			page 50


 1829 01aa 97000000 		call	disk_ioctl
 1829      E7800000 
 1830              	.LVL213:
 519:tf_card.c     **** 		if (!(csd[0] >> 6) && !(csd[10] & 0x40)) break;	/* Check if sector erase can be applied to the ca
 1831              		.loc 1 519 6
 1832 01b2 E31905EA 		bne	a0,zero,.L157
 520:tf_card.c     **** 		dp = buff; st = dp[0]; ed = dp[1];				/* Load sector block */
 1833              		.loc 1 520 3 is_stmt 1
 520:tf_card.c     **** 		dp = buff; st = dp[0]; ed = dp[1];				/* Load sector block */
 1834              		.loc 1 520 7 is_stmt 0
 1835 01b6 83470100 		lbu	a5,0(sp)
 520:tf_card.c     **** 		dp = buff; st = dp[0]; ed = dp[1];				/* Load sector block */
 1836              		.loc 1 520 22
 1837 01ba 0347A100 		lbu	a4,10(sp)
 520:tf_card.c     **** 		dp = buff; st = dp[0]; ed = dp[1];				/* Load sector block */
 1838              		.loc 1 520 7
 1839 01be 9983     		srli	a5,a5,6
 520:tf_card.c     **** 		dp = buff; st = dp[0]; ed = dp[1];				/* Load sector block */
 1840              		.loc 1 520 22
 1841 01c0 13770704 		andi	a4,a4,64
 1842 01c4 D98F     		or	a5,a5,a4
 1843 01c6 E38F07E8 		beq	a5,zero,.L157
 521:tf_card.c     **** 		if (!(CardType & CT_BLOCK)) {
 1844              		.loc 1 521 3 is_stmt 1
 1845              	.LVL214:
 521:tf_card.c     **** 		if (!(CardType & CT_BLOCK)) {
 1846              		.loc 1 521 14
 522:tf_card.c     **** 			st *= 512; ed *= 512;
 1847              		.loc 1 522 6 is_stmt 0
 1848 01ca 83C70400 		lbu	a5,0(s1)
 521:tf_card.c     **** 		if (!(CardType & CT_BLOCK)) {
 1849              		.loc 1 521 17
 1850 01ce 0C40     		lw	a1,0(s0)
 1851              	.LVL215:
 521:tf_card.c     **** 		if (!(CardType & CT_BLOCK)) {
 1852              		.loc 1 521 26 is_stmt 1
 521:tf_card.c     **** 		if (!(CardType & CT_BLOCK)) {
 1853              		.loc 1 521 29 is_stmt 0
 1854 01d0 4040     		lw	s0,4(s0)
 1855              	.LVL216:
 522:tf_card.c     **** 			st *= 512; ed *= 512;
 1856              		.loc 1 522 3 is_stmt 1
 522:tf_card.c     **** 			st *= 512; ed *= 512;
 1857              		.loc 1 522 6 is_stmt 0
 1858 01d2 A18B     		andi	a5,a5,8
 1859 01d4 99E3     		bne	a5,zero,.L162
 523:tf_card.c     **** 		}
 1860              		.loc 1 523 4 is_stmt 1
 523:tf_card.c     **** 		}
 1861              		.loc 1 523 7 is_stmt 0
 1862 01d6 A605     		slli	a1,a1,9
 1863              	.LVL217:
 523:tf_card.c     **** 		}
 1864              		.loc 1 523 15 is_stmt 1
 523:tf_card.c     **** 		}
 1865              		.loc 1 523 18 is_stmt 0
 1866 01d8 2604     		slli	s0,s0,9
GAS LISTING C:\Users\Uzair\AppData\Local\Temp\cc0eZgbn.s 			page 51


 1867              	.LVL218:
 1868              	.L162:
 525:tf_card.c     **** 			res = RES_OK;	/* FatFs does not check result of this command */
 1869              		.loc 1 525 3 is_stmt 1
 525:tf_card.c     **** 			res = RES_OK;	/* FatFs does not check result of this command */
 1870              		.loc 1 525 7 is_stmt 0
 1871 01da 13050002 		li	a0,32
 1872 01de 97000000 		call	send_cmd
 1872      E7800000 
 1873              	.LVL219:
 525:tf_card.c     **** 			res = RES_OK;	/* FatFs does not check result of this command */
 1874              		.loc 1 525 6
 1875 01e6 E31F05E6 		bne	a0,zero,.L157
 525:tf_card.c     **** 			res = RES_OK;	/* FatFs does not check result of this command */
 1876              		.loc 1 525 35 discriminator 1
 1877 01ea A285     		mv	a1,s0
 1878 01ec 13051002 		li	a0,33
 1879 01f0 97000000 		call	send_cmd
 1879      E7800000 
 1880              	.LVL220:
 525:tf_card.c     **** 			res = RES_OK;	/* FatFs does not check result of this command */
 1881              		.loc 1 525 32 discriminator 1
 1882 01f8 E31605E6 		bne	a0,zero,.L157
 525:tf_card.c     **** 			res = RES_OK;	/* FatFs does not check result of this command */
 1883              		.loc 1 525 63 discriminator 2
 1884 01fc 8145     		li	a1,0
 1885 01fe 13056002 		li	a0,38
 1886 0202 97000000 		call	send_cmd
 1886      E7800000 
 1887              	.LVL221:
 525:tf_card.c     **** 			res = RES_OK;	/* FatFs does not check result of this command */
 1888              		.loc 1 525 60 discriminator 2
 1889 020a E31D05E4 		bne	a0,zero,.L157
 525:tf_card.c     **** 			res = RES_OK;	/* FatFs does not check result of this command */
 1890              		.loc 1 525 90 discriminator 3
 1891 020e 1D65     		li	a0,28672
 1892 0210 13050553 		addi	a0,a0,1328
 1893 0214 97000000 		call	wait_ready
 1893      E7800000 
 1894              	.LVL222:
 1895 021c 15BD     		j	.L182
 1896              		.cfi_endproc
 1897              	.LFE19:
 1899              		.section	.rodata.wait_ready.cst8,"aM",@progbits,8
 1900              		.align	3
 1901              	.LC0:
 1902 0000 00000000 		.word	0
 1903 0004 0040AF40 		.word	1085227008
 1904              		.section	.sbss.CardType,"aw",@nobits
 1905              		.set	.LANCHOR1,. + 0
 1908              	CardType:
 1909 0000 00       		.zero	1
 1910              		.section	.sbss.delay_timer1,"aw",@nobits
 1911              		.align	2
 1914              	delay_timer1:
 1915 0000 00000000 		.zero	4
 1916              		.section	.sbss.delay_timer2,"aw",@nobits
GAS LISTING C:\Users\Uzair\AppData\Local\Temp\cc0eZgbn.s 			page 52


 1917              		.align	2
 1920              	delay_timer2:
 1921 0000 00000000 		.zero	4
 1922              		.section	.sdata.Stat,"aw"
 1923              		.set	.LANCHOR0,. + 0
 1926              	Stat:
 1927 0000 01       		.byte	1
 1928              		.text
 1929              	.Letext0:
 1930              		.file 2 "c:\\kth\\he1043\\toolchain-gd32v-v202-win\\toolchain-gd32v-v202-win\\compiler\\riscv64-un
 1931              		.file 3 "c:\\kth\\he1043\\toolchain-gd32v-v202-win\\toolchain-gd32v-v202-win\\compiler\\riscv64-un
 1932              		.file 4 "./../../firmware/GD32VF103_standard_peripheral/gd32vf103.h"
 1933              		.file 5 "./../../firmware/GD32VF103_standard_peripheral/Include/gd32vf103_rcu.h"
 1934              		.file 6 "./../../firmware/GD32VF103_standard_peripheral/Include/gd32vf103_spi.h"
 1935              		.file 7 "c:\\kth\\he1043\\toolchain-gd32v-v202-win\\toolchain-gd32v-v202-win\\compiler\\lib\\gcc\\
 1936              		.file 8 "c:\\kth\\he1043\\toolchain-gd32v-v202-win\\toolchain-gd32v-v202-win\\compiler\\riscv64-un
 1937              		.file 9 "c:\\kth\\he1043\\toolchain-gd32v-v202-win\\toolchain-gd32v-v202-win\\compiler\\riscv64-un
 1938              		.file 10 "c:\\kth\\he1043\\toolchain-gd32v-v202-win\\toolchain-gd32v-v202-win\\compiler\\riscv64-u
 1939              		.file 11 "./../../firmware/GD32VF103_standard_peripheral/system_gd32vf103.h"
 1940              		.file 12 "ff.h"
 1941              		.file 13 "diskio.h"
 1942              		.file 14 "./../../firmware/GD32VF103_standard_peripheral/Include/gd32vf103_gpio.h"
 1943              		.file 15 "systick.h"
 1944              		.file 16 "tf_delay.h"
 1945              		.file 17 "./../../firmware/RISCV/drivers/n200_func.h"
GAS LISTING C:\Users\Uzair\AppData\Local\Temp\cc0eZgbn.s 			page 53

