GAS LISTING C:\Users\Uzair\AppData\Local\Temp\cc1hUSXe.s 			page 1


   1              		.file	"usb_delay.c"
   2              		.option nopic
   3              		.attribute arch, "rv32i2p0_m2p0_a2p0_c2p0"
   4              		.attribute unaligned_access, 0
   5              		.attribute stack_align, 16
   6              		.text
   7              	.Ltext0:
   8              		.cfi_sections	.debug_frame
   9              		.section	.text.usb_delay_1ms,"ax",@progbits
  10              		.align	1
  11              		.globl	usb_delay_1ms
  13              	usb_delay_1ms:
  14              	.LFB2:
  15              		.file 1 "usb_delay.c"
   1:usb_delay.c   **** /*!
   2:usb_delay.c   ****     \file  systick.c
   3:usb_delay.c   ****     \brief the systick configuration file
   4:usb_delay.c   **** 
   5:usb_delay.c   ****     \version 2019-6-5, V1.0.0, firmware for GD32VF103
   6:usb_delay.c   **** */
   7:usb_delay.c   **** 
   8:usb_delay.c   **** /*
   9:usb_delay.c   ****     Copyright (c) 2019, GigaDevice Semiconductor Inc.
  10:usb_delay.c   **** 
  11:usb_delay.c   ****     Redistribution and use in source and binary forms, with or without modification, 
  12:usb_delay.c   **** are permitted provided that the following conditions are met:
  13:usb_delay.c   **** 
  14:usb_delay.c   ****     1. Redistributions of source code must retain the above copyright notice, this 
  15:usb_delay.c   ****        list of conditions and the following disclaimer.
  16:usb_delay.c   ****     2. Redistributions in binary form must reproduce the above copyright notice, 
  17:usb_delay.c   ****        this list of conditions and the following disclaimer in the documentation 
  18:usb_delay.c   ****        and/or other materials provided with the distribution.
  19:usb_delay.c   ****     3. Neither the name of the copyright holder nor the names of its contributors 
  20:usb_delay.c   ****        may be used to endorse or promote products derived from this software without 
  21:usb_delay.c   ****        specific prior written permission.
  22:usb_delay.c   **** 
  23:usb_delay.c   ****     THIS SOFTWARE IS PROVIDED BY THE COPYRIGHT HOLDERS AND CONTRIBUTORS "AS IS" 
  24:usb_delay.c   **** AND ANY EXPRESS OR IMPLIED WARRANTIES, INCLUDING, BUT NOT LIMITED TO, THE IMPLIED 
  25:usb_delay.c   **** WARRANTIES OF MERCHANTABILITY AND FITNESS FOR A PARTICULAR PURPOSE ARE DISCLAIMED. 
  26:usb_delay.c   **** IN NO EVENT SHALL THE COPYRIGHT HOLDER OR CONTRIBUTORS BE LIABLE FOR ANY DIRECT, 
  27:usb_delay.c   **** INDIRECT, INCIDENTAL, SPECIAL, EXEMPLARY, OR CONSEQUENTIAL DAMAGES (INCLUDING, BUT 
  28:usb_delay.c   **** NOT LIMITED TO, PROCUREMENT OF SUBSTITUTE GOODS OR SERVICES; LOSS OF USE, DATA, OR 
  29:usb_delay.c   **** PROFITS; OR BUSINESS INTERRUPTION) HOWEVER CAUSED AND ON ANY THEORY OF LIABILITY, 
  30:usb_delay.c   **** WHETHER IN CONTRACT, STRICT LIABILITY, OR TORT (INCLUDING NEGLIGENCE OR OTHERWISE) 
  31:usb_delay.c   **** ARISING IN ANY WAY OUT OF THE USE OF THIS SOFTWARE, EVEN IF ADVISED OF THE POSSIBILITY 
  32:usb_delay.c   **** OF SUCH DAMAGE.
  33:usb_delay.c   **** */
  34:usb_delay.c   **** 
  35:usb_delay.c   **** #include "gd32vf103.h"
  36:usb_delay.c   **** #include "usb_delay.h"
  37:usb_delay.c   **** 
  38:usb_delay.c   **** /*!
  39:usb_delay.c   ****     \brief      delay a time in milliseconds
  40:usb_delay.c   ****     \param[in]  count: count in milliseconds
  41:usb_delay.c   ****     \param[out] none
  42:usb_delay.c   ****     \retval     none
  43:usb_delay.c   **** */
GAS LISTING C:\Users\Uzair\AppData\Local\Temp\cc1hUSXe.s 			page 2


  44:usb_delay.c   **** void usb_delay_1ms(uint32_t count)
  45:usb_delay.c   **** {
  16              		.loc 1 45 1
  17              		.cfi_startproc
  18              	.LVL0:
  46:usb_delay.c   **** 	uint64_t start_mtime, delta_mtime;
  19              		.loc 1 46 2
  47:usb_delay.c   **** 
  48:usb_delay.c   **** 	// Don't start measuruing until we see an mtime tick
  49:usb_delay.c   **** 	uint64_t tmp = get_timer_value();
  20              		.loc 1 49 2
  45:usb_delay.c   **** 	uint64_t start_mtime, delta_mtime;
  21              		.loc 1 45 1 is_stmt 0
  22 0000 0111     		addi	sp,sp,-32
  23              	.LCFI0:
  24              		.cfi_def_cfa_offset 32
  25 0002 22CC     		sw	s0,24(sp)
  26 0004 4EC6     		sw	s3,12(sp)
  27 0006 52C4     		sw	s4,8(sp)
  28 0008 06CE     		sw	ra,28(sp)
  29 000a 26CA     		sw	s1,20(sp)
  30 000c 4AC8     		sw	s2,16(sp)
  31              		.cfi_offset 8, -8
  32              		.cfi_offset 19, -20
  33              		.cfi_offset 20, -24
  34              		.cfi_offset 1, -4
  35              		.cfi_offset 9, -12
  36              		.cfi_offset 18, -16
  45:usb_delay.c   **** 	uint64_t start_mtime, delta_mtime;
  37              		.loc 1 45 1
  38 000e AA89     		mv	s3,a0
  39              		.loc 1 49 17
  40 0010 97000000 		call	get_timer_value
  40      E7800000 
  41              	.LVL1:
  42 0018 2A8A     		mv	s4,a0
  43 001a 2E84     		mv	s0,a1
  44              	.LVL2:
  45              	.L2:
  50:usb_delay.c   **** 	do {
  46              		.loc 1 50 2 is_stmt 1 discriminator 1
  51:usb_delay.c   **** 	start_mtime = get_timer_value();
  47              		.loc 1 51 2 discriminator 1
  48              		.loc 1 51 16 is_stmt 0 discriminator 1
  49 001c 97000000 		call	get_timer_value
  49      E7800000 
  50              	.LVL3:
  51 0024 AA84     		mv	s1,a0
  52 0026 2E89     		mv	s2,a1
  53              	.LVL4:
  52:usb_delay.c   **** 	} while (start_mtime == tmp);
  54              		.loc 1 52 2 discriminator 1
  55 0028 6314AA00 		bne	s4,a0,.L3
  56 002c E308B4FE 		beq	s0,a1,.L2
  57              	.L3:
  53:usb_delay.c   **** 
  54:usb_delay.c   **** 	do {
GAS LISTING C:\Users\Uzair\AppData\Local\Temp\cc1hUSXe.s 			page 3


  55:usb_delay.c   **** 	delta_mtime = get_timer_value() - start_mtime;
  56:usb_delay.c   **** 	}while(delta_mtime <(SystemCoreClock/4000 *count ));
  58              		.loc 1 56 38 discriminator 1
  59 0030 0564     		li	s0,4096
  60              	.LVL5:
  61 0032 370A0000 		lui	s4,%hi(SystemCoreClock)
  62 0036 130404FA 		addi	s0,s0,-96
  63              	.LVL6:
  64              	.L4:
  54:usb_delay.c   **** 	delta_mtime = get_timer_value() - start_mtime;
  65              		.loc 1 54 2 is_stmt 1 discriminator 1
  55:usb_delay.c   **** 	}while(delta_mtime <(SystemCoreClock/4000 *count ));
  66              		.loc 1 55 2 discriminator 1
  55:usb_delay.c   **** 	}while(delta_mtime <(SystemCoreClock/4000 *count ));
  67              		.loc 1 55 16 is_stmt 0 discriminator 1
  68 003a 97000000 		call	get_timer_value
  68      E7800000 
  69              	.LVL7:
  70              		.loc 1 56 38 discriminator 1
  71 0042 83270A00 		lw	a5,%lo(SystemCoreClock)(s4)
  55:usb_delay.c   **** 	}while(delta_mtime <(SystemCoreClock/4000 *count ));
  72              		.loc 1 55 14 discriminator 1
  73 0046 33079540 		sub	a4,a0,s1
  74 004a 3335E500 		sgtu	a0,a4,a0
  75              	.LVL8:
  76              		.loc 1 56 38 discriminator 1
  77 004e B3D78702 		divu	a5,a5,s0
  55:usb_delay.c   **** 	}while(delta_mtime <(SystemCoreClock/4000 *count ));
  78              		.loc 1 55 14 discriminator 1
  79 0052 B3852541 		sub	a1,a1,s2
  80              		.loc 1 56 44 discriminator 1
  81 0056 B3873703 		mul	a5,a5,s3
  82              		.loc 1 56 2 discriminator 1
  83 005a 6394A500 		bne	a1,a0,.L1
  84 005e E36EF7FC 		bgtu	a5,a4,.L4
  85              	.L1:
  57:usb_delay.c   **** }
  86              		.loc 1 57 1
  87 0062 F240     		lw	ra,28(sp)
  88              		.cfi_restore 1
  89 0064 6244     		lw	s0,24(sp)
  90              		.cfi_restore 8
  91 0066 D244     		lw	s1,20(sp)
  92              		.cfi_restore 9
  93              	.LVL9:
  94 0068 4249     		lw	s2,16(sp)
  95              		.cfi_restore 18
  96 006a B249     		lw	s3,12(sp)
  97              		.cfi_restore 19
  98              	.LVL10:
  99 006c 224A     		lw	s4,8(sp)
 100              		.cfi_restore 20
 101 006e 0561     		addi	sp,sp,32
 102              	.LCFI1:
 103              		.cfi_def_cfa_offset 0
 104 0070 8280     		jr	ra
 105              		.cfi_endproc
GAS LISTING C:\Users\Uzair\AppData\Local\Temp\cc1hUSXe.s 			page 4


 106              	.LFE2:
 108              		.section	.text.usb_delay_1us,"ax",@progbits
 109              		.align	1
 110              		.globl	usb_delay_1us
 112              	usb_delay_1us:
 113              	.LFB3:
  58:usb_delay.c   **** 
  59:usb_delay.c   **** void usb_delay_1us(uint32_t count)
  60:usb_delay.c   **** {
 114              		.loc 1 60 1 is_stmt 1
 115              		.cfi_startproc
 116              	.LVL11:
  61:usb_delay.c   **** 	uint64_t start_mtime, delta_mtime;
 117              		.loc 1 61 2
  62:usb_delay.c   **** 
  63:usb_delay.c   **** 	// Don't start measuruing until we see an mtime tick
  64:usb_delay.c   **** 	uint64_t tmp = get_timer_value();
 118              		.loc 1 64 2
  60:usb_delay.c   **** 	uint64_t start_mtime, delta_mtime;
 119              		.loc 1 60 1 is_stmt 0
 120 0000 0111     		addi	sp,sp,-32
 121              	.LCFI2:
 122              		.cfi_def_cfa_offset 32
 123 0002 22CC     		sw	s0,24(sp)
 124 0004 4EC6     		sw	s3,12(sp)
 125 0006 52C4     		sw	s4,8(sp)
 126 0008 06CE     		sw	ra,28(sp)
 127 000a 26CA     		sw	s1,20(sp)
 128 000c 4AC8     		sw	s2,16(sp)
 129              		.cfi_offset 8, -8
 130              		.cfi_offset 19, -20
 131              		.cfi_offset 20, -24
 132              		.cfi_offset 1, -4
 133              		.cfi_offset 9, -12
 134              		.cfi_offset 18, -16
  60:usb_delay.c   **** 	uint64_t start_mtime, delta_mtime;
 135              		.loc 1 60 1
 136 000e AA89     		mv	s3,a0
 137              		.loc 1 64 17
 138 0010 97000000 		call	get_timer_value
 138      E7800000 
 139              	.LVL12:
 140 0018 2A8A     		mv	s4,a0
 141 001a 2E84     		mv	s0,a1
 142              	.LVL13:
 143              	.L9:
  65:usb_delay.c   **** 	do {
 144              		.loc 1 65 2 is_stmt 1 discriminator 1
  66:usb_delay.c   **** 	start_mtime = get_timer_value();
 145              		.loc 1 66 2 discriminator 1
 146              		.loc 1 66 16 is_stmt 0 discriminator 1
 147 001c 97000000 		call	get_timer_value
 147      E7800000 
 148              	.LVL14:
 149 0024 AA84     		mv	s1,a0
 150 0026 2E89     		mv	s2,a1
 151              	.LVL15:
GAS LISTING C:\Users\Uzair\AppData\Local\Temp\cc1hUSXe.s 			page 5


  67:usb_delay.c   **** 	} while (start_mtime == tmp);
 152              		.loc 1 67 2 discriminator 1
 153 0028 6314AA00 		bne	s4,a0,.L10
 154 002c E308B4FE 		beq	s0,a1,.L9
 155              	.L10:
  68:usb_delay.c   **** 
  69:usb_delay.c   **** 	do {
  70:usb_delay.c   **** 	delta_mtime = get_timer_value() - start_mtime;
  71:usb_delay.c   **** 	}while(delta_mtime <(SystemCoreClock/4000000 *count ));
 156              		.loc 1 71 38 discriminator 1
 157 0030 37143D00 		li	s0,4001792
 158              	.LVL16:
 159 0034 370A0000 		lui	s4,%hi(SystemCoreClock)
 160 0038 13040490 		addi	s0,s0,-1792
 161              	.LVL17:
 162              	.L11:
  69:usb_delay.c   **** 	delta_mtime = get_timer_value() - start_mtime;
 163              		.loc 1 69 2 is_stmt 1 discriminator 1
  70:usb_delay.c   **** 	}while(delta_mtime <(SystemCoreClock/4000000 *count ));
 164              		.loc 1 70 2 discriminator 1
  70:usb_delay.c   **** 	}while(delta_mtime <(SystemCoreClock/4000000 *count ));
 165              		.loc 1 70 16 is_stmt 0 discriminator 1
 166 003c 97000000 		call	get_timer_value
 166      E7800000 
 167              	.LVL18:
 168              		.loc 1 71 38 discriminator 1
 169 0044 83270A00 		lw	a5,%lo(SystemCoreClock)(s4)
  70:usb_delay.c   **** 	}while(delta_mtime <(SystemCoreClock/4000000 *count ));
 170              		.loc 1 70 14 discriminator 1
 171 0048 33079540 		sub	a4,a0,s1
 172 004c 3335E500 		sgtu	a0,a4,a0
 173              	.LVL19:
 174              		.loc 1 71 38 discriminator 1
 175 0050 B3D78702 		divu	a5,a5,s0
  70:usb_delay.c   **** 	}while(delta_mtime <(SystemCoreClock/4000000 *count ));
 176              		.loc 1 70 14 discriminator 1
 177 0054 B3852541 		sub	a1,a1,s2
 178              		.loc 1 71 47 discriminator 1
 179 0058 B3873703 		mul	a5,a5,s3
 180              		.loc 1 71 2 discriminator 1
 181 005c 6394A500 		bne	a1,a0,.L8
 182 0060 E36EF7FC 		bgtu	a5,a4,.L11
 183              	.L8:
  72:usb_delay.c   **** }...
 184              		.loc 1 72 1
 185 0064 F240     		lw	ra,28(sp)
 186              		.cfi_restore 1
 187 0066 6244     		lw	s0,24(sp)
 188              		.cfi_restore 8
 189 0068 D244     		lw	s1,20(sp)
 190              		.cfi_restore 9
 191              	.LVL20:
 192 006a 4249     		lw	s2,16(sp)
 193              		.cfi_restore 18
 194 006c B249     		lw	s3,12(sp)
 195              		.cfi_restore 19
 196              	.LVL21:
GAS LISTING C:\Users\Uzair\AppData\Local\Temp\cc1hUSXe.s 			page 6


 197 006e 224A     		lw	s4,8(sp)
 198              		.cfi_restore 20
 199 0070 0561     		addi	sp,sp,32
 200              	.LCFI3:
 201              		.cfi_def_cfa_offset 0
 202 0072 8280     		jr	ra
 203              		.cfi_endproc
 204              	.LFE3:
 206              		.text
 207              	.Letext0:
 208              		.file 2 "c:\\kth\\he1043\\toolchain-gd32v-v202-win\\toolchain-gd32v-v202-win\\compiler\\riscv64-un
 209              		.file 3 "c:\\kth\\he1043\\toolchain-gd32v-v202-win\\toolchain-gd32v-v202-win\\compiler\\riscv64-un
 210              		.file 4 "./../../firmware/GD32VF103_standard_peripheral/system_gd32vf103.h"
 211              		.file 5 "./../../firmware/RISCV/drivers/n200_func.h"
GAS LISTING C:\Users\Uzair\AppData\Local\Temp\cc1hUSXe.s 			page 7

