GAS LISTING C:\Users\Uzair\AppData\Local\Temp\ccG3yh17.s 			page 1


   1              		.file	"usbd_core.c"
   2              		.option nopic
   3              		.attribute arch, "rv32i2p0_m2p0_a2p0_c2p0"
   4              		.attribute unaligned_access, 0
   5              		.attribute stack_align, 16
   6              		.text
   7              	.Ltext0:
   8              		.cfi_sections	.debug_frame
   9              		.section	.text.usbd_ep_setup,"ax",@progbits
  10              		.align	1
  11              		.globl	usbd_ep_setup
  13              	usbd_ep_setup:
  14              	.LFB4:
  15              		.file 1 "usbd_core.c"
   1:usbd_core.c   **** /*!
   2:usbd_core.c   ****     \file  usbd_core.c
   3:usbd_core.c   ****     \brief USB device mode core functions
   4:usbd_core.c   **** 
   5:usbd_core.c   ****     \version 2019-6-5, V1.0.0, firmware for GD32 USBFS&USBHS
   6:usbd_core.c   **** */
   7:usbd_core.c   **** 
   8:usbd_core.c   **** /*
   9:usbd_core.c   ****     Copyright (c) 2019, GigaDevice Semiconductor Inc.
  10:usbd_core.c   **** 
  11:usbd_core.c   ****     Redistribution and use in source and binary forms, with or without modification, 
  12:usbd_core.c   **** are permitted provided that the following conditions are met:
  13:usbd_core.c   **** 
  14:usbd_core.c   ****     1. Redistributions of source code must retain the above copyright notice, this 
  15:usbd_core.c   ****        list of conditions and the following disclaimer.
  16:usbd_core.c   ****     2. Redistributions in binary form must reproduce the above copyright notice, 
  17:usbd_core.c   ****        this list of conditions and the following disclaimer in the documentation 
  18:usbd_core.c   ****        and/or other materials provided with the distribution.
  19:usbd_core.c   ****     3. Neither the name of the copyright holder nor the names of its contributors 
  20:usbd_core.c   ****        may be used to endorse or promote products derived from this software without 
  21:usbd_core.c   ****        specific prior written permission.
  22:usbd_core.c   **** 
  23:usbd_core.c   ****     THIS SOFTWARE IS PROVIDED BY THE COPYRIGHT HOLDERS AND CONTRIBUTORS "AS IS" 
  24:usbd_core.c   **** AND ANY EXPRESS OR IMPLIED WARRANTIES, INCLUDING, BUT NOT LIMITED TO, THE IMPLIED 
  25:usbd_core.c   **** WARRANTIES OF MERCHANTABILITY AND FITNESS FOR A PARTICULAR PURPOSE ARE DISCLAIMED. 
  26:usbd_core.c   **** IN NO EVENT SHALL THE COPYRIGHT HOLDER OR CONTRIBUTORS BE LIABLE FOR ANY DIRECT, 
  27:usbd_core.c   **** INDIRECT, INCIDENTAL, SPECIAL, EXEMPLARY, OR CONSEQUENTIAL DAMAGES (INCLUDING, BUT 
  28:usbd_core.c   **** NOT LIMITED TO, PROCUREMENT OF SUBSTITUTE GOODS OR SERVICES; LOSS OF USE, DATA, OR 
  29:usbd_core.c   **** PROFITS; OR BUSINESS INTERRUPTION) HOWEVER CAUSED AND ON ANY THEORY OF LIABILITY, 
  30:usbd_core.c   **** WHETHER IN CONTRACT, STRICT LIABILITY, OR TORT (INCLUDING NEGLIGENCE OR OTHERWISE) 
  31:usbd_core.c   **** ARISING IN ANY WAY OUT OF THE USE OF THIS SOFTWARE, EVEN IF ADVISED OF THE POSSIBILITY 
  32:usbd_core.c   **** OF SUCH DAMAGE.
  33:usbd_core.c   **** */
  34:usbd_core.c   **** 
  35:usbd_core.c   **** #include "usbd_core.h"
  36:usbd_core.c   **** #include "drv_usb_hw.h"
  37:usbd_core.c   **** 
  38:usbd_core.c   **** /* endpoint type */
  39:usbd_core.c   **** const uint32_t ep_type[] = {
  40:usbd_core.c   ****     [USB_EP_ATTR_CTL]  = USB_EPTYPE_CTRL,
  41:usbd_core.c   ****     [USB_EP_ATTR_BULK] = USB_EPTYPE_BULK,
  42:usbd_core.c   ****     [USB_EP_ATTR_INT]  = USB_EPTYPE_INTR,
  43:usbd_core.c   ****     [USB_EP_ATTR_ISO]  = USB_EPTYPE_ISOC
GAS LISTING C:\Users\Uzair\AppData\Local\Temp\ccG3yh17.s 			page 2


  44:usbd_core.c   **** };
  45:usbd_core.c   **** 
  46:usbd_core.c   **** /*!
  47:usbd_core.c   ****     \brief      initailizes the USB device-mode stack and load the class driver
  48:usbd_core.c   ****     \param[in]  udev: pointer to USB core instance
  49:usbd_core.c   ****     \param[in]  core: usb core type
  50:usbd_core.c   ****     \param[in]  class_core: class driver
  51:usbd_core.c   ****     \param[out] none
  52:usbd_core.c   ****     \retval     none
  53:usbd_core.c   **** */
  54:usbd_core.c   **** void usbd_init (usb_core_driver *udev, usb_core_enum core, usb_class_core *class_core)
  55:usbd_core.c   **** {
  56:usbd_core.c   ****     /* device descriptor, class and user callbacks */
  57:usbd_core.c   ****     udev->dev.class_core = class_core;
  58:usbd_core.c   **** 
  59:usbd_core.c   ****     /* configure USB capabilites */
  60:usbd_core.c   ****     usb_basic_init (&udev->bp, &udev->regs, core);
  61:usbd_core.c   **** 
  62:usbd_core.c   ****     /* initailizes the USB core*/
  63:usbd_core.c   ****     usb_core_init (udev->bp, &udev->regs);
  64:usbd_core.c   **** 
  65:usbd_core.c   ****     /* set device disconnect */
  66:usbd_core.c   ****     usbd_disconnect (udev);
  67:usbd_core.c   **** 
  68:usbd_core.c   ****     /* initailizes device mode */
  69:usbd_core.c   ****     usb_devcore_init (udev);
  70:usbd_core.c   **** 
  71:usbd_core.c   ****     /* set device connect */
  72:usbd_core.c   ****     usbd_connect (udev);
  73:usbd_core.c   ****     
  74:usbd_core.c   ****     udev->dev.cur_status = USBD_DEFAULT;
  75:usbd_core.c   **** }
  76:usbd_core.c   **** 
  77:usbd_core.c   **** /*!
  78:usbd_core.c   ****     \brief      endpoint initialization
  79:usbd_core.c   ****     \param[in]  udev: pointer to USB core instance
  80:usbd_core.c   ****     \param[in]  ep_desc: pointer to endpoint descriptor
  81:usbd_core.c   ****     \param[out] none
  82:usbd_core.c   ****     \retval     none
  83:usbd_core.c   **** */
  84:usbd_core.c   **** uint32_t usbd_ep_setup (usb_core_driver *udev, const usb_desc_ep *ep_desc)
  85:usbd_core.c   **** {
  16              		.loc 1 85 1
  17              		.cfi_startproc
  18              	.LVL0:
  86:usbd_core.c   ****     usb_transc *transc;
  19              		.loc 1 86 5
  87:usbd_core.c   **** 
  88:usbd_core.c   ****     uint8_t ep_addr = ep_desc->bEndpointAddress;
  20              		.loc 1 88 5
  85:usbd_core.c   ****     usb_transc *transc;
  21              		.loc 1 85 1 is_stmt 0
  22 0000 4111     		addi	sp,sp,-16
  23              	.LCFI0:
  24              		.cfi_def_cfa_offset 16
  25 0002 06C6     		sw	ra,12(sp)
  26              		.cfi_offset 1, -4
GAS LISTING C:\Users\Uzair\AppData\Local\Temp\ccG3yh17.s 			page 3


  89:usbd_core.c   ****     uint8_t max_len = ep_desc->wMaxPacketSize;
  27              		.loc 1 89 30
  28 0004 03C75500 		lbu	a4,5(a1)
  29 0008 83C74500 		lbu	a5,4(a1)
  88:usbd_core.c   ****     uint8_t max_len = ep_desc->wMaxPacketSize;
  30              		.loc 1 88 13
  31 000c 03C62500 		lbu	a2,2(a1)
  32              	.LVL1:
  33              		.loc 1 89 5 is_stmt 1
  34              		.loc 1 89 30 is_stmt 0
  35 0010 2207     		slli	a4,a4,8
  36 0012 5D8F     		or	a4,a4,a5
  37              	.LVL2:
  90:usbd_core.c   **** 
  91:usbd_core.c   ****     /* set endpoint direction */
  92:usbd_core.c   ****     if (EP_DIR(ep_addr)) {
  38              		.loc 1 92 5 is_stmt 1
  39              		.loc 1 92 8 is_stmt 0
  40 0014 93178601 		slli	a5,a2,24
  41 0018 E187     		srai	a5,a5,24
  42 001a 63D20706 		bge	a5,zero,.L2
  93:usbd_core.c   ****         transc = &udev->dev.transc_in[EP_ID(ep_addr)];
  43              		.loc 1 93 9 is_stmt 1
  44              		.loc 1 93 16 is_stmt 0
  45 001e F147     		li	a5,28
  46 0020 9376F607 		andi	a3,a2,127
  47 0024 B386F602 		mul	a3,a3,a5
  48 0028 9387860C 		addi	a5,a3,200
  94:usbd_core.c   **** 
  95:usbd_core.c   ****         transc->ep_addr.dir = 1U;
  49              		.loc 1 95 29
  50 002c AA96     		add	a3,a0,a3
  51 002e 03C8860C 		lbu	a6,200(a3)
  93:usbd_core.c   ****         transc = &udev->dev.transc_in[EP_ID(ep_addr)];
  52              		.loc 1 93 16
  53 0032 AA97     		add	a5,a0,a5
  54              	.LVL3:
  55              		.loc 1 95 9 is_stmt 1
  56              		.loc 1 95 29 is_stmt 0
  57 0034 136808F8 		ori	a6,a6,-128
  58 0038 2384060D 		sb	a6,200(a3)
  59              	.L3:
  96:usbd_core.c   ****     } else {
  97:usbd_core.c   ****         transc = &udev->dev.transc_out[ep_addr];
  98:usbd_core.c   **** 
  99:usbd_core.c   ****         transc->ep_addr.dir = 0U;
 100:usbd_core.c   ****     }
 101:usbd_core.c   **** 
 102:usbd_core.c   ****     transc->ep_addr.num = EP_ID(ep_addr);
  60              		.loc 1 102 5 is_stmt 1
  61              		.loc 1 102 25 is_stmt 0
  62 003c 83C60700 		lbu	a3,0(a5)
  63 0040 3D8A     		andi	a2,a2,15
  64              	.LVL4:
 103:usbd_core.c   ****     transc->max_len = max_len;
  65              		.loc 1 103 21
  66 0042 1377F70F 		andi	a4,a4,255
GAS LISTING C:\Users\Uzair\AppData\Local\Temp\ccG3yh17.s 			page 4


  67              	.LVL5:
 102:usbd_core.c   ****     transc->max_len = max_len;
  68              		.loc 1 102 25
  69 0046 C19A     		andi	a3,a3,-16
  70 0048 558E     		or	a2,a3,a2
  71 004a 2380C700 		sb	a2,0(a5)
  72              		.loc 1 103 5 is_stmt 1
  73              		.loc 1 103 21 is_stmt 0
  74 004e 2392E700 		sh	a4,4(a5)
 104:usbd_core.c   ****     transc->ep_type = ep_type[ep_desc->bmAttributes & USB_EPTYPE_MASK];
  75              		.loc 1 104 5 is_stmt 1
  76              		.loc 1 104 53 is_stmt 0
  77 0052 03C73500 		lbu	a4,3(a1)
 105:usbd_core.c   **** 
 106:usbd_core.c   ****     /* active USB endpoint function */
 107:usbd_core.c   ****     usb_transc_active (udev, transc);
  78              		.loc 1 107 5
  79 0056 BE85     		mv	a1,a5
  80              	.LVL6:
 104:usbd_core.c   ****     transc->ep_type = ep_type[ep_desc->bmAttributes & USB_EPTYPE_MASK];
  81              		.loc 1 104 53
  82 0058 0D8B     		andi	a4,a4,3
 104:usbd_core.c   ****     transc->ep_type = ep_type[ep_desc->bmAttributes & USB_EPTYPE_MASK];
  83              		.loc 1 104 30
  84 005a 93162700 		slli	a3,a4,2
  85 005e 37070000 		lui	a4,%hi(.LANCHOR0)
  86 0062 13070700 		addi	a4,a4,%lo(.LANCHOR0)
  87 0066 3697     		add	a4,a4,a3
 104:usbd_core.c   ****     transc->ep_type = ep_type[ep_desc->bmAttributes & USB_EPTYPE_MASK];
  88              		.loc 1 104 21
  89 0068 1843     		lw	a4,0(a4)
  90 006a A380E700 		sb	a4,1(a5)
  91              		.loc 1 107 5 is_stmt 1
  92 006e 97000000 		call	usb_transc_active
  92      E7800000 
  93              	.LVL7:
 108:usbd_core.c   **** 
 109:usbd_core.c   ****     return 0;
  94              		.loc 1 109 5
 110:usbd_core.c   **** }
  95              		.loc 1 110 1 is_stmt 0
  96 0076 B240     		lw	ra,12(sp)
  97              		.cfi_remember_state
  98              		.cfi_restore 1
  99 0078 0145     		li	a0,0
 100 007a 4101     		addi	sp,sp,16
 101              	.LCFI1:
 102              		.cfi_def_cfa_offset 0
 103 007c 8280     		jr	ra
 104              	.LVL8:
 105              	.L2:
 106              	.LCFI2:
 107              		.cfi_restore_state
  97:usbd_core.c   **** 
 108              		.loc 1 97 9 is_stmt 1
  97:usbd_core.c   **** 
 109              		.loc 1 97 16 is_stmt 0
GAS LISTING C:\Users\Uzair\AppData\Local\Temp\ccG3yh17.s 			page 5


 110 007e F146     		li	a3,28
 111 0080 B306D602 		mul	a3,a2,a3
 112 0084 9387C626 		addi	a5,a3,620
  99:usbd_core.c   ****     }
 113              		.loc 1 99 29
 114 0088 AA96     		add	a3,a0,a3
 115 008a 03C8C626 		lbu	a6,620(a3)
  97:usbd_core.c   **** 
 116              		.loc 1 97 16
 117 008e AA97     		add	a5,a0,a5
 118              	.LVL9:
  99:usbd_core.c   ****     }
 119              		.loc 1 99 9 is_stmt 1
  99:usbd_core.c   ****     }
 120              		.loc 1 99 29 is_stmt 0
 121 0090 1378F807 		andi	a6,a6,127
 122 0094 23860627 		sb	a6,620(a3)
 123 0098 55B7     		j	.L3
 124              		.cfi_endproc
 125              	.LFE4:
 127              		.section	.text.usbd_ep_clear,"ax",@progbits
 128              		.align	1
 129              		.globl	usbd_ep_clear
 131              	usbd_ep_clear:
 132              	.LFB5:
 111:usbd_core.c   **** 
 112:usbd_core.c   **** /*!
 113:usbd_core.c   ****     \brief      configure the endpoint when it is disabled
 114:usbd_core.c   ****     \param[in]  udev: pointer to USB core instance
 115:usbd_core.c   ****     \param[in]  ep_addr: endpoint address
 116:usbd_core.c   ****                   in this parameter:
 117:usbd_core.c   ****                     bit0..bit6: endpoint number (0..7)
 118:usbd_core.c   ****                     bit7: endpoint direction which can be IN(1) or OUT(0)
 119:usbd_core.c   ****     \param[out] none
 120:usbd_core.c   ****     \retval     none
 121:usbd_core.c   **** */
 122:usbd_core.c   **** uint32_t usbd_ep_clear (usb_core_driver *udev, uint8_t ep_addr)
 123:usbd_core.c   **** {
 133              		.loc 1 123 1 is_stmt 1
 134              		.cfi_startproc
 135              	.LVL10:
 124:usbd_core.c   ****     usb_transc *transc;
 136              		.loc 1 124 5
 125:usbd_core.c   **** 
 126:usbd_core.c   ****     if (EP_DIR(ep_addr)) {
 137              		.loc 1 126 5
 123:usbd_core.c   ****     usb_transc *transc;
 138              		.loc 1 123 1 is_stmt 0
 139 0000 4111     		addi	sp,sp,-16
 140              	.LCFI3:
 141              		.cfi_def_cfa_offset 16
 142              		.loc 1 126 8
 143 0002 93978501 		slli	a5,a1,24
 123:usbd_core.c   ****     usb_transc *transc;
 144              		.loc 1 123 1
 145 0006 06C6     		sw	ra,12(sp)
 146              		.cfi_offset 1, -4
GAS LISTING C:\Users\Uzair\AppData\Local\Temp\ccG3yh17.s 			page 6


 147              		.loc 1 126 8
 148 0008 E187     		srai	a5,a5,24
 149 000a 63D20702 		bge	a5,zero,.L6
 127:usbd_core.c   ****         transc = &udev->dev.transc_in[EP_ID(ep_addr)];
 150              		.loc 1 127 9 is_stmt 1
 151              		.loc 1 127 16 is_stmt 0
 152 000e 93F5F507 		andi	a1,a1,127
 153              	.LVL11:
 154 0012 F147     		li	a5,28
 155 0014 B385F502 		mul	a1,a1,a5
 156 0018 9385850C 		addi	a1,a1,200
 157              	.L9:
 128:usbd_core.c   ****     } else {
 129:usbd_core.c   ****         transc = &udev->dev.transc_out[ep_addr];
 158              		.loc 1 129 16
 159 001c AA95     		add	a1,a0,a1
 160              	.LVL12:
 130:usbd_core.c   ****     }
 131:usbd_core.c   **** 
 132:usbd_core.c   ****     /* deactive USB endpoint function */
 133:usbd_core.c   ****     usb_transc_deactivate (udev, transc);
 161              		.loc 1 133 5 is_stmt 1
 162 001e 97000000 		call	usb_transc_deactivate
 162      E7800000 
 163              	.LVL13:
 134:usbd_core.c   **** 
 135:usbd_core.c   ****     return 0;
 164              		.loc 1 135 5
 136:usbd_core.c   **** }
 165              		.loc 1 136 1 is_stmt 0
 166 0026 B240     		lw	ra,12(sp)
 167              		.cfi_remember_state
 168              		.cfi_restore 1
 169 0028 0145     		li	a0,0
 170 002a 4101     		addi	sp,sp,16
 171              	.LCFI4:
 172              		.cfi_def_cfa_offset 0
 173 002c 8280     		jr	ra
 174              	.LVL14:
 175              	.L6:
 176              	.LCFI5:
 177              		.cfi_restore_state
 129:usbd_core.c   ****     }
 178              		.loc 1 129 9 is_stmt 1
 129:usbd_core.c   ****     }
 179              		.loc 1 129 16 is_stmt 0
 180 002e F147     		li	a5,28
 181 0030 B385F502 		mul	a1,a1,a5
 182              	.LVL15:
 183 0034 9385C526 		addi	a1,a1,620
 184 0038 D5B7     		j	.L9
 185              		.cfi_endproc
 186              	.LFE5:
 188              		.section	.text.usbd_ep_recev,"ax",@progbits
 189              		.align	1
 190              		.globl	usbd_ep_recev
 192              	usbd_ep_recev:
GAS LISTING C:\Users\Uzair\AppData\Local\Temp\ccG3yh17.s 			page 7


 193              	.LFB6:
 137:usbd_core.c   **** 
 138:usbd_core.c   **** 
 139:usbd_core.c   **** /*!
 140:usbd_core.c   ****     \brief      endpoint prepare to receive data
 141:usbd_core.c   ****     \param[in]  udev: pointer to usb core instance
 142:usbd_core.c   ****     \param[in]  ep_addr: endpoint address
 143:usbd_core.c   ****                   in this parameter:
 144:usbd_core.c   ****                     bit0..bit6: endpoint number (0..7)
 145:usbd_core.c   ****                     bit7: endpoint direction which can be IN(1) or OUT(0)
 146:usbd_core.c   ****     \param[in]  pbuf: user buffer address pointer
 147:usbd_core.c   ****     \param[in]  len: buffer length
 148:usbd_core.c   ****     \param[out] none
 149:usbd_core.c   ****     \retval     none
 150:usbd_core.c   **** */
 151:usbd_core.c   **** uint32_t usbd_ep_recev (usb_core_driver *udev, uint8_t ep_addr, uint8_t *pbuf, uint16_t len)
 152:usbd_core.c   **** {
 194              		.loc 1 152 1 is_stmt 1
 195              		.cfi_startproc
 196              	.LVL16:
 153:usbd_core.c   ****     usb_transc *transc = &udev->dev.transc_out[EP_ID(ep_addr)];
 197              		.loc 1 153 5
 198 0000 93F7F507 		andi	a5,a1,127
 199              		.loc 1 153 17 is_stmt 0
 200 0004 F145     		li	a1,28
 201              	.LVL17:
 202 0006 B387B702 		mul	a5,a5,a1
 152:usbd_core.c   ****     usb_transc *transc = &udev->dev.transc_out[EP_ID(ep_addr)];
 203              		.loc 1 152 1
 204 000a 4111     		addi	sp,sp,-16
 205              	.LCFI6:
 206              		.cfi_def_cfa_offset 16
 207 000c 06C6     		sw	ra,12(sp)
 208              		.cfi_offset 1, -4
 154:usbd_core.c   **** 
 155:usbd_core.c   ****     /* setup the transfer */
 156:usbd_core.c   ****     transc->xfer_buf = pbuf;
 157:usbd_core.c   ****     transc->xfer_len = len;
 158:usbd_core.c   ****     transc->xfer_count = 0;
 159:usbd_core.c   **** 
 160:usbd_core.c   ****     if (USB_USE_DMA == udev->bp.transfer_mode) {
 209              		.loc 1 160 8
 210 000e 0547     		li	a4,1
 153:usbd_core.c   **** 
 211              		.loc 1 153 17
 212 0010 9385C726 		addi	a1,a5,620
 156:usbd_core.c   ****     transc->xfer_len = len;
 213              		.loc 1 156 22
 214 0014 AA97     		add	a5,a0,a5
 215 0016 23AAC726 		sw	a2,628(a5)
 157:usbd_core.c   ****     transc->xfer_count = 0;
 216              		.loc 1 157 22
 217 001a 23ACD726 		sw	a3,632(a5)
 158:usbd_core.c   **** 
 218              		.loc 1 158 24
 219 001e 23AE0726 		sw	zero,636(a5)
 220              		.loc 1 160 8
GAS LISTING C:\Users\Uzair\AppData\Local\Temp\ccG3yh17.s 			page 8


 221 0022 83464500 		lbu	a3,4(a0)
 222              	.LVL18:
 153:usbd_core.c   **** 
 223              		.loc 1 153 17
 224 0026 AA95     		add	a1,a0,a1
 225              	.LVL19:
 156:usbd_core.c   ****     transc->xfer_len = len;
 226              		.loc 1 156 5 is_stmt 1
 157:usbd_core.c   ****     transc->xfer_count = 0;
 227              		.loc 1 157 5
 158:usbd_core.c   **** 
 228              		.loc 1 158 5
 229              		.loc 1 160 5
 230              		.loc 1 160 8 is_stmt 0
 231 0028 6394E600 		bne	a3,a4,.L11
 161:usbd_core.c   ****         transc->dma_addr = (uint32_t)pbuf;
 232              		.loc 1 161 9 is_stmt 1
 233              		.loc 1 161 26 is_stmt 0
 234 002c 23A2C728 		sw	a2,644(a5)
 235              	.L11:
 162:usbd_core.c   ****     }
 163:usbd_core.c   **** 
 164:usbd_core.c   ****     /* start the transfer */
 165:usbd_core.c   ****     usb_transc_outxfer (udev, transc);
 236              		.loc 1 165 5 is_stmt 1
 237 0030 97000000 		call	usb_transc_outxfer
 237      E7800000 
 238              	.LVL20:
 166:usbd_core.c   **** 
 167:usbd_core.c   ****     return 0;
 239              		.loc 1 167 5
 168:usbd_core.c   **** }
 240              		.loc 1 168 1 is_stmt 0
 241 0038 B240     		lw	ra,12(sp)
 242              		.cfi_restore 1
 243 003a 0145     		li	a0,0
 244 003c 4101     		addi	sp,sp,16
 245              	.LCFI7:
 246              		.cfi_def_cfa_offset 0
 247 003e 8280     		jr	ra
 248              		.cfi_endproc
 249              	.LFE6:
 251              		.section	.text.usbd_ep_send,"ax",@progbits
 252              		.align	1
 253              		.globl	usbd_ep_send
 255              	usbd_ep_send:
 256              	.LFB7:
 169:usbd_core.c   **** 
 170:usbd_core.c   **** /*!
 171:usbd_core.c   ****     \brief      endpoint prepare to transmit data
 172:usbd_core.c   ****     \param[in]  udev: pointer to USB core instance
 173:usbd_core.c   ****     \param[in]  ep_addr: endpoint address
 174:usbd_core.c   ****                   in this parameter:
 175:usbd_core.c   ****                     bit0..bit6: endpoint number (0..7)
 176:usbd_core.c   ****                     bit7: endpoint direction which can be IN(1) or OUT(0)
 177:usbd_core.c   ****     \param[in]  pbuf: transmit buffer address pointer
 178:usbd_core.c   ****     \param[in]  len: buffer length
GAS LISTING C:\Users\Uzair\AppData\Local\Temp\ccG3yh17.s 			page 9


 179:usbd_core.c   ****     \param[out] none
 180:usbd_core.c   ****     \retval     none
 181:usbd_core.c   **** */
 182:usbd_core.c   **** uint32_t  usbd_ep_send (usb_core_driver *udev, uint8_t ep_addr, uint8_t *pbuf, uint16_t len)
 183:usbd_core.c   **** {
 257              		.loc 1 183 1 is_stmt 1
 258              		.cfi_startproc
 259              	.LVL21:
 184:usbd_core.c   ****     usb_transc *transc = &udev->dev.transc_in[EP_ID(ep_addr)];
 260              		.loc 1 184 5
 261 0000 93F7F507 		andi	a5,a1,127
 262              		.loc 1 184 17 is_stmt 0
 263 0004 F145     		li	a1,28
 264              	.LVL22:
 265 0006 B387B702 		mul	a5,a5,a1
 183:usbd_core.c   ****     usb_transc *transc = &udev->dev.transc_in[EP_ID(ep_addr)];
 266              		.loc 1 183 1
 267 000a 4111     		addi	sp,sp,-16
 268              	.LCFI8:
 269              		.cfi_def_cfa_offset 16
 270 000c 06C6     		sw	ra,12(sp)
 271              		.cfi_offset 1, -4
 185:usbd_core.c   **** 
 186:usbd_core.c   ****     /* setup the transfer */
 187:usbd_core.c   ****     transc->xfer_buf = pbuf;
 188:usbd_core.c   ****     transc->xfer_len = len;
 189:usbd_core.c   ****     transc->xfer_count = 0;
 190:usbd_core.c   **** 
 191:usbd_core.c   ****     if (USB_USE_DMA == udev->bp.transfer_mode) {
 272              		.loc 1 191 8
 273 000e 0547     		li	a4,1
 184:usbd_core.c   **** 
 274              		.loc 1 184 17
 275 0010 9385870C 		addi	a1,a5,200
 187:usbd_core.c   ****     transc->xfer_len = len;
 276              		.loc 1 187 22
 277 0014 AA97     		add	a5,a0,a5
 278 0016 23A8C70C 		sw	a2,208(a5)
 188:usbd_core.c   ****     transc->xfer_count = 0;
 279              		.loc 1 188 22
 280 001a 23AAD70C 		sw	a3,212(a5)
 189:usbd_core.c   **** 
 281              		.loc 1 189 24
 282 001e 23AC070C 		sw	zero,216(a5)
 283              		.loc 1 191 8
 284 0022 83464500 		lbu	a3,4(a0)
 285              	.LVL23:
 184:usbd_core.c   **** 
 286              		.loc 1 184 17
 287 0026 AA95     		add	a1,a0,a1
 288              	.LVL24:
 187:usbd_core.c   ****     transc->xfer_len = len;
 289              		.loc 1 187 5 is_stmt 1
 188:usbd_core.c   ****     transc->xfer_count = 0;
 290              		.loc 1 188 5
 189:usbd_core.c   **** 
 291              		.loc 1 189 5
GAS LISTING C:\Users\Uzair\AppData\Local\Temp\ccG3yh17.s 			page 10


 292              		.loc 1 191 5
 293              		.loc 1 191 8 is_stmt 0
 294 0028 6394E600 		bne	a3,a4,.L14
 192:usbd_core.c   ****         transc->dma_addr = (uint32_t)pbuf;
 295              		.loc 1 192 9 is_stmt 1
 296              		.loc 1 192 26 is_stmt 0
 297 002c 23A0C70E 		sw	a2,224(a5)
 298              	.L14:
 193:usbd_core.c   ****     }
 194:usbd_core.c   **** 
 195:usbd_core.c   ****     /* start the transfer */
 196:usbd_core.c   ****     usb_transc_inxfer (udev, transc);
 299              		.loc 1 196 5 is_stmt 1
 300 0030 97000000 		call	usb_transc_inxfer
 300      E7800000 
 301              	.LVL25:
 197:usbd_core.c   **** 
 198:usbd_core.c   ****     return 0;
 302              		.loc 1 198 5
 199:usbd_core.c   **** }
 303              		.loc 1 199 1 is_stmt 0
 304 0038 B240     		lw	ra,12(sp)
 305              		.cfi_restore 1
 306 003a 0145     		li	a0,0
 307 003c 4101     		addi	sp,sp,16
 308              	.LCFI9:
 309              		.cfi_def_cfa_offset 0
 310 003e 8280     		jr	ra
 311              		.cfi_endproc
 312              	.LFE7:
 314              		.section	.text.usbd_ep_stall,"ax",@progbits
 315              		.align	1
 316              		.globl	usbd_ep_stall
 318              	usbd_ep_stall:
 319              	.LFB8:
 200:usbd_core.c   **** 
 201:usbd_core.c   **** /*!
 202:usbd_core.c   ****     \brief      set an endpoint to STALL status
 203:usbd_core.c   ****     \param[in]  udev: pointer to USB core instance
 204:usbd_core.c   ****     \param[in]  ep_addr: endpoint address
 205:usbd_core.c   ****                   in this parameter:
 206:usbd_core.c   ****                     bit0..bit6: endpoint number (0..7)
 207:usbd_core.c   ****                     bit7: endpoint direction which can be IN(1) or OUT(0)
 208:usbd_core.c   ****     \param[out] none
 209:usbd_core.c   ****     \retval     none
 210:usbd_core.c   **** */
 211:usbd_core.c   **** uint32_t usbd_ep_stall (usb_core_driver *udev, uint8_t ep_addr)
 212:usbd_core.c   **** {
 320              		.loc 1 212 1 is_stmt 1
 321              		.cfi_startproc
 322              	.LVL26:
 213:usbd_core.c   ****     usb_transc *transc = NULL;
 323              		.loc 1 213 5
 214:usbd_core.c   **** 
 215:usbd_core.c   ****     if (EP_DIR(ep_addr)) {
 324              		.loc 1 215 5
 212:usbd_core.c   ****     usb_transc *transc = NULL;
GAS LISTING C:\Users\Uzair\AppData\Local\Temp\ccG3yh17.s 			page 11


 325              		.loc 1 212 1 is_stmt 0
 326 0000 4111     		addi	sp,sp,-16
 327              	.LCFI10:
 328              		.cfi_def_cfa_offset 16
 329              		.loc 1 215 8
 330 0002 93978501 		slli	a5,a1,24
 212:usbd_core.c   ****     usb_transc *transc = NULL;
 331              		.loc 1 212 1
 332 0006 06C6     		sw	ra,12(sp)
 333              		.cfi_offset 1, -4
 334              		.loc 1 215 8
 335 0008 E187     		srai	a5,a5,24
 336 000a 63D50702 		bge	a5,zero,.L17
 216:usbd_core.c   ****         transc = &udev->dev.transc_in[EP_ID(ep_addr)];
 337              		.loc 1 216 9 is_stmt 1
 338              		.loc 1 216 16 is_stmt 0
 339 000e 93F5F507 		andi	a1,a1,127
 340              	.LVL27:
 341 0012 F147     		li	a5,28
 342 0014 B385F502 		mul	a1,a1,a5
 343 0018 9385850C 		addi	a1,a1,200
 344              	.L20:
 217:usbd_core.c   ****     } else {
 218:usbd_core.c   ****         transc = &udev->dev.transc_out[ep_addr];
 345              		.loc 1 218 16
 346 001c AA95     		add	a1,a0,a1
 347              	.LVL28:
 219:usbd_core.c   ****     }
 220:usbd_core.c   **** 
 221:usbd_core.c   ****     transc->ep_stall = 1;
 348              		.loc 1 221 5 is_stmt 1
 349              		.loc 1 221 22 is_stmt 0
 350 001e 8547     		li	a5,1
 351 0020 2381F500 		sb	a5,2(a1)
 222:usbd_core.c   **** 
 223:usbd_core.c   ****     usb_transc_stall (udev, transc);
 352              		.loc 1 223 5 is_stmt 1
 353 0024 97000000 		call	usb_transc_stall
 353      E7800000 
 354              	.LVL29:
 224:usbd_core.c   **** 
 225:usbd_core.c   ****     return (0);
 355              		.loc 1 225 5
 226:usbd_core.c   **** }
 356              		.loc 1 226 1 is_stmt 0
 357 002c B240     		lw	ra,12(sp)
 358              		.cfi_remember_state
 359              		.cfi_restore 1
 360 002e 0145     		li	a0,0
 361 0030 4101     		addi	sp,sp,16
 362              	.LCFI11:
 363              		.cfi_def_cfa_offset 0
 364 0032 8280     		jr	ra
 365              	.LVL30:
 366              	.L17:
 367              	.LCFI12:
 368              		.cfi_restore_state
GAS LISTING C:\Users\Uzair\AppData\Local\Temp\ccG3yh17.s 			page 12


 218:usbd_core.c   ****     }
 369              		.loc 1 218 9 is_stmt 1
 218:usbd_core.c   ****     }
 370              		.loc 1 218 16 is_stmt 0
 371 0034 F147     		li	a5,28
 372 0036 B385F502 		mul	a1,a1,a5
 373              	.LVL31:
 374 003a 9385C526 		addi	a1,a1,620
 375 003e F9BF     		j	.L20
 376              		.cfi_endproc
 377              	.LFE8:
 379              		.section	.text.usbd_ep_stall_clear,"ax",@progbits
 380              		.align	1
 381              		.globl	usbd_ep_stall_clear
 383              	usbd_ep_stall_clear:
 384              	.LFB9:
 227:usbd_core.c   **** 
 228:usbd_core.c   **** /*!
 229:usbd_core.c   ****     \brief      clear endpoint STALLed status
 230:usbd_core.c   ****     \param[in]  udev: pointer to usb core instance
 231:usbd_core.c   ****     \param[in]  ep_addr: endpoint address
 232:usbd_core.c   ****                   in this parameter:
 233:usbd_core.c   ****                     bit0..bit6: endpoint number (0..7)
 234:usbd_core.c   ****                     bit7: endpoint direction which can be IN(1) or OUT(0)
 235:usbd_core.c   ****     \param[out] none
 236:usbd_core.c   ****     \retval     none
 237:usbd_core.c   **** */
 238:usbd_core.c   **** uint32_t usbd_ep_stall_clear (usb_core_driver *udev, uint8_t ep_addr)
 239:usbd_core.c   **** {
 385              		.loc 1 239 1 is_stmt 1
 386              		.cfi_startproc
 387              	.LVL32:
 240:usbd_core.c   ****     usb_transc *transc = NULL;
 388              		.loc 1 240 5
 241:usbd_core.c   **** 
 242:usbd_core.c   ****     if (EP_DIR(ep_addr)) {
 389              		.loc 1 242 5
 239:usbd_core.c   ****     usb_transc *transc = NULL;
 390              		.loc 1 239 1 is_stmt 0
 391 0000 4111     		addi	sp,sp,-16
 392              	.LCFI13:
 393              		.cfi_def_cfa_offset 16
 394              		.loc 1 242 8
 395 0002 93978501 		slli	a5,a1,24
 239:usbd_core.c   ****     usb_transc *transc = NULL;
 396              		.loc 1 239 1
 397 0006 06C6     		sw	ra,12(sp)
 398              		.cfi_offset 1, -4
 399              		.loc 1 242 8
 400 0008 E187     		srai	a5,a5,24
 401 000a 63D40702 		bge	a5,zero,.L22
 243:usbd_core.c   ****         transc = &udev->dev.transc_in[EP_ID(ep_addr)];
 402              		.loc 1 243 9 is_stmt 1
 403              		.loc 1 243 16 is_stmt 0
 404 000e 93F5F507 		andi	a1,a1,127
 405              	.LVL33:
 406 0012 F147     		li	a5,28
GAS LISTING C:\Users\Uzair\AppData\Local\Temp\ccG3yh17.s 			page 13


 407 0014 B385F502 		mul	a1,a1,a5
 408 0018 9385850C 		addi	a1,a1,200
 409              	.L25:
 244:usbd_core.c   ****     } else {
 245:usbd_core.c   ****         transc = &udev->dev.transc_out[ep_addr];
 410              		.loc 1 245 16
 411 001c AA95     		add	a1,a0,a1
 412              	.LVL34:
 246:usbd_core.c   ****     }
 247:usbd_core.c   **** 
 248:usbd_core.c   ****     transc->ep_stall = 0;
 413              		.loc 1 248 5 is_stmt 1
 414              		.loc 1 248 22 is_stmt 0
 415 001e 23810500 		sb	zero,2(a1)
 249:usbd_core.c   **** 
 250:usbd_core.c   ****     usb_transc_clrstall (udev, transc);
 416              		.loc 1 250 5 is_stmt 1
 417 0022 97000000 		call	usb_transc_clrstall
 417      E7800000 
 418              	.LVL35:
 251:usbd_core.c   **** 
 252:usbd_core.c   ****     return (0);
 419              		.loc 1 252 5
 253:usbd_core.c   **** }
 420              		.loc 1 253 1 is_stmt 0
 421 002a B240     		lw	ra,12(sp)
 422              		.cfi_remember_state
 423              		.cfi_restore 1
 424 002c 0145     		li	a0,0
 425 002e 4101     		addi	sp,sp,16
 426              	.LCFI14:
 427              		.cfi_def_cfa_offset 0
 428 0030 8280     		jr	ra
 429              	.LVL36:
 430              	.L22:
 431              	.LCFI15:
 432              		.cfi_restore_state
 245:usbd_core.c   ****     }
 433              		.loc 1 245 9 is_stmt 1
 245:usbd_core.c   ****     }
 434              		.loc 1 245 16 is_stmt 0
 435 0032 F147     		li	a5,28
 436 0034 B385F502 		mul	a1,a1,a5
 437              	.LVL37:
 438 0038 9385C526 		addi	a1,a1,620
 439 003c C5B7     		j	.L25
 440              		.cfi_endproc
 441              	.LFE9:
 443              		.section	.text.usbd_fifo_flush,"ax",@progbits
 444              		.align	1
 445              		.globl	usbd_fifo_flush
 447              	usbd_fifo_flush:
 448              	.LFB10:
 254:usbd_core.c   **** 
 255:usbd_core.c   **** /*!
 256:usbd_core.c   ****     \brief      flush the endpoint FIFOs
 257:usbd_core.c   ****     \param[in]  udev: pointer to usb core instance
GAS LISTING C:\Users\Uzair\AppData\Local\Temp\ccG3yh17.s 			page 14


 258:usbd_core.c   ****     \param[in]  ep_addr: endpoint address
 259:usbd_core.c   ****                   in this parameter:
 260:usbd_core.c   ****                     bit0..bit6: endpoint number (0..7)
 261:usbd_core.c   ****                     bit7: endpoint direction which can be IN(1) or OUT(0)
 262:usbd_core.c   ****     \param[out] none
 263:usbd_core.c   ****     \retval     none
 264:usbd_core.c   **** */
 265:usbd_core.c   **** uint32_t  usbd_fifo_flush (usb_core_driver *udev, uint8_t ep_addr)
 266:usbd_core.c   **** {
 449              		.loc 1 266 1 is_stmt 1
 450              		.cfi_startproc
 451              	.LVL38:
 267:usbd_core.c   ****     if (EP_DIR(ep_addr)) {
 452              		.loc 1 267 5
 266:usbd_core.c   ****     if (EP_DIR(ep_addr)) {
 453              		.loc 1 266 1 is_stmt 0
 454 0000 4111     		addi	sp,sp,-16
 455              	.LCFI16:
 456              		.cfi_def_cfa_offset 16
 457              		.loc 1 267 8
 458 0002 93978501 		slli	a5,a1,24
 266:usbd_core.c   ****     if (EP_DIR(ep_addr)) {
 459              		.loc 1 266 1
 460 0006 06C6     		sw	ra,12(sp)
 461              		.cfi_offset 1, -4
 462              		.loc 1 267 8
 463 0008 E187     		srai	a5,a5,24
 464 000a 2105     		addi	a0,a0,8
 465              	.LVL39:
 466 000c 63DC0700 		bge	a5,zero,.L27
 268:usbd_core.c   ****         usb_txfifo_flush (&udev->regs, EP_ID(ep_addr));
 467              		.loc 1 268 9 is_stmt 1
 468 0010 93F5F507 		andi	a1,a1,127
 469              	.LVL40:
 470 0014 97000000 		call	usb_txfifo_flush
 470      E7800000 
 471              	.LVL41:
 472              	.L28:
 269:usbd_core.c   ****     } else {
 270:usbd_core.c   ****         usb_rxfifo_flush (&udev->regs);
 271:usbd_core.c   ****     }
 272:usbd_core.c   **** 
 273:usbd_core.c   ****     return (0);
 473              		.loc 1 273 5
 274:usbd_core.c   **** }
 474              		.loc 1 274 1 is_stmt 0
 475 001c B240     		lw	ra,12(sp)
 476              		.cfi_remember_state
 477              		.cfi_restore 1
 478 001e 0145     		li	a0,0
 479 0020 4101     		addi	sp,sp,16
 480              	.LCFI17:
 481              		.cfi_def_cfa_offset 0
 482 0022 8280     		jr	ra
 483              	.LVL42:
 484              	.L27:
 485              	.LCFI18:
GAS LISTING C:\Users\Uzair\AppData\Local\Temp\ccG3yh17.s 			page 15


 486              		.cfi_restore_state
 270:usbd_core.c   ****     }
 487              		.loc 1 270 9 is_stmt 1
 488 0024 97000000 		call	usb_rxfifo_flush
 488      E7800000 
 489              	.LVL43:
 490 002c C5BF     		j	.L28
 491              		.cfi_endproc
 492              	.LFE10:
 494              		.section	.text.usbd_addr_set,"ax",@progbits
 495              		.align	1
 496              		.globl	usbd_addr_set
 498              	usbd_addr_set:
 499              	.LFB11:
 275:usbd_core.c   **** 
 276:usbd_core.c   **** /*!
 277:usbd_core.c   ****     \brief      set USB device address
 278:usbd_core.c   ****     \param[in]  udev: pointer to USB core instance
 279:usbd_core.c   ****     \param[in]  addr: device address to set
 280:usbd_core.c   ****     \param[out] none
 281:usbd_core.c   ****     \retval     none
 282:usbd_core.c   **** */
 283:usbd_core.c   **** void  usbd_addr_set (usb_core_driver *udev, uint8_t addr)
 284:usbd_core.c   **** {
 500              		.loc 1 284 1
 501              		.cfi_startproc
 502              	.LVL44:
 285:usbd_core.c   ****     usb_devaddr_set(udev, addr);
 503              		.loc 1 285 5
 504 0000 17030000 		tail	usb_devaddr_set
 504      67000300 
 505              	.LVL45:
 506              		.cfi_endproc
 507              	.LFE11:
 509              		.section	.text.usbd_rxcount_get,"ax",@progbits
 510              		.align	1
 511              		.globl	usbd_rxcount_get
 513              	usbd_rxcount_get:
 514              	.LFB12:
 286:usbd_core.c   **** }
 287:usbd_core.c   **** 
 288:usbd_core.c   **** /*!
 289:usbd_core.c   ****     \brief      get the received data length
 290:usbd_core.c   ****     \param[in]  udev: pointer to USB device instance
 291:usbd_core.c   ****     \param[in]  ep_num: endpoint number
 292:usbd_core.c   ****     \param[out] none
 293:usbd_core.c   ****     \retval     USB device operation cur_status
 294:usbd_core.c   **** */
 295:usbd_core.c   **** uint16_t  usbd_rxcount_get (usb_core_driver *udev, uint8_t ep_num)
 296:usbd_core.c   **** {
 515              		.loc 1 296 1
 516              		.cfi_startproc
 517              	.LVL46:
 297:usbd_core.c   ****     return udev->dev.transc_out[ep_num].xfer_count;
 518              		.loc 1 297 5
 519              		.loc 1 297 40 is_stmt 0
 520 0000 F147     		li	a5,28
GAS LISTING C:\Users\Uzair\AppData\Local\Temp\ccG3yh17.s 			page 16


 521 0002 B385F502 		mul	a1,a1,a5
 522              	.LVL47:
 523 0006 AA95     		add	a1,a0,a1
 298:usbd_core.c   **** }
 524              		.loc 1 298 1
 525 0008 03D5C527 		lhu	a0,636(a1)
 526              	.LVL48:
 527 000c 8280     		ret
 528              		.cfi_endproc
 529              	.LFE12:
 531              		.section	.text.usbd_connect,"ax",@progbits
 532              		.align	1
 533              		.globl	usbd_connect
 535              	usbd_connect:
 536              	.LFB13:
 299:usbd_core.c   **** 
 300:usbd_core.c   **** /*!
 301:usbd_core.c   ****     \brief      device connect
 302:usbd_core.c   ****     \param[in]  udev: pointer to USB device instance
 303:usbd_core.c   ****     \param[out] none
 304:usbd_core.c   ****     \retval     none
 305:usbd_core.c   **** */
 306:usbd_core.c   **** void  usbd_connect (usb_core_driver *udev)
 307:usbd_core.c   **** {
 537              		.loc 1 307 1 is_stmt 1
 538              		.cfi_startproc
 539              	.LVL49:
 308:usbd_core.c   **** #ifndef USE_OTG_MODE
 309:usbd_core.c   ****     /* connect device */
 310:usbd_core.c   ****     usb_dev_connect (udev);
 540              		.loc 1 310 5
 307:usbd_core.c   **** #ifndef USE_OTG_MODE
 541              		.loc 1 307 1 is_stmt 0
 542 0000 4111     		addi	sp,sp,-16
 543              	.LCFI19:
 544              		.cfi_def_cfa_offset 16
 545 0002 06C6     		sw	ra,12(sp)
 546              		.cfi_offset 1, -4
 547              		.loc 1 310 5
 548 0004 97000000 		call	usb_dev_connect
 548      E7800000 
 549              	.LVL50:
 311:usbd_core.c   ****     usb_mdelay(3);
 550              		.loc 1 311 5 is_stmt 1
 312:usbd_core.c   **** 
 313:usbd_core.c   **** #endif /* USE_OTG_MODE */
 314:usbd_core.c   **** }
 551              		.loc 1 314 1 is_stmt 0
 552 000c B240     		lw	ra,12(sp)
 553              		.cfi_restore 1
 311:usbd_core.c   ****     usb_mdelay(3);
 554              		.loc 1 311 5
 555 000e 0D45     		li	a0,3
 556              		.loc 1 314 1
 557 0010 4101     		addi	sp,sp,16
 558              	.LCFI20:
 559              		.cfi_def_cfa_offset 0
GAS LISTING C:\Users\Uzair\AppData\Local\Temp\ccG3yh17.s 			page 17


 311:usbd_core.c   ****     usb_mdelay(3);
 560              		.loc 1 311 5
 561 0012 17030000 		tail	usb_mdelay
 561      67000300 
 562              	.LVL51:
 563              		.cfi_endproc
 564              	.LFE13:
 566              		.section	.text.usbd_disconnect,"ax",@progbits
 567              		.align	1
 568              		.globl	usbd_disconnect
 570              	usbd_disconnect:
 571              	.LFB14:
 315:usbd_core.c   **** 
 316:usbd_core.c   **** /*!
 317:usbd_core.c   ****     \brief      device disconnect
 318:usbd_core.c   ****     \param[in]  udev: pointer to USB device instance
 319:usbd_core.c   ****     \param[out] none
 320:usbd_core.c   ****     \retval     none
 321:usbd_core.c   **** */
 322:usbd_core.c   **** void  usbd_disconnect (usb_core_driver *udev)
 323:usbd_core.c   **** {
 572              		.loc 1 323 1 is_stmt 1
 573              		.cfi_startproc
 574              	.LVL52:
 324:usbd_core.c   **** #ifndef USE_OTG_MODE
 325:usbd_core.c   ****     /* disconnect device for 3ms */
 326:usbd_core.c   ****     usb_dev_disconnect (udev);
 575              		.loc 1 326 5
 323:usbd_core.c   **** #ifndef USE_OTG_MODE
 576              		.loc 1 323 1 is_stmt 0
 577 0000 4111     		addi	sp,sp,-16
 578              	.LCFI21:
 579              		.cfi_def_cfa_offset 16
 580 0002 06C6     		sw	ra,12(sp)
 581              		.cfi_offset 1, -4
 582              		.loc 1 326 5
 583 0004 97000000 		call	usb_dev_disconnect
 583      E7800000 
 584              	.LVL53:
 327:usbd_core.c   ****     usb_mdelay(3);
 585              		.loc 1 327 5 is_stmt 1
 328:usbd_core.c   **** #endif /* USE_OTG_MODE */
 329:usbd_core.c   **** }
 586              		.loc 1 329 1 is_stmt 0
 587 000c B240     		lw	ra,12(sp)
 588              		.cfi_restore 1
 327:usbd_core.c   ****     usb_mdelay(3);
 589              		.loc 1 327 5
 590 000e 0D45     		li	a0,3
 591              		.loc 1 329 1
 592 0010 4101     		addi	sp,sp,16
 593              	.LCFI22:
 594              		.cfi_def_cfa_offset 0
 327:usbd_core.c   ****     usb_mdelay(3);
 595              		.loc 1 327 5
 596 0012 17030000 		tail	usb_mdelay
 596      67000300 
GAS LISTING C:\Users\Uzair\AppData\Local\Temp\ccG3yh17.s 			page 18


 597              	.LVL54:
 598              		.cfi_endproc
 599              	.LFE14:
 601              		.section	.text.usbd_init,"ax",@progbits
 602              		.align	1
 603              		.globl	usbd_init
 605              	usbd_init:
 606              	.LFB3:
  55:usbd_core.c   ****     /* device descriptor, class and user callbacks */
 607              		.loc 1 55 1 is_stmt 1
 608              		.cfi_startproc
 609              	.LVL55:
  57:usbd_core.c   **** 
 610              		.loc 1 57 5
  55:usbd_core.c   ****     /* device descriptor, class and user callbacks */
 611              		.loc 1 55 1 is_stmt 0
 612 0000 4111     		addi	sp,sp,-16
 613              	.LCFI23:
 614              		.cfi_def_cfa_offset 16
 615 0002 06C6     		sw	ra,12(sp)
 616 0004 22C4     		sw	s0,8(sp)
 617 0006 26C2     		sw	s1,4(sp)
 618              		.cfi_offset 1, -4
 619              		.cfi_offset 8, -8
 620              		.cfi_offset 9, -12
  60:usbd_core.c   **** 
 621              		.loc 1 60 5
 622 0008 93048500 		addi	s1,a0,8
  57:usbd_core.c   **** 
 623              		.loc 1 57 26
 624 000c 2328C542 		sw	a2,1072(a0)
  60:usbd_core.c   **** 
 625              		.loc 1 60 5 is_stmt 1
 626 0010 2E86     		mv	a2,a1
 627              	.LVL56:
 628 0012 A685     		mv	a1,s1
 629              	.LVL57:
  55:usbd_core.c   ****     /* device descriptor, class and user callbacks */
 630              		.loc 1 55 1 is_stmt 0
 631 0014 2A84     		mv	s0,a0
  60:usbd_core.c   **** 
 632              		.loc 1 60 5
 633 0016 97000000 		call	usb_basic_init
 633      E7800000 
 634              	.LVL58:
  63:usbd_core.c   **** 
 635              		.loc 1 63 5 is_stmt 1
 636 001e 4C40     		lw	a1,4(s0)
 637 0020 0840     		lw	a0,0(s0)
 638 0022 2686     		mv	a2,s1
 639 0024 97000000 		call	usb_core_init
 639      E7800000 
 640              	.LVL59:
  66:usbd_core.c   **** 
 641              		.loc 1 66 5
 642 002c 2285     		mv	a0,s0
 643 002e 97000000 		call	usbd_disconnect
GAS LISTING C:\Users\Uzair\AppData\Local\Temp\ccG3yh17.s 			page 19


 643      E7800000 
 644              	.LVL60:
  69:usbd_core.c   **** 
 645              		.loc 1 69 5
 646 0036 2285     		mv	a0,s0
 647 0038 97000000 		call	usb_devcore_init
 647      E7800000 
 648              	.LVL61:
  72:usbd_core.c   ****     
 649              		.loc 1 72 5
 650 0040 2285     		mv	a0,s0
 651 0042 97000000 		call	usbd_connect
 651      E7800000 
 652              	.LVL62:
  74:usbd_core.c   **** }
 653              		.loc 1 74 5
  74:usbd_core.c   **** }
 654              		.loc 1 74 26 is_stmt 0
 655 004a 8547     		li	a5,1
 656 004c 2303F40C 		sb	a5,198(s0)
  75:usbd_core.c   **** 
 657              		.loc 1 75 1
 658 0050 B240     		lw	ra,12(sp)
 659              		.cfi_restore 1
 660 0052 2244     		lw	s0,8(sp)
 661              		.cfi_restore 8
 662              	.LVL63:
 663 0054 9244     		lw	s1,4(sp)
 664              		.cfi_restore 9
 665              	.LVL64:
 666 0056 4101     		addi	sp,sp,16
 667              	.LCFI24:
 668              		.cfi_def_cfa_offset 0
 669 0058 8280     		jr	ra
 670              		.cfi_endproc
 671              	.LFE3:
 673              		.globl	ep_type
 674              		.section	.rodata.ep_type,"a"
 675              		.align	2
 676              		.set	.LANCHOR0,. + 0
 679              	ep_type:
 680 0000 00000000 		.word	0
 681 0004 01000000 		.word	1
 682 0008 02000000 		.word	2
 683 000c 03000000 		.word	3
 684              		.text
 685              	.Letext0:
 686              		.file 2 "c:\\kth\\he1043\\toolchain-gd32v-v202-win\\toolchain-gd32v-v202-win\\compiler\\riscv64-un
 687              		.file 3 "c:\\kth\\he1043\\toolchain-gd32v-v202-win\\toolchain-gd32v-v202-win\\compiler\\riscv64-un
 688              		.file 4 "drv_usb_regs.h"
 689              		.file 5 "./../../firmware/GD32VF103_standard_peripheral/system_gd32vf103.h"
 690              		.file 6 "usb_ch9_std.h"
 691              		.file 7 "drv_usb_core.h"
 692              		.file 8 "drv_usb_dev.h"
 693              		.file 9 "usbd_core.h"
 694              		.file 10 "drv_usb_hw.h"
GAS LISTING C:\Users\Uzair\AppData\Local\Temp\ccG3yh17.s 			page 20

