GAS LISTING C:\Users\Uzair\AppData\Local\Temp\ccG3yh17.s 			page 1


   1              		.file	"usbd_core.c"
   2              		.option nopic
   3              		.attribute arch, "rv32i2p0_m2p0_a2p0_c2p0"
   4              		.attribute unaligned_access, 0
   5              		.attribute stack_align, 16
   6              		.text
   7              	.Ltext0:
   8              		.cfi_sections	.debug_frame
   9              		.section	.text.usbd_ep_setup,"ax",@progbits
  10              		.align	1
  11              		.globl	usbd_ep_setup
  13              	usbd_ep_setup:
  14              	.LFB4:
  15              		.file 1 "usbd_core.c"
   1:usbd_core.c   **** /*!
   2:usbd_core.c   ****     \file  usbd_core.c
   3:usbd_core.c   ****     \brief USB device mode core functions
   4:usbd_core.c   **** 
   5:usbd_core.c   ****     \version 2019-6-5, V1.0.0, firmware for GD32 USBFS&USBHS
   6:usbd_core.c   **** */
   7:usbd_core.c   **** 
   8:usbd_core.c   **** /*
   9:usbd_core.c   ****     Copyright (c) 2019, GigaDevice Semiconductor Inc.
  10:usbd_core.c   **** 
  11:usbd_core.c   ****     Redistribution and use in source and binary forms, with or without modification, 
  12:usbd_core.c   **** are permitted provided that the following conditions are met:
  13:usbd_core.c   **** 
  14:usbd_core.c   ****     1. Redistributions of source code must retain the above copyright notice, this 
  15:usbd_core.c   ****        list of conditions and the following disclaimer.
  16:usbd_core.c   ****     2. Redistributions in binary form must reproduce the above copyright notice, 
  17:usbd_core.c   ****        this list of conditions and the following disclaimer in the documentation 
  18:usbd_core.c   ****        and/or other materials provided with the distribution.
  19:usbd_core.c   ****     3. Neither the name of the copyright holder nor the names of its contributors 
  20:usbd_core.c   ****        may be used to endorse or promote products derived from this software without 
  21:usbd_core.c   ****        specific prior written permission.
  22:usbd_core.c   **** 
  23:usbd_core.c   ****     THIS SOFTWARE IS PROVIDED BY THE COPYRIGHT HOLDERS AND CONTRIBUTORS "AS IS" 
  24:usbd_core.c   **** AND ANY EXPRESS OR IMPLIED WARRANTIES, INCLUDING, BUT NOT LIMITED TO, THE IMPLIED 
  25:usbd_core.c   **** WARRANTIES OF MERCHANTABILITY AND FITNESS FOR A PARTICULAR PURPOSE ARE DISCLAIMED. 
  26:usbd_core.c   **** IN NO EVENT SHALL THE COPYRIGHT HOLDER OR CONTRIBUTORS BE LIABLE FOR ANY DIRECT, 
  27:usbd_core.c   **** INDIRECT, INCIDENTAL, SPECIAL, EXEMPLARY, OR CONSEQUENTIAL DAMAGES (INCLUDING, BUT 
  28:usbd_core.c   **** NOT LIMITED TO, PROCUREMENT OF SUBSTITUTE GOODS OR SERVICES; LOSS OF USE, DATA, OR 
  29:usbd_core.c   **** PROFITS; OR BUSINESS INTERRUPTION) HOWEVER CAUSED AND ON ANY THEORY OF LIABILITY, 
  30:usbd_core.c   **** WHETHER IN CONTRACT, STRICT LIABILITY, OR TORT (INCLUDING NEGLIGENCE OR OTHERWISE) 
  31:usbd_core.c   **** ARISING IN ANY WAY OUT OF THE USE OF THIS SOFTWARE, EVEN IF ADVISED OF THE POSSIBILITY 
  32:usbd_core.c   **** OF SUCH DAMAGE.
  33:usbd_core.c   **** */
  34:usbd_core.c   **** 
  35:usbd_core.c   **** #include "usbd_core.h"
  36:usbd_core.c   **** #include "drv_usb_hw.h"
  37:usbd_core.c   **** 
  38:usbd_core.c   **** /* endpoint type */
  39:usbd_core.c   **** const uint32_t ep_type[] = {
  40:usbd_core.c   ****     [USB_EP_ATTR_CTL]  = USB_EPTYPE_CTRL,
  41:usbd_core.c   ****     [USB_EP_ATTR_BULK] = USB_EPTYPE_BULK,
  42:usbd_core.c   ****     [USB_EP_ATTR_INT]  = USB_EPTYPE_INTR,
  43:usbd_core.c   ****     [USB_EP_ATTR_ISO]  = USB_EPTYPE_ISOC
GAS LISTING C:\Users\Uzair\AppData\Local\Temp\ccG3yh17.s 			page 2


  44:usbd_core.c   **** };
  45:usbd_core.c   **** 
  46:usbd_core.c   **** /*!
  47:usbd_core.c   ****     \brief      initailizes the USB device-mode stack and load the class driver
  48:usbd_core.c   ****     \param[in]  udev: pointer to USB core instance
  49:usbd_core.c   ****     \param[in]  core: usb core type
  50:usbd_core.c   ****     \param[in]  class_core: class driver
  51:usbd_core.c   ****     \param[out] none
  52:usbd_core.c   ****     \retval     none
  53:usbd_core.c   **** */
  54:usbd_core.c   **** void usbd_init (usb_core_driver *udev, usb_core_enum core, usb_class_core *class_core)
  55:usbd_core.c   **** {
  56:usbd_core.c   ****     /* device descriptor, class and user callbacks */
  57:usbd_core.c   ****     udev->dev.class_core = class_core;
  58:usbd_core.c   **** 
  59:usbd_core.c   ****     /* configure USB capabilites */
  60:usbd_core.c   ****     usb_basic_init (&udev->bp, &udev->regs, core);
  61:usbd_core.c   **** 
  62:usbd_core.c   ****     /* initailizes the USB core*/
  63:usbd_core.c   ****     usb_core_init (udev->bp, &udev->regs);
  64:usbd_core.c   **** 
  65:usbd_core.c   ****     /* set device disconnect */
  66:usbd_core.c   ****     usbd_disconnect (udev);
  67:usbd_core.c   **** 
  68:usbd_core.c   ****     /* initailizes device mode */
  69:usbd_core.c   ****     usb_devcore_init (udev);
  70:usbd_core.c   **** 
  71:usbd_core.c   ****     /* set device connect */
  72:usbd_core.c   ****     usbd_connect (udev);
  73:usbd_core.c   ****     
  74:usbd_core.c   ****     udev->dev.cur_status = USBD_DEFAULT;
  75:usbd_core.c   **** }
  76:usbd_core.c   **** 
  77:usbd_core.c   **** /*!
  78:usbd_core.c   ****     \brief      endpoint initialization
  79:usbd_core.c   ****     \param[in]  udev: pointer to USB core instance
  80:usbd_core.c   ****     \param[in]  ep_desc: pointer to endpoint descriptor
  81:usbd_core.c   ****     \param[out] none
  82:usbd_core.c   ****     \retval     none
  83:usbd_core.c   **** */
  84:usbd_core.c   **** uint32_t usbd_ep_setup (usb_core_driver *udev, const usb_desc_ep *ep_desc)
  85:usbd_core.c   **** {
  16              		.loc 1 85 1
  17              		.cfi_startproc
  18              	.LVL0:
  86:usbd_core.c   ****     usb_transc *transc;
  19              		.loc 1 86 5
  87:usbd_core.c   **** 
  88:usbd_core.c   ****     uint8_t ep_addr = ep_desc->bEndpointAddress;
  20              		.loc 1 88 5
  85:usbd_core.c   ****     usb_transc *transc;
  21              		.loc 1 85 1 is_stmt 0
  22 0000 4111     		addi	sp,sp,-16
  23              	.LCFI0:
  24              		.cfi_def_cfa_offset 16
  25 0002 06C6     		sw	ra,12(sp)
  26              		.cfi_offset 1, -4
GAS LISTING C:\Users\Uzair\AppData\Local\Temp\ccG3yh17.s 			page 3


  89:usbd_core.c   ****     uint8_t max_len = ep_desc->wMaxPacketSize;
  27              		.loc 1 89 30
  28 0004 03C75500 		lbu	a4,5(a1)
  29 0008 83C74500 		lbu	a5,4(a1)
  88:usbd_core.c   ****     uint8_t max_len = ep_desc->wMaxPacketSize;
  30              		.loc 1 88 13
  31 000c 03C62500 		lbu	a2,2(a1)
  32              	.LVL1:
  33              		.loc 1 89 5 is_stmt 1
  34              		.loc 1 89 30 is_stmt 0
  35 0010 2207     		slli	a4,a4,8
  36 0012 5D8F     		or	a4,a4,a5
  37              	.LVL2:
  90:usbd_core.c   **** 
  91:usbd_core.c   ****     /* set endpoint direction */
  92:usbd_core.c   ****     if (EP_DIR(ep_addr)) {
  38              		.loc 1 92 5 is_stmt 1
  39              		.loc 1 92 8 is_stmt 0
  40 0014 93178601 		slli	a5,a2,24
  41 0018 E187     		srai	a5,a5,24
  42 001a 63D20706 		bge	a5,zero,.L2
  93:usbd_core.c   ****         transc = &udev->dev.transc_in[EP_ID(ep_addr)];
  43              		.loc 1 93 9 is_stmt 1
  44              		.loc 1 93 16 is_stmt 0
  45 001e F147     		li	a5,28
  46 0020 9376F607 		andi	a3,a2,127
  47 0024 B386F602 		mul	a3,a3,a5
  48 0028 9387860C 		addi	a5,a3,200
  94:usbd_core.c   **** 
  95:usbd_core.c   ****         transc->ep_addr.dir = 1U;
  49              		.loc 1 95 29
  50 002c AA96     		add	a3,a0,a3
  51 002e 03C8860C 		lbu	a6,200(a3)
  93:usbd_core.c   ****         transc = &udev->dev.transc_in[EP_ID(ep_addr)];
  52              		.loc 1 93 16
  53 0032 AA97     		add	a5,a0,a5
  54              	.LVL3:
  55              		.loc 1 95 9 is_stmt 1
  56              		.loc 1 95 29 is_stmt 0
  57 0034 136808F8 		ori	a6,a6,-128
  58 0038 2384060D 		sb	a6,200(a3)
  59              	.L3:
  96:usbd_core.c   ****     } else {
  97:usbd_core.c   ****         transc = &udev->dev.transc_out[ep_addr];
  98:usbd_core.c   **** 
  99:usbd_core.c   ****         transc->ep_addr.dir = 0U;
 100:usbd_core.c   ****     }
 101:usbd_core.c   **** 
 102:usbd_core.c   ****     transc->ep_addr.num = EP_ID(ep_addr);
  60              		.loc 1 102 5 is_stmt 1
  61              		.loc 1 102 25 is_stmt 0
  62 003c 83C60700 		lbu	a3,0(a5)
  63 0040 3D8A     		andi	a2,a2,15
  64              	.LVL4:
 103:usbd_core.c   ****     transc->max_len = max_len;
  65              		.loc 1 103 21
  66 0042 1377F70F 		andi	a4,a4,255
GAS LISTING C:\Users\Uzair\AppData\Local\Temp\ccG3yh17.s 			page 4


  67              	.LVL5:
 102:usbd_core.c   ****     transc->max_len = max_len;
  68              		.loc 1 102 25
  69 0046 C19A     		andi	a3,a3,-16
  70 0048 558E     		or	a2,a3,a2
  71 004a 2380C700 		sb	a2,0(a5)
  72              		.loc 1 103 5 is_stmt 1
  73              		.loc 1 103 21 is_stmt 0
  74 004e 2392E700 		sh	a4,4(a5)
 104:usbd_core.c   ****     transc->ep_type = ep_type[ep_desc->bmAttributes & USB_EPTYPE_MASK];
  75              		.loc 1 104 5 is_stmt 1
  76              		.loc 1 104 53 is_stmt 0
  77 0052 03C73500 		lbu	a4,3(a1)
 105:usbd_core.c   **** 
 106:usbd_core.c   ****     /* active USB endpoint function */
 107:usbd_core.c   ****     usb_transc_active (udev, transc);
  78              		.loc 1 107 5
  79 0056 BE85     		mv	a1,a5
  80              	.LVL6:
 104:usbd_core.c   ****     transc->ep_type = ep_type[ep_desc->bmAttributes & USB_EPTYPE_MASK];
  81              		.loc 1 104 53
  82 0058 0D8B     		andi	a4,a4,3
 104:usbd_core.c   ****     transc->ep_type = ep_type[ep_desc->bmAttributes & USB_EPTYPE_MASK];
  83              		.loc 1 104 30
  84 005a 93162700 		slli	a3,a4,2
  85 005e 37070000 		lui	a4,%hi(.LANCHOR0)
  86 0062 13070700 		addi	a4,a4,%lo(.LANCHOR0)
  87 0066 3697     		add	a4,a4,a3
 104:usbd_core.c   ****     transc->ep_type = ep_type[ep_desc->bmAttributes & USB_EPTYPE_MASK];
  88              		.loc 1 104 21
  89 0068 1843     		lw	a4,0(a4)
  90 006a A380E700 		sb	a4,1(a5)
  91              		.loc 1 107 5 is_stmt 1
  92 006e 97000000 		call	usb_transc_active
  92      E7800000 
  93              	.LVL7:
 108:usbd_core.c   **** 
 109:usbd_core.c   ****     return 0;
  94              		.loc 1 109 5
 110:usbd_core.c   **** }
  95              		.loc 1 110 1 is_stmt 0
  96 0076 B240     		lw	ra,12(sp)
  97              		.cfi_remember_state
  98              		.cfi_restore 1
  99 0078 0145     		li	a0,0
 100 007a 4101     		addi	sp,sp,16
 101              	.LCFI1:
 102              		.cfi_def_cfa_offset 0
 103 007c 8280     		jr	ra
 104              	.LVL8:
 105              	.L2:
 106              	.LCFI2:
 107              		.cfi_restore_state
  97:usbd_core.c   **** 
 108              		.loc 1 97 9 is_stmt 1
  97:usbd_core.c   **** 
 109              		.loc 1 97 16 is_stmt 0
GAS LISTING C:\Users\Uzair\AppData\Local\Temp\ccG3yh17.s 			page 5


 110 007e F146     		li	a3,28
 111 0080 B306D602 		mul	a3,a2,a3
 112 0084 9387C626 		addi	a5,a3,620
  99:usbd_core.c   ****     }
 113              		.loc 1 99 29
 114 0088 AA96     		add	a3,a0,a3
 115 008a 03C8C626 		lbu	a6,620(a3)
  97:usbd_core.c   **** 
 116              		.loc 1 97 16
 117 008e AA97     		add	a5,a0,a5
 118              	.LVL9:
  99:usbd_core.c   ****     }
 119              		.loc 1 99 9 is_stmt 1
  99:usbd_core.c   ****     }
 120              		.loc 1 99 29 is_stmt 0
 121 0090 1378F807 		andi	a6,a6,127
 122 0094 23860627 		sb	a6,620(a3)
 123 0098 55B7     		j	.L3
 124              		.cfi_endproc
 125              	.LFE4:
 127              		.section	.text.usbd_ep_clear,"ax",@progbits
 128              		.align	1
 129              		.globl	usbd_ep_clear
 131              	usbd_ep_clear:
 132              	.LFB5:
 111:usbd_core.c   **** 
 112:usbd_core.c   **** /*!
 113:usbd_core.c   ****     \brief      configure the endpoint when it is disabled
 114:usbd_core.c   ****     \param[in]  udev: pointer to USB core instance
 115:usbd_core.c   ****     \param[in]  ep_addr: endpoint address
 116:usbd_core.c   ****                   in this parameter:
 117:usbd_core.c   ****                     bit0..bit6: endpoint number (0..7)
 118:usbd_core.c   ****                     bit7: endpoint direction which can be IN(1) or OUT(0)
 119:usbd_core.c   ****     \param[out] none
 120:usbd_core.c   ****     \retval     none
 121:usbd_core.c   **** */
 122:usbd_core.c   **** uint32_t usbd_ep_clear (usb_core_driver *udev, uint8_t ep_addr)
 123:usbd_core.c   **** {
 133              		.loc 1 123 1 is_stmt 1
 134              		.cfi_startproc
 135              	.LVL10:
 124:usbd_core.c   ****     usb_transc *transc;
 136              		.loc 1 124 5
 125:usbd_core.c   **** 
 126:usbd_core.c   ****     if (EP_DIR(ep_addr)) {
 137              		.loc 1 126 5
 123:usbd_core.c   ****     usb_transc *transc;
 138              		.loc 1 123 1 is_stmt 0
 139 0000 4111     		addi	sp,sp,-16
 140              	.LCFI3:
 141              		.cfi_def_cfa_offset 16
 142              		.loc 1 126 8
 143 0002 93978501 		slli	a5,a1,24
 123:usbd_core.c   ****     usb_transc *transc;
 144              		.loc 1 123 1
 145 0006 06C6     		sw	ra,12(sp)
 146              		.cfi_offset 1, -4
GAS LISTING C:\Users\Uzair\AppData\Local\Temp\ccG3yh17.s 			page 6


 147              		.loc 1 126 8
 148 0008 E187     		srai	a5,a5,24
 149 000a 63D20702 		bge	a5,zero,.L6
 127:usbd_core.c   ****         transc = &udev->dev.transc_in[EP_ID(ep_addr)];
 150              		.loc 1 127 9 is_stmt 1
 151              		.loc 1 127 16 is_stmt 0
 152 000e 93F5F507 		andi	a1,a1,127
 153              	.LVL11:
 154 0012 F147     		li	a5,28
 155 0014 B385F502 		mul	a1,a1,a5
 156 0018 9385850C 		addi	a1,a1,200
 157              	.L9:
 128:usbd_core.c   ****     } else {
 129:usbd_core.c   ****         transc = &udev->dev.transc_out[ep_addr];
 158              		.loc 1 129 16
 159 001c AA95     		add	a1,a0,a1
 160              	.LVL12:
 130:usbd_core.c   ****     }
 131:usbd_core.c   **** 
 132:usbd_core.c   ****     /* deactive USB endpoint function */
 133:usbd_core.c   ****     usb_transc_deactivate (udev, transc);
 161              		.loc 1 133 5 is_stmt 1
 162 001e 97000000 		call	usb_transc_deactivate
 162      E7800000 
 163              	.LVL13:
 134:usbd_core.c   **** 
 135:usbd_core.c   ****     return 0;
 164              		.loc 1 135 5
 136:usbd_core.c   **** }
 165              		.loc 1 136 1 is_stmt 0
 166 0026 B240     		lw	ra,12(sp)
 167              		.cfi_remember_state
 168              		.cfi_restore 1
 169 0028 0145     		li	a0,0
 170 002a 4101     		addi	sp,sp,16
 171              	.LCFI4:
 172              		.cfi_def_cfa_offset 0
 173 002c 8280     		jr	ra
 174              	.LVL14:
 175              	.L6:
 176              	.LCFI5:
 177              		.cfi_restore_state
 129:usbd_core.c   ****     }
 178              		.loc 1 129 9 is_stmt 1
 129:usbd_core.c   ****     }
 179              		.loc 1 129 16 is_stmt 0
 180 002e F147     		li	a5,28
 181 0030 B385F502 		mul	a1,a1,a5
 182              	.LVL15:
 183 0034 9385C526 		addi	a1,a1,620
 184 0038 D5B7     		j	.L9
 185              		.cfi_endproc
 186              	.LFE5:
 188              		.section	.text.usbd_ep_recev,"ax",@progbits
 189              		.align	1
 190              		.globl	usbd_ep_recev
 192              	usbd_ep_recev:
GAS LISTING C:\Users\Uzair\AppData\Local\Temp\ccG3yh17.s 			page 7


 193              	.LFB6:
 137:usbd_core.c   **** 
 138:usbd_core.c   **** 
 139:usbd_core.c   **** /*!
 140:usbd_core.c   ****     \brief      endpoint prepare to receive data
 141:usbd_core.c   ****     \param[in]  udev: pointer to usb core instance
 142:usbd_core.c   ****     \param[in]  ep_addr: endpoint address
 143:usbd_core.c   ****                   in this parameter:
 144:usbd_core.c   ****                     bit0..bit6: endpoint number (0..7)
 145:usbd_core.c   ****                     bit7: endpoint direction which can be IN(1) or OUT(0)
 146:usbd_core.c   ****     \param[in]  pbuf: user buffer address pointer
 147:usbd_core.c   ****     \param[in]  len: buffer length
 148:usbd_core.c   ****     \param[out] none
 149:usbd_core.c   ****     \retval     none
 150:usbd_core.c   **** */
 151:usbd_core.c   **** uint32_t usbd_ep_recev (usb_core_driver *udev, uint8_t ep_addr, uint8_t *pbuf, uint16_t len)
 152:usbd_core.c   **** {
 194              		.loc 1 152 1 is_stmt 1
 195              		.cfi_startproc
 196              	.LVL16:
 153:usbd_core.c   ****     usb_transc *transc = &udev->dev.transc_out[EP_ID(ep_addr)];
 197              		.loc 1 153 5
 198 0000 93F7F507 		andi	a5,a1,127
 199              		.loc 1 153 17 is_stmt 0
 200 0004 F145     		li	a1,28
 201              	.LVL17:
 202 0006 B387B702 		mul	a5,a5,a1
 152:usbd_core.c   ****     usb_transc *transc = &udev->dev.transc_out[EP_ID(ep_addr)];
 203              		.loc 1 152 1
 204 000a 4111     		addi	sp,sp,-16
 205              	.LCFI6:
 206              		.cfi_def_cfa_offset 16
 207 000c 06C6     		sw	ra,12(sp)
 208              		.cfi_offset 1, -4
 154:usbd_core.c   **** 
 155:usbd_core.c   ****     /* setup the transfer */
 156:usbd_core.c   ****     transc->xfer_buf = pbuf;
 157:usbd_core.c   ****     transc->xfer_len = len;
 158:usbd_core.c   ****     transc->xfer_count = 0;
 159:usbd_core.c   **** 
 160:usbd_core.c   ****     if (USB_USE_DMA == udev->bp.transfer_mode) {
 209              		.loc 1 160 8
 210 000e 0547     		li	a4,1
 153:usbd_core.c   **** 
 211              		.loc 1 153 17
 212 0010 9385C726 		addi	a1,a5,620
 156:usbd_core.c   ****     transc->xfer_len = len;
 213              		.loc 1 156 22
 214 0014 AA97     		add	a5,a0,a5
 215 0016 23AAC726 		sw	a2,628(a5)
 157:usbd_core.c   ****     transc->xfer_count = 0;
 216              		.loc 1 157 22
 217 001a 23ACD726 		sw	a3,632(a5)
 158:usbd_core.c   **** 
 218              		.loc 1 158 24
 219 001e 23AE0726 		sw	zero,636(a5)
 220              		.loc 1 160 8
GAS LISTING C:\Users\Uzair\AppData\Local\Temp\ccG3yh17.s 			page 8


 221 0022 83464500 		lbu	a3,4(a0)
 222              	.LVL18:
 153:usbd_core.c   **** 
 223              		.loc 1 153 17
 224 0026 AA95     		add	a1,a0,a1
 225              	.LVL19:
 156:usbd_core.c   ****     transc->xfer_len = len;
 226              		.loc 1 156 5 is_stmt 1
 157:usbd_core.c   ****     transc->xfer_count = 0;
 227              		.loc 1 157 5
 158:usbd_core.c   **** 
 228              		.loc 1 158 5
 229              		.loc 1 160 5
 230              		.loc 1 160 8 is_stmt 0
 231 0028 6394E600 		bne	a3,a4,.L11
 161:usbd_core.c   ****         transc->dma_addr = (uint32_t)pbuf;
 232              		.loc 1 161 9 is_stmt 1
 233              		.loc 1 161 26 is_stmt 0
 234 002c 23A2C728 		sw	a2,644(a5)
 235              	.L11:
 162:usbd_core.c   ****     }
 163:usbd_core.c   **** 
 164:usbd_core.c   ****     /* start the transfer */
 165:usbd_core.c   ****     usb_transc_outxfer (udev, transc);
 236              		.loc 1 165 5 is_stmt 1
 237 0030 97000000 		call	usb_transc_outxfer
 237      E7800000 
 238              	.LVL20:
 166:usbd_core.c   **** 
 167:usbd_core.c   ****     return 0;
 239              		.loc 1 167 5
 168:usbd_core.c   **** }
 240              		.loc 1 168 1 is_stmt 0
 241 0038 B240     		lw	ra,12(sp)
 242              		.cfi_restore 1
 243 003a 0145     		li	a0,0
 244 003c 4101     		addi	sp,sp,16
 245              	.LCFI7:
 246              		.cfi_def_cfa_offset 0
 247 003e 8280     		jr	ra
 248              		.cfi_endproc
 249              	.LFE6:
 251              		.section	.text.usbd_ep_send,"ax",@progbits
 252              		.align	1
 253              		.globl	usbd_ep_send
 255              	usbd_ep_send:
 256              	.LFB7:
 169:usbd_core.c   **** 
 170:usbd_core.c   **** /*!
 171:usbd_core.c   ****     \brief      endpoint prepare to transmit data
 172:usbd_core.c   ****     \param[in]  udev: pointer to USB core instance
 173:usbd_core.c   ****     \param[in]  ep_addr: endpoint address
 174:usbd_core.c   ****                   in this parameter:
 175:usbd_core.c   ****                     bit0..bit6: endpoint number (0..7)
 176:usbd_core.c   ****                     bit7: endpoint direction which can be IN(1) or OUT(0)
 177:usbd_core.c   ****     \param[in]  pbuf: transmit buffer address pointer
 178:usbd_core.c   ****     \param[in]  len: buffer length
GAS LISTING C:\Users\Uzair\AppData\Local\Temp\ccG3yh17.s 			page 9


 179:usbd_core.c   ****     \param[out] none
 180:usbd_core.c   ****     \retval     none
 181:usbd_core.c   **** */
 182:usbd_core.c   **** uint32_t  usbd_ep_send (usb_core_driver *udev, uint8_t ep_addr, uint8_t *pbuf, uint16_t len)
 183:usbd_core.c   **** {
 257              		.loc 1 183 1 is_stmt 1
 258              		.cfi_startproc
 259              	.LVL21:
 184:usbd_core.c   ****     usb_transc *transc = &udev->dev.transc_in[EP_ID(ep_addr)];
 260              		.loc 1 184 5
 261 0000 93F7F507 		andi	a5,a1,127
 262              		.loc 1 184 17 is_stmt 0
 263 0004 F145     		li	a1,28
 264              	.LVL22:
 265 0006 B387B702 		mul	a5,a5,a1
 183:usbd_core.c   ****     usb_transc *transc = &udev->dev.transc_in[EP_ID(ep_addr)];
 266              		.loc 1 183 1
 267 000a 4111     		addi	sp,sp,-16
 268              	.LCFI8:
 269              		.cfi_def_cfa_offset 16
 270 000c 06C6     		sw	ra,12(sp)
 271              		.cfi_offset 1, -4
 185:usbd_core.c   **** 
 186:usbd_core.c   ****     /* setup the transfer */
 187:usbd_core.c   ****     transc->xfer_buf = pbuf;
 188:usbd_core.c   ****     transc->xfer_len = len;
 189:usbd_core.c   ****     transc->xfer_count = 0;
 190:usbd_core.c   **** 
 191:usbd_core.c   ****     if (USB_USE_DMA == udev->bp.transfer_mode) {
 272              		.loc 1 191 8
 273 000e 0547     		li	a4,1
 184:usbd_core.c   **** 
 274              		.loc 1 184 17
 275 0010 9385870C 		addi	a1,a5,200
 187:usbd_core.c   ****     transc->xfer_len = len;
 276              		.loc 1 187 22
 277 0014 AA97     		add	a5,a0,a5
 278 0016 23A8C70C 		sw	a2,208(a5)
 188:usbd_core.c   ****     transc->xfer_count = 0;
 279              		.loc 1 188 22
 280 001a 23AAD70C 		sw	a3,212(a5)
 189:usbd_core.c   **** 
 281              		.loc 1 189 24
 282 001e 23AC070C 		sw	zero,216(a5)
 283              		.loc 1 191 8
 284 0022 83464500 		lbu	a3,4(a0)
 285              	.LVL23:
 184:usbd_core.c   **** 
 286              		.loc 1 184 17
 287 0026 AA95     		add	a1,a0,a1
 288              	.LVL24:
 187:usbd_core.c   ****     transc->xfer_len = len;
 289              		.loc 1 187 5 is_stmt 1
 188:usbd_core.c   ****     transc->xfer_count = 0;
 290              		.loc 1 188 5
 189:usbd_core.c   **** 
 291              		.loc 1 189 5
GAS LISTING C:\Users\Uzair\AppData\Local\Temp\ccG3yh17.s 			page 10


 292              		.loc 1 191 5
 293              		.loc 1 191 8 is_stmt 0
 294 0028 6394E600 		bne	a3,a4,.L14
 192:usbd_core.c   ****         transc->dma_addr = (uint32_t)pbuf;
 295              		.loc 1 192 9 is_stmt 1
 296              		.loc 1 192 26 is_stmt 0
 297 002c 23A0C70E 		sw	a2,224(a5)
 298              	.L14:
 193:usbd_core.c   ****     }
 194:usbd_core.c   **** 
 195:usbd_core.c   ****     /* start the transfer */
 196:usbd_core.c   ****     usb_transc_inxfer (udev, transc);
 299              		.loc 1 196 5 is_stmt 1
 300 0030 97000000 		call	usb_transc_inxfer
 300      E7800000 
 301              	.LVL25:
 197:usbd_core.c   **** 
 198:usbd_core.c   ****     return 0;
 302              		.loc 1 198 5
 199:usbd_core.c   **** }
 303              		.loc 1 199 1 is_stmt 0
 304 0038 B240     		lw	ra,12(sp)
 305              		.cfi_restore 1
 306 003a 0145     		li	a0,0
 307 003c 4101     		addi	sp,sp,16
 308              	.LCFI9:
 309              		.cfi_def_cfa_offset 0
 310 003e 8280     		jr	ra
 311              		.cfi_endproc
 312              	.LFE7:
 314              		.section	.text.usbd_ep_stall,"ax",@progbits
 315              		.align	1
 316              		.globl	usbd_ep_stall
 318              	usbd_ep_stall:
 319              	.LFB8:
 200:usbd_core.c   **** 
 201:usbd_core.c   **** /*!
 202:usbd_core.c   ****     \brief      set an endpoint to STALL status
 203:usbd_core.c   ****     \param[in]  udev: pointer to USB core instance
 204:usbd_core.c   ****     \param[in]  ep_addr: endpoint address
 205:usbd_core.c   ****                   in this parameter:
 206:usbd_core.c   ****                     bit0..bit6: endpoint number (0..7)
 207:usbd_core.c   ****                     bit7: endpoint direction which can be IN(1) or OUT(0)
 208:usbd_core.c   ****     \param[out] none
 209:usbd_core.c   ****     \retval     none
 210:usbd_core.c   **** */
 211:usbd_core.c   **** uint32_t usbd_ep_stall (usb_core_driver *udev, uint8_t ep_addr)
 212:usbd_core.c   **** {
 320              		.loc 1 212 1 is_stmt 1
 321              		.cfi_startproc
 322              	.LVL26:
 213:usbd_core.c   ****     usb_transc *transc = NULL;
 323              		.loc 1 213 5
 214:usbd_core.c   **** 
 215:usbd_core.c   ****     if (EP_DIR(ep_addr)) {
 324              		.loc 1 215 5
 212:usbd_core.c   ****     usb_transc *transc = NULL;
GAS LISTING C:\Users\Uzair\AppData\Local\Temp\ccG3yh17.s 			page 11


 325              		.loc 1 212 1 is_stmt 0
 326 0000 4111     		addi	sp,sp,-16
 327              	.LCFI10:
 328              		.cfi_def_cfa_offset 16
 329              		.loc 1 215 8
 330 0002 93978501 		slli	a5,a1,24
 212:usbd_core.c   ****     usb_transc *transc = NULL;
 331              		.loc 1 212 1
 332 0006 06C6     		sw	ra,12(sp)
 333              		.cfi_offset 1, -4
 334              		.loc 1 215 8
 335 0008 E187     		srai	a5,a5,24
 336 000a 63D50702 		bge	a5,zero,.L17
 216:usbd_core.c   ****         transc = &udev->dev.transc_in[EP_ID(ep_addr)];
 337              		.loc 1 216 9 is_stmt 1
 338              		.loc 1 216 16 is_stmt 0
 339 000e 93F5F507 		andi	a1,a1,127
 340              	.LVL27:
 341 0012 F147     		li	a5,28
 342 0014 B385F502 		mul	a1,a1,a5
 343 0018 9385850C 		addi	a1,a1,200
 344              	.L20:
 217:usbd_core.c   ****     } else {
 218:usbd_core.c   ****         transc = &udev->dev.transc_out[ep_addr];
 345              		.loc 1 218 16
 346 001c AA95     		add	a1,a0,a1
 347              	.LVL28:
 219:usbd_core.c   ****     }
 220:usbd_core.c   **** 
 221:usbd_core.c   ****     transc->ep_stall = 1;
 348              		.loc 1 221 5 is_stmt 1
 349              		.loc 1 221 22 is_stmt 0
 350 001e 8547     		li	a5,1
 351 0020 2381F500 		sb	a5,2(a1)
 222:usbd_core.c   **** 
 223:usbd_core.c   ****     usb_transc_stall (udev, transc);
 352              		.loc 1 223 5 is_stmt 1
 353 0024 97000000 		call	usb_transc_stall
 353      E7800000 
 354              	.LVL29:
 224:usbd_core.c   **** 
 225:usbd_core.c   ****     return (0);
 355              		.loc 1 225 5
 226:usbd_core.c   **** }
 356              		.loc 1 226 1 is_stmt 0
 357 002c B240     		lw	ra,12(sp)
 358              		.cfi_remember_state
 359              		.cfi_restore 1
 360 002e 0145     		li	a0,0
 361 0030 4101     		addi	sp,sp,16
 362              	.LCFI11:
 363              		.cfi_def_cfa_offset 0
 364 0032 8280     		jr	ra
 365              	.LVL30:
 366              	.L17:
 367              	.LCFI12:
 368              		.cfi_restore_state
GAS LISTING C:\Users\Uzair\AppData\Local\Temp\ccG3yh17.s 			page 12


 218:usbd_core.c   ****     }
 369              		.loc 1 218 9 is_stmt 1
 218:usbd_core.c   ****     }
 370              		.loc 1 218 16 is_stmt 0
 371 0034 F147     		li	a5,28
 372 0036 B385F502 		mul	a1,a1,a5
 373              	.LVL31:
 374 003a 9385C526 		addi	a1,a1,620
 375 003e F9BF     		j	.L20
 376              		.cfi_endproc
 377              	.LFE8:
 379              		.section	.text.usbd_ep_stall_clear,"ax",@progbits
 380              		.align	1
 381              		.globl	usbd_ep_stall_clear
 383              	usbd_ep_stall_clear:
 384              	.LFB9:
 227:usbd_core.c   **** 
 228:usbd_core.c   **** /*!
 229:usbd_core.c   ****     \brief      clear endpoint STALLed status
 230:usbd_core.c   ****     \param[in]  udev: pointer to usb core instance
 231:usbd_core.c   ****     \param[in]  ep_addr: endpoint address
 232:usbd_core.c   ****                   in this parameter:
 233:usbd_core.c   ****                     bit0..bit6: endpoint number (0..7)
 234:usbd_core.c   ****                     bit7: endpoint direction which can be IN(1) or OUT(0)
 235:usbd_core.c   ****     \param[out] none
 236:usbd_core.c   ****     \retval     none
 237:usbd_core.c   **** */
 238:usbd_core.c   **** uint32_t usbd_ep_stall_clear (usb_core_driver *udev, uint8_t ep_addr)
 239:usbd_core.c   **** {
 385              		.loc 1 239 1 is_stmt 1
 386              		.cfi_startproc
 387              	.LVL32:
 240:usbd_core.c   ****     usb_transc *transc = NULL;
 388              		.loc 1 240 5
 241:usbd_core.c   **** 
 242:usbd_core.c   ****     if (EP_DIR(ep_addr)) {
 389              		.loc 1 242 5
 239:usbd_core.c   ****     usb_transc *transc = NULL;
 390              		.loc 1 239 1 is_stmt 0
 391 0000 4111     		addi	sp,sp,-16
 392              	.LCFI13:
 393              		.cfi_def_cfa_offset 16
 394              		.loc 1 242 8
 395 0002 93978501 		slli	a5,a1,24
 239:usbd_core.c   ****     usb_transc *transc = NULL;
 396              		.loc 1 239 1
 397 0006 06C6     		sw	ra,12(sp)
 398              		.cfi_offset 1, -4
 399              		.loc 1 242 8
 400 0008 E187     		srai	a5,a5,24
 401 000a 63D40702 		bge	a5,zero,.L22
 243:usbd_core.c   ****         transc = &udev->dev.transc_in[EP_ID(ep_addr)];
 402              		.loc 1 243 9 is_stmt 1
 403              		.loc 1 243 16 is_stmt 0
 404 000e 93F5F507 		andi	a1,a1,127
 405              	.LVL33:
 406 0012 F147     		li	a5,28
GAS LISTING C:\Users\Uzair\AppData\Local\Temp\ccG3yh17.s 			page 13


 407 0014 B385F502 		mul	a1,a1,a5
 408 0018 9385850C 		addi	a1,a1,200
 409              	.L25:
 244:usbd_core.c   ****     } else {
 245:usbd_core.c   ****         transc = &udev->dev.transc_out[ep_addr];
 410              		.loc 1 245 16
 411 001c AA95     		add	a1,a0,a1
 412              	.LVL34:
 246:usbd_core.c   ****     }
 247:usbd_core.c   **** 
 248:usbd_core.c   ****     transc->ep_stall = 0;
 413              		.loc 1 248 5 is_stmt 1
 414              		.loc 1 248 22 is_stmt 0
 415 001e 23810500 		sb	zero,2(a1)
 249:usbd_core.c   **** 
 250:usbd_core.c   ****     usb_transc_clrstall (udev, transc);
 416              		.loc 1 250 5 is_stmt 1
 417 0022 97000000 		call	usb_transc_clrstall
 417      E7800000 
 418              	.LVL35:
 251:usbd_core.c   **** 
 252:usbd_core.c   ****     return (0);
 419              		.loc 1 252 5
 253:usbd_core.c   **** }
 420              		.loc 1 253 1 is_stmt 0
 421 002a B240     		lw	ra,12(sp)
 422              		.cfi_remember_state
 423              		.cfi_restore 1
 424 002c 0145     		li	a0,0
 425 002e 4101     		addi	sp,sp,16
 426              	.LCFI14:
 427              		.cfi_def_cfa_offset 0
 428 0030 8280     		jr	ra
 429              	.LVL36:
 430              	.L22:
 431              	.LCFI15:
 432              		.cfi_restore_state
 245:usbd_core.c   ****     }
 433              		.loc 1 245 9 is_stmt 1
 245:usbd_core.c   ****     }
 434              		.loc 1 245 16 is_stmt 0
 435 0032 F147     		li	a5,28
 436 0034 B385F502 		mul	a1,a1,a5
 437              	.LVL37:
 438 0038 9385C526 		addi	a1,a1,620
 439 003c C5B7     		j	.L25
 440              		.cfi_endproc
 441              	.LFE9:
 443              		.section	.text.usbd_fifo_flush,"ax",@progbits
 444              		.align	1
 445              		.globl	usbd_fifo_flush
 447              	usbd_fifo_flush:
 448              	.LFB10:
 254:usbd_core.c   **** 
 255:usbd_core.c   **** /*!
 256:usbd_core.c   ****     \brief      flush the endpoint FIFOs
 257:usbd_core.c   ****     \param[in]  udev: pointer to usb core instance
GAS LISTING C:\Users\Uzair\AppData\Local\Temp\ccG3yh17.s 			page 14


 258:usbd_core.c   ****     \param[in]  ep_addr: endpoint address
 259:usbd_core.c   ****                   in this parameter:
 260:usbd_core.c   ****                     bit0..bit6: endpoint number (0..7)
 261:usbd_core.c   ****                     bit7: endpoint direction which can be IN(1) or OUT(0)
 262:usbd_core.c   ****     \param[out] none
 263:usbd_core.c   ****     \retval     none
 264:usbd_core.c   **** */
 265:usbd_core.c   **** uint32_t  usbd_fifo_flush (usb_core_driver *udev, uint8_t ep_addr)
 266:usbd_core.c   **** {
 449              		.loc 1 266 1 is_stmt 1
 450              		.cfi_startproc
 451              	.LVL38:
 267:usbd_core.c   ****     if (EP_DIR(ep_addr)) {
 452              		.loc 1 267 5
 266:usbd_core.c   ****     if (EP_DIR(ep_addr)) {
 453              		.loc 1 266 1 is_stmt 0
 454 0000 4111     		addi	sp,sp,-16
 455              	.LCFI16:
 456              		.cfi_def_cfa_offset 16
 457              		.loc 1 267 8
 458 0002 93978501 		slli	a5,a1,24
 266:usbd_core.c   ****     if (EP_DIR(ep_addr)) {
 459              		.loc 1 266 1
 460 0006 06C6     		sw	ra,12(sp)
 461              		.cfi_offset 1, -4
 462              		.loc 1 267 8
 463 0008 E187     		srai	a5,a5,24
 464 000a 2105     		addi	a0,a0,8
 465              	.LVL39:
 466 000c 63DC0700 		bge	a5,zero,.L27
 268:usbd_core.c   ****         usb_txfifo_flush (&udev->regs, EP_ID(ep_addr));
 467              		.loc 1 268 9 is_stmt 1
 468 0010 93F5F507 		andi	a1,a1,127
 469              	.LVL40:
 470 0014 97000000 		call	usb_txfifo_flush
 470      E7800000 
 471              	.LVL41:
 472              	.L28:
 269:usbd_core.c   ****     } else {
 270:usbd_core.c   ****         usb_rxfifo_flush (&udev->regs);
 271:usbd_core.c   ****     }
 272:usbd_core.c   **** 
 273:usbd_core.c   ****     return (0);
 473              		.loc 1 273 5
 274:usbd_core.c   **** }
 474              		.loc 1 274 1 is_stmt 0
 475 001c B240     		lw	ra,12(sp)
 476              		.cfi_remember_state
 477              		.cfi_restore 1
 478 001e 0145     		li	a0,0
 479 0020 4101     		addi	sp,sp,16
 480              	.LCFI17:
 481              		.cfi_def_cfa_offset 0
 482 0022 8280     		jr	ra
 483              	.LVL42:
 484              	.L27:
 485              	.LCFI18:
GAS LISTING C:\Users\Uzair\AppData\Local\Temp\ccG3yh17.s 			page 15


 486              		.cfi_restore_state
 270:usbd_core.c   ****     }
 487              		.loc 1 270 9 is_stmt 1
 488 0024 97000000 		call	usb_rxfifo_flush
 488      E7800000 
 489              	.LVL43:
 490 002c C5BF     		j	.L28
 491              		.cfi_endproc
 492              	.LFE10:
 494              		.section	.text.usbd_addr_set,"ax",@progbits
 495              		.align	1
 496              		.globl	usbd_addr_set
 498              	usbd_addr_set:
 499              	.LFB11:
 275:usbd_core.c   **** 
 276:usbd_core.c   **** /*!
 277:usbd_core.c   ****     \brief      set USB device address
 278:usbd_core.c   ****     \param[in]  udev: pointer to USB core instance
 279:usbd_core.c   ****     \param[in]  addr: device address to set
 280:usbd_core.c   ****     \param[out] none
 281:usbd_core.c   ****     \retval     none
 282:usbd_core.c   **** */
 283:usbd_core.c   **** void  usbd_addr_set (usb_core_driver *udev, uint8_t addr)
 284:usbd_core.c   **** {
 500              		.loc 1 284 1
 501              		.cfi_startproc
 502              	.LVL44:
 285:usbd_core.c   ****     usb_devaddr_set(udev, addr);
 503              		.loc 1 285 5
 504 0000 17030000 		tail	usb_devaddr_set
 504      67000300 
 505              	.LVL45:
 506              		.cfi_endproc
 507              	.LFE11:
 509              		.section	.text.usbd_rxcount_get,"ax",@progbits
 510              		.align	1
 511              		.globl	usbd_rxcount_get
 513              	usbd_rxcount_get:
 514              	.LFB12:
 286:usbd_core.c   **** }
 287:usbd_core.c   **** 
 288:usbd_core.c   **** /*!
 289:usbd_core.c   ****     \brief      get the received data length
 290:usbd_core.c   ****     \param[in]  udev: pointer to USB device instance
 291:usbd_core.c   ****     \param[in]  ep_num: endpoint number
 292:usbd_core.c   ****     \param[out] none
 293:usbd_core.c   ****     \retval     USB device operation cur_status
 294:usbd_core.c   **** */
 295:usbd_core.c   **** uint16_t  usbd_rxcount_get (usb_core_driver *udev, uint8_t ep_num)
 296:usbd_core.c   **** {
 515              		.loc 1 296 1
 516              		.cfi_startproc
 517              	.LVL46:
 297:usbd_core.c   ****     return udev->dev.transc_out[ep_num].xfer_count;
 518              		.loc 1 297 5
 519              		.loc 1 297 40 is_stmt 0
 520 0000 F147     		li	a5,28
GAS LISTING C:\Users\Uzair\AppData\Local\Temp\ccG3yh17.s 			page 16


 521 0002 B385F502 		mul	a1,a1,a5
 522              	.LVL47:
 523 0006 AA95     		add	a1,a0,a1
 298:usbd_core.c   **** }
 524              		.loc 1 298 1
 525 0008 03D5C527 		lhu	a0,636(a1)
 526              	.LVL48:
 527 000c 8280     		ret
 528              		.cfi_endproc
 529              	.LFE12:
 531              		.section	.text.usbd_connect,"ax",@progbits
 532              		.align	1
 533              		.globl	usbd_connect
 535              	usbd_connect:
 536              	.LFB13:
 299:usbd_core.c   **** 
 300:usbd_core.c   **** /*!
 301:usbd_core.c   ****     \brief      device connect
 302:usbd_core.c   ****     \param[in]  udev: pointer to USB device instance
 303:usbd_core.c   ****     \param[out] none
 304:usbd_core.c   ****     \retval     none
 305:usbd_core.c   **** */
 306:usbd_core.c   **** void  usbd_connect (usb_core_driver *udev)
 307:usbd_core.c   **** {
 537              		.loc 1 307 1 is_stmt 1
 538              		.cfi_startproc
 539              	.LVL49:
 308:usbd_core.c   **** #ifndef USE_OTG_MODE
 309:usbd_core.c   ****     /* connect device */
 310:usbd_core.c   ****     usb_dev_connect (udev);
 540              		.loc 1 310 5
 307:usbd_core.c   **** #ifndef USE_OTG_MODE
 541              		.loc 1 307 1 is_stmt 0
 542 0000 4111     		addi	sp,sp,-16
 543              	.LCFI19:
 544              		.cfi_def_cfa_offset 16
 545 0002 06C6     		sw	ra,12(sp)
 546              		.cfi_offset 1, -4
 547              		.loc 1 310 5
 548 0004 97000000 		call	usb_dev_connect
 548      E7800000 
 549              	.LVL50:
 311:usbd_core.c   ****     usb_mdelay(3);
 550              		.loc 1 311 5 is_stmt 1
 312:usbd_core.c   **** 
 313:usbd_core.c   **** #endif /* USE_OTG_MODE */
 314:usbd_core.c   **** }
 551              		.loc 1 314 1 is_stmt 0
 552 000c B240     		lw	ra,12(sp)
 553              		.cfi_restore 1
 311:usbd_core.c   ****     usb_mdelay(3);
 554              		.loc 1 311 5
 555 000e 0D45     		li	a0,3
 556              		.loc 1 314 1
 557 0010 4101     		addi	sp,sp,16
 558              	.LCFI20:
 559              		.cfi_def_cfa_offset 0
GAS LISTING C:\Users\Uzair\AppData\Local\Temp\ccG3yh17.s 			page 17


 311:usbd_core.c   ****     usb_mdelay(3);
 560              		.loc 1 311 5
 561 0012 17030000 		tail	usb_mdelay
 561      67000300 
 562              	.LVL51:
 563              		.cfi_endproc
 564              	.LFE13:
 566              		.section	.text.usbd_disconnect,"ax",@progbits
 567              		.align	1
 568              		.globl	usbd_disconnect
 570              	usbd_disconnect:
 571              	.LFB14:
 315:usbd_core.c   **** 
 316:usbd_core.c   **** /*!
 317:usbd_core.c   ****     \brief      device disconnect
 318:usbd_core.c   ****     \param[in]  udev: pointer to USB device instance
 319:usbd_core.c   ****     \param[out] none
 320:usbd_core.c   ****     \retval     none
 321:usbd_core.c   **** */
 322:usbd_core.c   **** void  usbd_disconnect (usb_core_driver *udev)
 323:usbd_core.c   **** {
 572              		.loc 1 323 1 is_stmt 1
 573              		.cfi_startproc
 574              	.LVL52:
 324:usbd_core.c   **** #ifndef USE_OTG_MODE
 325:usbd_core.c   ****     /* disconnect device for 3ms */
 326:usbd_core.c   ****     usb_dev_disconnect (udev);
 575              		.loc 1 326 5
 323:usbd_core.c   **** #ifndef USE_OTG_MODE
 576              		.loc 1 323 1 is_stmt 0
 577 0000 4111     		addi	sp,sp,-16
 578              	.LCFI21:
 579              		.cfi_def_cfa_offset 16
 580 0002 06C6     		sw	ra,12(sp)
 581              		.cfi_offset 1, -4
 582              		.loc 1 326 5
 583 0004 97000000 		call	usb_dev_disconnect
 583      E7800000 
 584              	.LVL53:
 327:usbd_core.c   ****     usb_mdelay(3);
 585              		.loc 1 327 5 is_stmt 1
 328:usbd_core.c   **** #endif /* USE_OTG_MODE */
 329:usbd_core.c   **** }
 586              		.loc 1 329 1 is_stmt 0
 587 000c B240     		lw	ra,12(sp)
 588              		.cfi_restore 1
 327:usbd_core.c   ****     usb_mdelay(3);
 589              		.loc 1 327 5
 590 000e 0D45     		li	a0,3
 591              		.loc 1 329 1
 592 0010 4101     		addi	sp,sp,16
 593              	.LCFI22:
 594              		.cfi_def_cfa_offset 0
 327:usbd_core.c   ****     usb_mdelay(3);
 595              		.loc 1 327 5
 596 0012 17030000 		tail	usb_mdelay
 596      67000300 
GAS LISTING C:\Users\Uzair\AppData\Local\Temp\ccG3yh17.s 			page 18


 597              	.LVL54:
 598              		.cfi_endproc
 599              	.LFE14:
 601              		.section	.text.usbd_init,"ax",@progbits
 602              		.align	1
 603              		.globl	usbd_init
 605              	usbd_init:
 606              	.LFB3:
  55:usbd_core.c   ****     /* device descriptor, class and user callbacks */
 607              		.loc 1 55 1 is_stmt 1
 608              		.cfi_startproc
 609              	.LVL55:
  57:usbd_core.c   **** 
 610              		.loc 1 57 5
  55:usbd_core.c   ****     /* device descriptor, class and user callbacks */
 611              		.loc 1 55 1 is_stmt 0
 612 0000 4111     		addi	sp,sp,-16
 613              	.LCFI23:
 614              		.cfi_def_cfa_offset 16
 615 0002 06C6     		sw	ra,12(sp)
 616 0004 22C4     		sw	s0,8(sp)
 617 0006 26C2     		sw	s1,4(sp)
 618              		.cfi_offset 1, -4
 619              		.cfi_offset 8, -8
 620              		.cfi_offset 9, -12
  60:usbd_core.c   **** 
 621              		.loc 1 60 5
 622 0008 93048500 		addi	s1,a0,8
  57:usbd_core.c   **** 
 623              		.loc 1 57 26
 624 000c 2328C542 		sw	a2,1072(a0)
  60:usbd_core.c   **** 
 625              		.loc 1 60 5 is_stmt 1
 626 0010 2E86     		mv	a2,a1
 627              	.LVL56:
 628 0012 A685     		mv	a1,s1
 629              	.LVL57:
  55:usbd_core.c   ****     /* device descriptor, class and user callbacks */
 630              		.loc 1 55 1 is_stmt 0
 631 0014 2A84     		mv	s0,a0
  60:usbd_core.c   **** 
 632              		.loc 1 60 5
 633 0016 97000000 		call	usb_basic_init
 633      E7800000 
 634              	.LVL58:
  63:usbd_core.c   **** 
 635              		.loc 1 63 5 is_stmt 1
 636 001e 4C40     		lw	a1,4(s0)
 637 0020 0840     		lw	a0,0(s0)
 638 0022 2686     		mv	a2,s1
 639 0024 97000000 		call	usb_core_init
 639      E7800000 
 640              	.LVL59:
  66:usbd_core.c   **** 
 641              		.loc 1 66 5
 642 002c 2285     		mv	a0,s0
 643 002e 97000000 		call	usbd_disconnect
GAS LISTING C:\Users\Uzair\AppData\Local\Temp\ccG3yh17.s 			page 19


 643      E7800000 
 644              	.LVL60:
  69:usbd_core.c   **** 
 645              		.loc 1 69 5
 646 0036 2285     		mv	a0,s0
 647 0038 97000000 		call	usb_devcore_init
 647      E7800000 
 648              	.LVL61:
  72:usbd_core.c   ****     
 649              		.loc 1 72 5
 650 0040 2285     		mv	a0,s0
 651 0042 97000000 		call	usbd_connect
 651      E7800000 
 652              	.LVL62:
  74:usbd_core.c   **** }
 653              		.loc 1 74 5
  74:usbd_core.c   **** }
 654              		.loc 1 74 26 is_stmt 0
 655 004a 8547     		li	a5,1
 656 004c 2303F40C 		sb	a5,198(s0)
  75:usbd_core.c   **** 
 657              		.loc 1 75 1
 658 0050 B240     		lw	ra,12(sp)
 659              		.cfi_restore 1
 660 0052 2244     		lw	s0,8(sp)
 661              		.cfi_restore 8
 662              	.LVL63:
 663 0054 9244     		lw	s1,4(sp)
 664              		.cfi_restore 9
 665              	.LVL64:
 666 0056 4101     		addi	sp,sp,16
 667              	.LCFI24:
 668              		.cfi_def_cfa_offset 0
 669 0058 8280     		jr	ra
 670              		.cfi_endproc
 671              	.LFE3:
 673              		.globl	ep_type
 674              		.section	.rodata.ep_type,"a"
 675              		.align	2
 676              		.set	.LANCHOR0,. + 0
 679              	ep_type:
 680 0000 00000000 		.word	0
 681 0004 01000000 		.word	1
 682 0008 02000000 		.word	2
 683 000c 03000000 		.word	3
 684              		.text
 685              	.Letext0:
 686              		.file 2 "c:\\kth\\he1043\\toolchain-gd32v-v202-win\\toolchain-gd32v-v202-win\\compiler\\riscv64-un
 687              		.file 3 "c:\\kth\\he1043\\toolchain-gd32v-v202-win\\toolchain-gd32v-v202-win\\compiler\\riscv64-un
 688              		.file 4 "drv_usb_regs.h"
 689              		.file 5 "./../../firmware/GD32VF103_standard_peripheral/system_gd32vf103.h"
 690              		.file 6 "usb_ch9_std.h"
 691              		.file 7 "drv_usb_core.h"
 692              		.file 8 "drv_usb_dev.h"
 693              		.file 9 "usbd_core.h"
 694              		.file 10 "drv_usb_hw.h"
GAS LISTING C:\Users\Uzair\AppData\Local\Temp\ccG3yh17.s 			page 20


DEFINED SYMBOLS
                            *ABS*:0000000000000000 usbd_core.c
C:\Users\Uzair\AppData\Local\Temp\ccG3yh17.s:13     .text.usbd_ep_setup:0000000000000000 usbd_ep_setup
C:\Users\Uzair\AppData\Local\Temp\ccG3yh17.s:17     .text.usbd_ep_setup:0000000000000000 .L0 
C:\Users\Uzair\AppData\Local\Temp\ccG3yh17.s:19     .text.usbd_ep_setup:0000000000000000 .L0 
C:\Users\Uzair\AppData\Local\Temp\ccG3yh17.s:20     .text.usbd_ep_setup:0000000000000000 .L0 
C:\Users\Uzair\AppData\Local\Temp\ccG3yh17.s:21     .text.usbd_ep_setup:0000000000000000 .L0 
C:\Users\Uzair\AppData\Local\Temp\ccG3yh17.s:22     .text.usbd_ep_setup:0000000000000000 .L0 
C:\Users\Uzair\AppData\Local\Temp\ccG3yh17.s:24     .text.usbd_ep_setup:0000000000000002 .L0 
C:\Users\Uzair\AppData\Local\Temp\ccG3yh17.s:26     .text.usbd_ep_setup:0000000000000004 .L0 
C:\Users\Uzair\AppData\Local\Temp\ccG3yh17.s:28     .text.usbd_ep_setup:0000000000000004 .L0 
C:\Users\Uzair\AppData\Local\Temp\ccG3yh17.s:31     .text.usbd_ep_setup:000000000000000c .L0 
C:\Users\Uzair\AppData\Local\Temp\ccG3yh17.s:34     .text.usbd_ep_setup:0000000000000010 .L0 
C:\Users\Uzair\AppData\Local\Temp\ccG3yh17.s:35     .text.usbd_ep_setup:0000000000000010 .L0 
C:\Users\Uzair\AppData\Local\Temp\ccG3yh17.s:39     .text.usbd_ep_setup:0000000000000014 .L0 
C:\Users\Uzair\AppData\Local\Temp\ccG3yh17.s:40     .text.usbd_ep_setup:0000000000000014 .L0 
C:\Users\Uzair\AppData\Local\Temp\ccG3yh17.s:44     .text.usbd_ep_setup:000000000000001e .L0 
C:\Users\Uzair\AppData\Local\Temp\ccG3yh17.s:45     .text.usbd_ep_setup:000000000000001e .L0 
C:\Users\Uzair\AppData\Local\Temp\ccG3yh17.s:50     .text.usbd_ep_setup:000000000000002c .L0 
C:\Users\Uzair\AppData\Local\Temp\ccG3yh17.s:53     .text.usbd_ep_setup:0000000000000032 .L0 
C:\Users\Uzair\AppData\Local\Temp\ccG3yh17.s:56     .text.usbd_ep_setup:0000000000000034 .L0 
C:\Users\Uzair\AppData\Local\Temp\ccG3yh17.s:57     .text.usbd_ep_setup:0000000000000034 .L0 
C:\Users\Uzair\AppData\Local\Temp\ccG3yh17.s:61     .text.usbd_ep_setup:000000000000003c .L0 
C:\Users\Uzair\AppData\Local\Temp\ccG3yh17.s:62     .text.usbd_ep_setup:000000000000003c .L0 
C:\Users\Uzair\AppData\Local\Temp\ccG3yh17.s:66     .text.usbd_ep_setup:0000000000000042 .L0 
C:\Users\Uzair\AppData\Local\Temp\ccG3yh17.s:69     .text.usbd_ep_setup:0000000000000046 .L0 
C:\Users\Uzair\AppData\Local\Temp\ccG3yh17.s:73     .text.usbd_ep_setup:000000000000004e .L0 
C:\Users\Uzair\AppData\Local\Temp\ccG3yh17.s:74     .text.usbd_ep_setup:000000000000004e .L0 
C:\Users\Uzair\AppData\Local\Temp\ccG3yh17.s:76     .text.usbd_ep_setup:0000000000000052 .L0 
C:\Users\Uzair\AppData\Local\Temp\ccG3yh17.s:77     .text.usbd_ep_setup:0000000000000052 .L0 
C:\Users\Uzair\AppData\Local\Temp\ccG3yh17.s:79     .text.usbd_ep_setup:0000000000000056 .L0 
C:\Users\Uzair\AppData\Local\Temp\ccG3yh17.s:82     .text.usbd_ep_setup:0000000000000058 .L0 
C:\Users\Uzair\AppData\Local\Temp\ccG3yh17.s:84     .text.usbd_ep_setup:000000000000005a .L0 
C:\Users\Uzair\AppData\Local\Temp\ccG3yh17.s:89     .text.usbd_ep_setup:0000000000000068 .L0 
C:\Users\Uzair\AppData\Local\Temp\ccG3yh17.s:92     .text.usbd_ep_setup:000000000000006e .L0 
C:\Users\Uzair\AppData\Local\Temp\ccG3yh17.s:95     .text.usbd_ep_setup:0000000000000076 .L0 
C:\Users\Uzair\AppData\Local\Temp\ccG3yh17.s:96     .text.usbd_ep_setup:0000000000000076 .L0 
C:\Users\Uzair\AppData\Local\Temp\ccG3yh17.s:97     .text.usbd_ep_setup:0000000000000078 .L0 
C:\Users\Uzair\AppData\Local\Temp\ccG3yh17.s:98     .text.usbd_ep_setup:0000000000000078 .L0 
C:\Users\Uzair\AppData\Local\Temp\ccG3yh17.s:102    .text.usbd_ep_setup:000000000000007c .L0 
C:\Users\Uzair\AppData\Local\Temp\ccG3yh17.s:107    .text.usbd_ep_setup:000000000000007e .L0 
C:\Users\Uzair\AppData\Local\Temp\ccG3yh17.s:109    .text.usbd_ep_setup:000000000000007e .L0 
C:\Users\Uzair\AppData\Local\Temp\ccG3yh17.s:110    .text.usbd_ep_setup:000000000000007e .L0 
C:\Users\Uzair\AppData\Local\Temp\ccG3yh17.s:114    .text.usbd_ep_setup:0000000000000088 .L0 
C:\Users\Uzair\AppData\Local\Temp\ccG3yh17.s:117    .text.usbd_ep_setup:000000000000008e .L0 
C:\Users\Uzair\AppData\Local\Temp\ccG3yh17.s:120    .text.usbd_ep_setup:0000000000000090 .L0 
C:\Users\Uzair\AppData\Local\Temp\ccG3yh17.s:121    .text.usbd_ep_setup:0000000000000090 .L0 
C:\Users\Uzair\AppData\Local\Temp\ccG3yh17.s:124    .text.usbd_ep_setup:000000000000009a .L0 
C:\Users\Uzair\AppData\Local\Temp\ccG3yh17.s:131    .text.usbd_ep_clear:0000000000000000 usbd_ep_clear
C:\Users\Uzair\AppData\Local\Temp\ccG3yh17.s:134    .text.usbd_ep_clear:0000000000000000 .L0 
C:\Users\Uzair\AppData\Local\Temp\ccG3yh17.s:136    .text.usbd_ep_clear:0000000000000000 .L0 
C:\Users\Uzair\AppData\Local\Temp\ccG3yh17.s:137    .text.usbd_ep_clear:0000000000000000 .L0 
C:\Users\Uzair\AppData\Local\Temp\ccG3yh17.s:138    .text.usbd_ep_clear:0000000000000000 .L0 
C:\Users\Uzair\AppData\Local\Temp\ccG3yh17.s:139    .text.usbd_ep_clear:0000000000000000 .L0 
C:\Users\Uzair\AppData\Local\Temp\ccG3yh17.s:141    .text.usbd_ep_clear:0000000000000002 .L0 
C:\Users\Uzair\AppData\Local\Temp\ccG3yh17.s:143    .text.usbd_ep_clear:0000000000000002 .L0 
C:\Users\Uzair\AppData\Local\Temp\ccG3yh17.s:145    .text.usbd_ep_clear:0000000000000006 .L0 
GAS LISTING C:\Users\Uzair\AppData\Local\Temp\ccG3yh17.s 			page 21


C:\Users\Uzair\AppData\Local\Temp\ccG3yh17.s:146    .text.usbd_ep_clear:0000000000000008 .L0 
C:\Users\Uzair\AppData\Local\Temp\ccG3yh17.s:148    .text.usbd_ep_clear:0000000000000008 .L0 
C:\Users\Uzair\AppData\Local\Temp\ccG3yh17.s:151    .text.usbd_ep_clear:000000000000000e .L0 
C:\Users\Uzair\AppData\Local\Temp\ccG3yh17.s:152    .text.usbd_ep_clear:000000000000000e .L0 
C:\Users\Uzair\AppData\Local\Temp\ccG3yh17.s:159    .text.usbd_ep_clear:000000000000001c .L0 
C:\Users\Uzair\AppData\Local\Temp\ccG3yh17.s:162    .text.usbd_ep_clear:000000000000001e .L0 
C:\Users\Uzair\AppData\Local\Temp\ccG3yh17.s:165    .text.usbd_ep_clear:0000000000000026 .L0 
C:\Users\Uzair\AppData\Local\Temp\ccG3yh17.s:166    .text.usbd_ep_clear:0000000000000026 .L0 
C:\Users\Uzair\AppData\Local\Temp\ccG3yh17.s:167    .text.usbd_ep_clear:0000000000000028 .L0 
C:\Users\Uzair\AppData\Local\Temp\ccG3yh17.s:168    .text.usbd_ep_clear:0000000000000028 .L0 
C:\Users\Uzair\AppData\Local\Temp\ccG3yh17.s:172    .text.usbd_ep_clear:000000000000002c .L0 
C:\Users\Uzair\AppData\Local\Temp\ccG3yh17.s:177    .text.usbd_ep_clear:000000000000002e .L0 
C:\Users\Uzair\AppData\Local\Temp\ccG3yh17.s:179    .text.usbd_ep_clear:000000000000002e .L0 
C:\Users\Uzair\AppData\Local\Temp\ccG3yh17.s:180    .text.usbd_ep_clear:000000000000002e .L0 
C:\Users\Uzair\AppData\Local\Temp\ccG3yh17.s:185    .text.usbd_ep_clear:000000000000003a .L0 
C:\Users\Uzair\AppData\Local\Temp\ccG3yh17.s:192    .text.usbd_ep_recev:0000000000000000 usbd_ep_recev
C:\Users\Uzair\AppData\Local\Temp\ccG3yh17.s:195    .text.usbd_ep_recev:0000000000000000 .L0 
C:\Users\Uzair\AppData\Local\Temp\ccG3yh17.s:197    .text.usbd_ep_recev:0000000000000000 .L0 
C:\Users\Uzair\AppData\Local\Temp\ccG3yh17.s:198    .text.usbd_ep_recev:0000000000000000 .L0 
C:\Users\Uzair\AppData\Local\Temp\ccG3yh17.s:200    .text.usbd_ep_recev:0000000000000004 .L0 
C:\Users\Uzair\AppData\Local\Temp\ccG3yh17.s:204    .text.usbd_ep_recev:000000000000000a .L0 
C:\Users\Uzair\AppData\Local\Temp\ccG3yh17.s:206    .text.usbd_ep_recev:000000000000000c .L0 
C:\Users\Uzair\AppData\Local\Temp\ccG3yh17.s:208    .text.usbd_ep_recev:000000000000000e .L0 
C:\Users\Uzair\AppData\Local\Temp\ccG3yh17.s:210    .text.usbd_ep_recev:000000000000000e .L0 
C:\Users\Uzair\AppData\Local\Temp\ccG3yh17.s:212    .text.usbd_ep_recev:0000000000000010 .L0 
C:\Users\Uzair\AppData\Local\Temp\ccG3yh17.s:214    .text.usbd_ep_recev:0000000000000014 .L0 
C:\Users\Uzair\AppData\Local\Temp\ccG3yh17.s:217    .text.usbd_ep_recev:000000000000001a .L0 
C:\Users\Uzair\AppData\Local\Temp\ccG3yh17.s:219    .text.usbd_ep_recev:000000000000001e .L0 
C:\Users\Uzair\AppData\Local\Temp\ccG3yh17.s:221    .text.usbd_ep_recev:0000000000000022 .L0 
C:\Users\Uzair\AppData\Local\Temp\ccG3yh17.s:224    .text.usbd_ep_recev:0000000000000026 .L0 
C:\Users\Uzair\AppData\Local\Temp\ccG3yh17.s:227    .text.usbd_ep_recev:0000000000000028 .L0 
C:\Users\Uzair\AppData\Local\Temp\ccG3yh17.s:228    .text.usbd_ep_recev:0000000000000028 .L0 
C:\Users\Uzair\AppData\Local\Temp\ccG3yh17.s:229    .text.usbd_ep_recev:0000000000000028 .L0 
C:\Users\Uzair\AppData\Local\Temp\ccG3yh17.s:230    .text.usbd_ep_recev:0000000000000028 .L0 
C:\Users\Uzair\AppData\Local\Temp\ccG3yh17.s:231    .text.usbd_ep_recev:0000000000000028 .L0 
C:\Users\Uzair\AppData\Local\Temp\ccG3yh17.s:233    .text.usbd_ep_recev:000000000000002c .L0 
C:\Users\Uzair\AppData\Local\Temp\ccG3yh17.s:234    .text.usbd_ep_recev:000000000000002c .L0 
C:\Users\Uzair\AppData\Local\Temp\ccG3yh17.s:237    .text.usbd_ep_recev:0000000000000030 .L0 
C:\Users\Uzair\AppData\Local\Temp\ccG3yh17.s:240    .text.usbd_ep_recev:0000000000000038 .L0 
C:\Users\Uzair\AppData\Local\Temp\ccG3yh17.s:241    .text.usbd_ep_recev:0000000000000038 .L0 
C:\Users\Uzair\AppData\Local\Temp\ccG3yh17.s:242    .text.usbd_ep_recev:000000000000003a .L0 
C:\Users\Uzair\AppData\Local\Temp\ccG3yh17.s:246    .text.usbd_ep_recev:000000000000003e .L0 
C:\Users\Uzair\AppData\Local\Temp\ccG3yh17.s:248    .text.usbd_ep_recev:0000000000000040 .L0 
C:\Users\Uzair\AppData\Local\Temp\ccG3yh17.s:255    .text.usbd_ep_send:0000000000000000 usbd_ep_send
C:\Users\Uzair\AppData\Local\Temp\ccG3yh17.s:258    .text.usbd_ep_send:0000000000000000 .L0 
C:\Users\Uzair\AppData\Local\Temp\ccG3yh17.s:260    .text.usbd_ep_send:0000000000000000 .L0 
C:\Users\Uzair\AppData\Local\Temp\ccG3yh17.s:261    .text.usbd_ep_send:0000000000000000 .L0 
C:\Users\Uzair\AppData\Local\Temp\ccG3yh17.s:263    .text.usbd_ep_send:0000000000000004 .L0 
C:\Users\Uzair\AppData\Local\Temp\ccG3yh17.s:267    .text.usbd_ep_send:000000000000000a .L0 
C:\Users\Uzair\AppData\Local\Temp\ccG3yh17.s:269    .text.usbd_ep_send:000000000000000c .L0 
C:\Users\Uzair\AppData\Local\Temp\ccG3yh17.s:271    .text.usbd_ep_send:000000000000000e .L0 
C:\Users\Uzair\AppData\Local\Temp\ccG3yh17.s:273    .text.usbd_ep_send:000000000000000e .L0 
C:\Users\Uzair\AppData\Local\Temp\ccG3yh17.s:275    .text.usbd_ep_send:0000000000000010 .L0 
C:\Users\Uzair\AppData\Local\Temp\ccG3yh17.s:277    .text.usbd_ep_send:0000000000000014 .L0 
C:\Users\Uzair\AppData\Local\Temp\ccG3yh17.s:280    .text.usbd_ep_send:000000000000001a .L0 
C:\Users\Uzair\AppData\Local\Temp\ccG3yh17.s:282    .text.usbd_ep_send:000000000000001e .L0 
C:\Users\Uzair\AppData\Local\Temp\ccG3yh17.s:284    .text.usbd_ep_send:0000000000000022 .L0 
GAS LISTING C:\Users\Uzair\AppData\Local\Temp\ccG3yh17.s 			page 22


C:\Users\Uzair\AppData\Local\Temp\ccG3yh17.s:287    .text.usbd_ep_send:0000000000000026 .L0 
C:\Users\Uzair\AppData\Local\Temp\ccG3yh17.s:290    .text.usbd_ep_send:0000000000000028 .L0 
C:\Users\Uzair\AppData\Local\Temp\ccG3yh17.s:291    .text.usbd_ep_send:0000000000000028 .L0 
C:\Users\Uzair\AppData\Local\Temp\ccG3yh17.s:292    .text.usbd_ep_send:0000000000000028 .L0 
C:\Users\Uzair\AppData\Local\Temp\ccG3yh17.s:293    .text.usbd_ep_send:0000000000000028 .L0 
C:\Users\Uzair\AppData\Local\Temp\ccG3yh17.s:294    .text.usbd_ep_send:0000000000000028 .L0 
C:\Users\Uzair\AppData\Local\Temp\ccG3yh17.s:296    .text.usbd_ep_send:000000000000002c .L0 
C:\Users\Uzair\AppData\Local\Temp\ccG3yh17.s:297    .text.usbd_ep_send:000000000000002c .L0 
C:\Users\Uzair\AppData\Local\Temp\ccG3yh17.s:300    .text.usbd_ep_send:0000000000000030 .L0 
C:\Users\Uzair\AppData\Local\Temp\ccG3yh17.s:303    .text.usbd_ep_send:0000000000000038 .L0 
C:\Users\Uzair\AppData\Local\Temp\ccG3yh17.s:304    .text.usbd_ep_send:0000000000000038 .L0 
C:\Users\Uzair\AppData\Local\Temp\ccG3yh17.s:305    .text.usbd_ep_send:000000000000003a .L0 
C:\Users\Uzair\AppData\Local\Temp\ccG3yh17.s:309    .text.usbd_ep_send:000000000000003e .L0 
C:\Users\Uzair\AppData\Local\Temp\ccG3yh17.s:311    .text.usbd_ep_send:0000000000000040 .L0 
C:\Users\Uzair\AppData\Local\Temp\ccG3yh17.s:318    .text.usbd_ep_stall:0000000000000000 usbd_ep_stall
C:\Users\Uzair\AppData\Local\Temp\ccG3yh17.s:321    .text.usbd_ep_stall:0000000000000000 .L0 
C:\Users\Uzair\AppData\Local\Temp\ccG3yh17.s:323    .text.usbd_ep_stall:0000000000000000 .L0 
C:\Users\Uzair\AppData\Local\Temp\ccG3yh17.s:324    .text.usbd_ep_stall:0000000000000000 .L0 
C:\Users\Uzair\AppData\Local\Temp\ccG3yh17.s:325    .text.usbd_ep_stall:0000000000000000 .L0 
C:\Users\Uzair\AppData\Local\Temp\ccG3yh17.s:326    .text.usbd_ep_stall:0000000000000000 .L0 
C:\Users\Uzair\AppData\Local\Temp\ccG3yh17.s:328    .text.usbd_ep_stall:0000000000000002 .L0 
C:\Users\Uzair\AppData\Local\Temp\ccG3yh17.s:330    .text.usbd_ep_stall:0000000000000002 .L0 
C:\Users\Uzair\AppData\Local\Temp\ccG3yh17.s:332    .text.usbd_ep_stall:0000000000000006 .L0 
C:\Users\Uzair\AppData\Local\Temp\ccG3yh17.s:333    .text.usbd_ep_stall:0000000000000008 .L0 
C:\Users\Uzair\AppData\Local\Temp\ccG3yh17.s:335    .text.usbd_ep_stall:0000000000000008 .L0 
C:\Users\Uzair\AppData\Local\Temp\ccG3yh17.s:338    .text.usbd_ep_stall:000000000000000e .L0 
C:\Users\Uzair\AppData\Local\Temp\ccG3yh17.s:339    .text.usbd_ep_stall:000000000000000e .L0 
C:\Users\Uzair\AppData\Local\Temp\ccG3yh17.s:346    .text.usbd_ep_stall:000000000000001c .L0 
C:\Users\Uzair\AppData\Local\Temp\ccG3yh17.s:349    .text.usbd_ep_stall:000000000000001e .L0 
C:\Users\Uzair\AppData\Local\Temp\ccG3yh17.s:350    .text.usbd_ep_stall:000000000000001e .L0 
C:\Users\Uzair\AppData\Local\Temp\ccG3yh17.s:353    .text.usbd_ep_stall:0000000000000024 .L0 
C:\Users\Uzair\AppData\Local\Temp\ccG3yh17.s:356    .text.usbd_ep_stall:000000000000002c .L0 
C:\Users\Uzair\AppData\Local\Temp\ccG3yh17.s:357    .text.usbd_ep_stall:000000000000002c .L0 
C:\Users\Uzair\AppData\Local\Temp\ccG3yh17.s:358    .text.usbd_ep_stall:000000000000002e .L0 
C:\Users\Uzair\AppData\Local\Temp\ccG3yh17.s:359    .text.usbd_ep_stall:000000000000002e .L0 
C:\Users\Uzair\AppData\Local\Temp\ccG3yh17.s:363    .text.usbd_ep_stall:0000000000000032 .L0 
C:\Users\Uzair\AppData\Local\Temp\ccG3yh17.s:368    .text.usbd_ep_stall:0000000000000034 .L0 
C:\Users\Uzair\AppData\Local\Temp\ccG3yh17.s:370    .text.usbd_ep_stall:0000000000000034 .L0 
C:\Users\Uzair\AppData\Local\Temp\ccG3yh17.s:371    .text.usbd_ep_stall:0000000000000034 .L0 
C:\Users\Uzair\AppData\Local\Temp\ccG3yh17.s:376    .text.usbd_ep_stall:0000000000000040 .L0 
C:\Users\Uzair\AppData\Local\Temp\ccG3yh17.s:383    .text.usbd_ep_stall_clear:0000000000000000 usbd_ep_stall_clear
C:\Users\Uzair\AppData\Local\Temp\ccG3yh17.s:386    .text.usbd_ep_stall_clear:0000000000000000 .L0 
C:\Users\Uzair\AppData\Local\Temp\ccG3yh17.s:388    .text.usbd_ep_stall_clear:0000000000000000 .L0 
C:\Users\Uzair\AppData\Local\Temp\ccG3yh17.s:389    .text.usbd_ep_stall_clear:0000000000000000 .L0 
C:\Users\Uzair\AppData\Local\Temp\ccG3yh17.s:390    .text.usbd_ep_stall_clear:0000000000000000 .L0 
C:\Users\Uzair\AppData\Local\Temp\ccG3yh17.s:391    .text.usbd_ep_stall_clear:0000000000000000 .L0 
C:\Users\Uzair\AppData\Local\Temp\ccG3yh17.s:393    .text.usbd_ep_stall_clear:0000000000000002 .L0 
C:\Users\Uzair\AppData\Local\Temp\ccG3yh17.s:395    .text.usbd_ep_stall_clear:0000000000000002 .L0 
C:\Users\Uzair\AppData\Local\Temp\ccG3yh17.s:397    .text.usbd_ep_stall_clear:0000000000000006 .L0 
C:\Users\Uzair\AppData\Local\Temp\ccG3yh17.s:398    .text.usbd_ep_stall_clear:0000000000000008 .L0 
C:\Users\Uzair\AppData\Local\Temp\ccG3yh17.s:400    .text.usbd_ep_stall_clear:0000000000000008 .L0 
C:\Users\Uzair\AppData\Local\Temp\ccG3yh17.s:403    .text.usbd_ep_stall_clear:000000000000000e .L0 
C:\Users\Uzair\AppData\Local\Temp\ccG3yh17.s:404    .text.usbd_ep_stall_clear:000000000000000e .L0 
C:\Users\Uzair\AppData\Local\Temp\ccG3yh17.s:411    .text.usbd_ep_stall_clear:000000000000001c .L0 
C:\Users\Uzair\AppData\Local\Temp\ccG3yh17.s:414    .text.usbd_ep_stall_clear:000000000000001e .L0 
C:\Users\Uzair\AppData\Local\Temp\ccG3yh17.s:415    .text.usbd_ep_stall_clear:000000000000001e .L0 
C:\Users\Uzair\AppData\Local\Temp\ccG3yh17.s:417    .text.usbd_ep_stall_clear:0000000000000022 .L0 
GAS LISTING C:\Users\Uzair\AppData\Local\Temp\ccG3yh17.s 			page 23


C:\Users\Uzair\AppData\Local\Temp\ccG3yh17.s:420    .text.usbd_ep_stall_clear:000000000000002a .L0 
C:\Users\Uzair\AppData\Local\Temp\ccG3yh17.s:421    .text.usbd_ep_stall_clear:000000000000002a .L0 
C:\Users\Uzair\AppData\Local\Temp\ccG3yh17.s:422    .text.usbd_ep_stall_clear:000000000000002c .L0 
C:\Users\Uzair\AppData\Local\Temp\ccG3yh17.s:423    .text.usbd_ep_stall_clear:000000000000002c .L0 
C:\Users\Uzair\AppData\Local\Temp\ccG3yh17.s:427    .text.usbd_ep_stall_clear:0000000000000030 .L0 
C:\Users\Uzair\AppData\Local\Temp\ccG3yh17.s:432    .text.usbd_ep_stall_clear:0000000000000032 .L0 
C:\Users\Uzair\AppData\Local\Temp\ccG3yh17.s:434    .text.usbd_ep_stall_clear:0000000000000032 .L0 
C:\Users\Uzair\AppData\Local\Temp\ccG3yh17.s:435    .text.usbd_ep_stall_clear:0000000000000032 .L0 
C:\Users\Uzair\AppData\Local\Temp\ccG3yh17.s:440    .text.usbd_ep_stall_clear:000000000000003e .L0 
C:\Users\Uzair\AppData\Local\Temp\ccG3yh17.s:447    .text.usbd_fifo_flush:0000000000000000 usbd_fifo_flush
C:\Users\Uzair\AppData\Local\Temp\ccG3yh17.s:450    .text.usbd_fifo_flush:0000000000000000 .L0 
C:\Users\Uzair\AppData\Local\Temp\ccG3yh17.s:452    .text.usbd_fifo_flush:0000000000000000 .L0 
C:\Users\Uzair\AppData\Local\Temp\ccG3yh17.s:453    .text.usbd_fifo_flush:0000000000000000 .L0 
C:\Users\Uzair\AppData\Local\Temp\ccG3yh17.s:454    .text.usbd_fifo_flush:0000000000000000 .L0 
C:\Users\Uzair\AppData\Local\Temp\ccG3yh17.s:456    .text.usbd_fifo_flush:0000000000000002 .L0 
C:\Users\Uzair\AppData\Local\Temp\ccG3yh17.s:458    .text.usbd_fifo_flush:0000000000000002 .L0 
C:\Users\Uzair\AppData\Local\Temp\ccG3yh17.s:460    .text.usbd_fifo_flush:0000000000000006 .L0 
C:\Users\Uzair\AppData\Local\Temp\ccG3yh17.s:461    .text.usbd_fifo_flush:0000000000000008 .L0 
C:\Users\Uzair\AppData\Local\Temp\ccG3yh17.s:463    .text.usbd_fifo_flush:0000000000000008 .L0 
C:\Users\Uzair\AppData\Local\Temp\ccG3yh17.s:468    .text.usbd_fifo_flush:0000000000000010 .L0 
C:\Users\Uzair\AppData\Local\Temp\ccG3yh17.s:474    .text.usbd_fifo_flush:000000000000001c .L0 
C:\Users\Uzair\AppData\Local\Temp\ccG3yh17.s:475    .text.usbd_fifo_flush:000000000000001c .L0 
C:\Users\Uzair\AppData\Local\Temp\ccG3yh17.s:476    .text.usbd_fifo_flush:000000000000001e .L0 
C:\Users\Uzair\AppData\Local\Temp\ccG3yh17.s:477    .text.usbd_fifo_flush:000000000000001e .L0 
C:\Users\Uzair\AppData\Local\Temp\ccG3yh17.s:481    .text.usbd_fifo_flush:0000000000000022 .L0 
C:\Users\Uzair\AppData\Local\Temp\ccG3yh17.s:486    .text.usbd_fifo_flush:0000000000000024 .L0 
C:\Users\Uzair\AppData\Local\Temp\ccG3yh17.s:488    .text.usbd_fifo_flush:0000000000000024 .L0 
C:\Users\Uzair\AppData\Local\Temp\ccG3yh17.s:491    .text.usbd_fifo_flush:000000000000002e .L0 
C:\Users\Uzair\AppData\Local\Temp\ccG3yh17.s:498    .text.usbd_addr_set:0000000000000000 usbd_addr_set
C:\Users\Uzair\AppData\Local\Temp\ccG3yh17.s:501    .text.usbd_addr_set:0000000000000000 .L0 
C:\Users\Uzair\AppData\Local\Temp\ccG3yh17.s:503    .text.usbd_addr_set:0000000000000000 .L0 
C:\Users\Uzair\AppData\Local\Temp\ccG3yh17.s:504    .text.usbd_addr_set:0000000000000000 .L0 
C:\Users\Uzair\AppData\Local\Temp\ccG3yh17.s:506    .text.usbd_addr_set:0000000000000008 .L0 
C:\Users\Uzair\AppData\Local\Temp\ccG3yh17.s:513    .text.usbd_rxcount_get:0000000000000000 usbd_rxcount_get
C:\Users\Uzair\AppData\Local\Temp\ccG3yh17.s:516    .text.usbd_rxcount_get:0000000000000000 .L0 
C:\Users\Uzair\AppData\Local\Temp\ccG3yh17.s:518    .text.usbd_rxcount_get:0000000000000000 .L0 
C:\Users\Uzair\AppData\Local\Temp\ccG3yh17.s:519    .text.usbd_rxcount_get:0000000000000000 .L0 
C:\Users\Uzair\AppData\Local\Temp\ccG3yh17.s:520    .text.usbd_rxcount_get:0000000000000000 .L0 
C:\Users\Uzair\AppData\Local\Temp\ccG3yh17.s:525    .text.usbd_rxcount_get:0000000000000008 .L0 
C:\Users\Uzair\AppData\Local\Temp\ccG3yh17.s:528    .text.usbd_rxcount_get:000000000000000e .L0 
C:\Users\Uzair\AppData\Local\Temp\ccG3yh17.s:535    .text.usbd_connect:0000000000000000 usbd_connect
C:\Users\Uzair\AppData\Local\Temp\ccG3yh17.s:538    .text.usbd_connect:0000000000000000 .L0 
C:\Users\Uzair\AppData\Local\Temp\ccG3yh17.s:540    .text.usbd_connect:0000000000000000 .L0 
C:\Users\Uzair\AppData\Local\Temp\ccG3yh17.s:541    .text.usbd_connect:0000000000000000 .L0 
C:\Users\Uzair\AppData\Local\Temp\ccG3yh17.s:542    .text.usbd_connect:0000000000000000 .L0 
C:\Users\Uzair\AppData\Local\Temp\ccG3yh17.s:544    .text.usbd_connect:0000000000000002 .L0 
C:\Users\Uzair\AppData\Local\Temp\ccG3yh17.s:546    .text.usbd_connect:0000000000000004 .L0 
C:\Users\Uzair\AppData\Local\Temp\ccG3yh17.s:548    .text.usbd_connect:0000000000000004 .L0 
C:\Users\Uzair\AppData\Local\Temp\ccG3yh17.s:551    .text.usbd_connect:000000000000000c .L0 
C:\Users\Uzair\AppData\Local\Temp\ccG3yh17.s:552    .text.usbd_connect:000000000000000c .L0 
C:\Users\Uzair\AppData\Local\Temp\ccG3yh17.s:553    .text.usbd_connect:000000000000000e .L0 
C:\Users\Uzair\AppData\Local\Temp\ccG3yh17.s:555    .text.usbd_connect:000000000000000e .L0 
C:\Users\Uzair\AppData\Local\Temp\ccG3yh17.s:557    .text.usbd_connect:0000000000000010 .L0 
C:\Users\Uzair\AppData\Local\Temp\ccG3yh17.s:559    .text.usbd_connect:0000000000000012 .L0 
C:\Users\Uzair\AppData\Local\Temp\ccG3yh17.s:561    .text.usbd_connect:0000000000000012 .L0 
C:\Users\Uzair\AppData\Local\Temp\ccG3yh17.s:563    .text.usbd_connect:000000000000001a .L0 
C:\Users\Uzair\AppData\Local\Temp\ccG3yh17.s:570    .text.usbd_disconnect:0000000000000000 usbd_disconnect
GAS LISTING C:\Users\Uzair\AppData\Local\Temp\ccG3yh17.s 			page 24


C:\Users\Uzair\AppData\Local\Temp\ccG3yh17.s:573    .text.usbd_disconnect:0000000000000000 .L0 
C:\Users\Uzair\AppData\Local\Temp\ccG3yh17.s:575    .text.usbd_disconnect:0000000000000000 .L0 
C:\Users\Uzair\AppData\Local\Temp\ccG3yh17.s:576    .text.usbd_disconnect:0000000000000000 .L0 
C:\Users\Uzair\AppData\Local\Temp\ccG3yh17.s:577    .text.usbd_disconnect:0000000000000000 .L0 
C:\Users\Uzair\AppData\Local\Temp\ccG3yh17.s:579    .text.usbd_disconnect:0000000000000002 .L0 
C:\Users\Uzair\AppData\Local\Temp\ccG3yh17.s:581    .text.usbd_disconnect:0000000000000004 .L0 
C:\Users\Uzair\AppData\Local\Temp\ccG3yh17.s:583    .text.usbd_disconnect:0000000000000004 .L0 
C:\Users\Uzair\AppData\Local\Temp\ccG3yh17.s:586    .text.usbd_disconnect:000000000000000c .L0 
C:\Users\Uzair\AppData\Local\Temp\ccG3yh17.s:587    .text.usbd_disconnect:000000000000000c .L0 
C:\Users\Uzair\AppData\Local\Temp\ccG3yh17.s:588    .text.usbd_disconnect:000000000000000e .L0 
C:\Users\Uzair\AppData\Local\Temp\ccG3yh17.s:590    .text.usbd_disconnect:000000000000000e .L0 
C:\Users\Uzair\AppData\Local\Temp\ccG3yh17.s:592    .text.usbd_disconnect:0000000000000010 .L0 
C:\Users\Uzair\AppData\Local\Temp\ccG3yh17.s:594    .text.usbd_disconnect:0000000000000012 .L0 
C:\Users\Uzair\AppData\Local\Temp\ccG3yh17.s:596    .text.usbd_disconnect:0000000000000012 .L0 
C:\Users\Uzair\AppData\Local\Temp\ccG3yh17.s:598    .text.usbd_disconnect:000000000000001a .L0 
C:\Users\Uzair\AppData\Local\Temp\ccG3yh17.s:605    .text.usbd_init:0000000000000000 usbd_init
C:\Users\Uzair\AppData\Local\Temp\ccG3yh17.s:608    .text.usbd_init:0000000000000000 .L0 
C:\Users\Uzair\AppData\Local\Temp\ccG3yh17.s:610    .text.usbd_init:0000000000000000 .L0 
C:\Users\Uzair\AppData\Local\Temp\ccG3yh17.s:611    .text.usbd_init:0000000000000000 .L0 
C:\Users\Uzair\AppData\Local\Temp\ccG3yh17.s:612    .text.usbd_init:0000000000000000 .L0 
C:\Users\Uzair\AppData\Local\Temp\ccG3yh17.s:614    .text.usbd_init:0000000000000002 .L0 
C:\Users\Uzair\AppData\Local\Temp\ccG3yh17.s:618    .text.usbd_init:0000000000000008 .L0 
C:\Users\Uzair\AppData\Local\Temp\ccG3yh17.s:619    .text.usbd_init:0000000000000008 .L0 
C:\Users\Uzair\AppData\Local\Temp\ccG3yh17.s:620    .text.usbd_init:0000000000000008 .L0 
C:\Users\Uzair\AppData\Local\Temp\ccG3yh17.s:622    .text.usbd_init:0000000000000008 .L0 
C:\Users\Uzair\AppData\Local\Temp\ccG3yh17.s:624    .text.usbd_init:000000000000000c .L0 
C:\Users\Uzair\AppData\Local\Temp\ccG3yh17.s:626    .text.usbd_init:0000000000000010 .L0 
C:\Users\Uzair\AppData\Local\Temp\ccG3yh17.s:631    .text.usbd_init:0000000000000014 .L0 
C:\Users\Uzair\AppData\Local\Temp\ccG3yh17.s:633    .text.usbd_init:0000000000000016 .L0 
C:\Users\Uzair\AppData\Local\Temp\ccG3yh17.s:636    .text.usbd_init:000000000000001e .L0 
C:\Users\Uzair\AppData\Local\Temp\ccG3yh17.s:642    .text.usbd_init:000000000000002c .L0 
C:\Users\Uzair\AppData\Local\Temp\ccG3yh17.s:646    .text.usbd_init:0000000000000036 .L0 
C:\Users\Uzair\AppData\Local\Temp\ccG3yh17.s:650    .text.usbd_init:0000000000000040 .L0 
C:\Users\Uzair\AppData\Local\Temp\ccG3yh17.s:654    .text.usbd_init:000000000000004a .L0 
C:\Users\Uzair\AppData\Local\Temp\ccG3yh17.s:655    .text.usbd_init:000000000000004a .L0 
C:\Users\Uzair\AppData\Local\Temp\ccG3yh17.s:658    .text.usbd_init:0000000000000050 .L0 
C:\Users\Uzair\AppData\Local\Temp\ccG3yh17.s:659    .text.usbd_init:0000000000000052 .L0 
C:\Users\Uzair\AppData\Local\Temp\ccG3yh17.s:661    .text.usbd_init:0000000000000054 .L0 
C:\Users\Uzair\AppData\Local\Temp\ccG3yh17.s:664    .text.usbd_init:0000000000000056 .L0 
C:\Users\Uzair\AppData\Local\Temp\ccG3yh17.s:668    .text.usbd_init:0000000000000058 .L0 
C:\Users\Uzair\AppData\Local\Temp\ccG3yh17.s:670    .text.usbd_init:000000000000005a .L0 
C:\Users\Uzair\AppData\Local\Temp\ccG3yh17.s:679    .rodata.ep_type:0000000000000000 ep_type
C:\Users\Uzair\AppData\Local\Temp\ccG3yh17.s:676    .rodata.ep_type:0000000000000000 .LANCHOR0
C:\Users\Uzair\AppData\Local\Temp\ccG3yh17.s:127    .text.usbd_ep_setup:000000000000009a .L0 
C:\Users\Uzair\AppData\Local\Temp\ccG3yh17.s:188    .text.usbd_ep_clear:000000000000003a .L0 
C:\Users\Uzair\AppData\Local\Temp\ccG3yh17.s:251    .text.usbd_ep_recev:0000000000000040 .L0 
C:\Users\Uzair\AppData\Local\Temp\ccG3yh17.s:314    .text.usbd_ep_send:0000000000000040 .L0 
C:\Users\Uzair\AppData\Local\Temp\ccG3yh17.s:379    .text.usbd_ep_stall:0000000000000040 .L0 
C:\Users\Uzair\AppData\Local\Temp\ccG3yh17.s:443    .text.usbd_ep_stall_clear:000000000000003e .L0 
C:\Users\Uzair\AppData\Local\Temp\ccG3yh17.s:494    .text.usbd_fifo_flush:000000000000002e .L0 
C:\Users\Uzair\AppData\Local\Temp\ccG3yh17.s:509    .text.usbd_addr_set:0000000000000008 .L0 
C:\Users\Uzair\AppData\Local\Temp\ccG3yh17.s:531    .text.usbd_rxcount_get:000000000000000e .L0 
C:\Users\Uzair\AppData\Local\Temp\ccG3yh17.s:566    .text.usbd_connect:000000000000001a .L0 
C:\Users\Uzair\AppData\Local\Temp\ccG3yh17.s:601    .text.usbd_disconnect:000000000000001a .L0 
C:\Users\Uzair\AppData\Local\Temp\ccG3yh17.s:674    .text.usbd_init:000000000000005a .L0 
                     .debug_frame:0000000000000000 .L0 
C:\Users\Uzair\AppData\Local\Temp\ccG3yh17.s:105    .text.usbd_ep_setup:000000000000007e .L2
GAS LISTING C:\Users\Uzair\AppData\Local\Temp\ccG3yh17.s 			page 25


C:\Users\Uzair\AppData\Local\Temp\ccG3yh17.s:59     .text.usbd_ep_setup:000000000000003c .L3
C:\Users\Uzair\AppData\Local\Temp\ccG3yh17.s:175    .text.usbd_ep_clear:000000000000002e .L6
C:\Users\Uzair\AppData\Local\Temp\ccG3yh17.s:157    .text.usbd_ep_clear:000000000000001c .L9
C:\Users\Uzair\AppData\Local\Temp\ccG3yh17.s:235    .text.usbd_ep_recev:0000000000000030 .L11
C:\Users\Uzair\AppData\Local\Temp\ccG3yh17.s:298    .text.usbd_ep_send:0000000000000030 .L14
C:\Users\Uzair\AppData\Local\Temp\ccG3yh17.s:366    .text.usbd_ep_stall:0000000000000034 .L17
C:\Users\Uzair\AppData\Local\Temp\ccG3yh17.s:344    .text.usbd_ep_stall:000000000000001c .L20
C:\Users\Uzair\AppData\Local\Temp\ccG3yh17.s:430    .text.usbd_ep_stall_clear:0000000000000032 .L22
C:\Users\Uzair\AppData\Local\Temp\ccG3yh17.s:409    .text.usbd_ep_stall_clear:000000000000001c .L25
C:\Users\Uzair\AppData\Local\Temp\ccG3yh17.s:484    .text.usbd_fifo_flush:0000000000000024 .L27
C:\Users\Uzair\AppData\Local\Temp\ccG3yh17.s:472    .text.usbd_fifo_flush:000000000000001c .L28
C:\Users\Uzair\AppData\Local\Temp\ccG3yh17.s:3345   .debug_abbrev:0000000000000000 .Ldebug_abbrev0
C:\Users\Uzair\AppData\Local\Temp\ccG3yh17.s:5200   .debug_str:0000000000000863 .LASF225
C:\Users\Uzair\AppData\Local\Temp\ccG3yh17.s:5056   .debug_str:0000000000000539 .LASF226
C:\Users\Uzair\AppData\Local\Temp\ccG3yh17.s:5138   .debug_str:00000000000006ef .LASF227
C:\Users\Uzair\AppData\Local\Temp\ccG3yh17.s:4804   .debug_ranges:0000000000000000 .Ldebug_ranges0
C:\Users\Uzair\AppData\Local\Temp\ccG3yh17.s:4832   .debug_line:0000000000000000 .Ldebug_line0
C:\Users\Uzair\AppData\Local\Temp\ccG3yh17.s:4988   .debug_str:0000000000000395 .LASF0
C:\Users\Uzair\AppData\Local\Temp\ccG3yh17.s:4892   .debug_str:000000000000015a .LASF1
C:\Users\Uzair\AppData\Local\Temp\ccG3yh17.s:4846   .debug_str:0000000000000048 .LASF4
C:\Users\Uzair\AppData\Local\Temp\ccG3yh17.s:5110   .debug_str:000000000000064a .LASF2
C:\Users\Uzair\AppData\Local\Temp\ccG3yh17.s:4836   .debug_str:0000000000000016 .LASF3
C:\Users\Uzair\AppData\Local\Temp\ccG3yh17.s:5182   .debug_str:0000000000000807 .LASF5
C:\Users\Uzair\AppData\Local\Temp\ccG3yh17.s:5018   .debug_str:0000000000000446 .LASF6
C:\Users\Uzair\AppData\Local\Temp\ccG3yh17.s:4916   .debug_str:00000000000001f2 .LASF7
C:\Users\Uzair\AppData\Local\Temp\ccG3yh17.s:4966   .debug_str:000000000000030a .LASF8
C:\Users\Uzair\AppData\Local\Temp\ccG3yh17.s:5000   .debug_str:00000000000003d9 .LASF9
C:\Users\Uzair\AppData\Local\Temp\ccG3yh17.s:4890   .debug_str:000000000000014c .LASF10
C:\Users\Uzair\AppData\Local\Temp\ccG3yh17.s:4944   .debug_str:000000000000028d .LASF11
C:\Users\Uzair\AppData\Local\Temp\ccG3yh17.s:5238   .debug_str:00000000000009b8 .LASF12
C:\Users\Uzair\AppData\Local\Temp\ccG3yh17.s:4940   .debug_str:000000000000027a .LASF13
C:\Users\Uzair\AppData\Local\Temp\ccG3yh17.s:5222   .debug_str:000000000000095c .LASF14
C:\Users\Uzair\AppData\Local\Temp\ccG3yh17.s:4992   .debug_str:00000000000003b2 .LASF90
C:\Users\Uzair\AppData\Local\Temp\ccG3yh17.s:5172   .debug_str:00000000000007d9 .LASF15
C:\Users\Uzair\AppData\Local\Temp\ccG3yh17.s:5020   .debug_str:0000000000000459 .LASF16
C:\Users\Uzair\AppData\Local\Temp\ccG3yh17.s:4886   .debug_str:000000000000012e .LASF17
C:\Users\Uzair\AppData\Local\Temp\ccG3yh17.s:5044   .debug_str:00000000000004f5 .LASF18
C:\Users\Uzair\AppData\Local\Temp\ccG3yh17.s:5260   .debug_str:0000000000000a18 .LASF19
C:\Users\Uzair\AppData\Local\Temp\ccG3yh17.s:5264   .debug_str:0000000000000a2f .LASF20
C:\Users\Uzair\AppData\Local\Temp\ccG3yh17.s:5008   .debug_str:0000000000000413 .LASF21
C:\Users\Uzair\AppData\Local\Temp\ccG3yh17.s:5152   .debug_str:000000000000077a .LASF22
C:\Users\Uzair\AppData\Local\Temp\ccG3yh17.s:5032   .debug_str:00000000000004ac .LASF23
C:\Users\Uzair\AppData\Local\Temp\ccG3yh17.s:4878   .debug_str:0000000000000102 .LASF24
C:\Users\Uzair\AppData\Local\Temp\ccG3yh17.s:5274   .debug_str:0000000000000a5b .LASF25
C:\Users\Uzair\AppData\Local\Temp\ccG3yh17.s:5194   .debug_str:0000000000000847 .LASF26
C:\Users\Uzair\AppData\Local\Temp\ccG3yh17.s:5192   .debug_str:000000000000083f .LASF27
C:\Users\Uzair\AppData\Local\Temp\ccG3yh17.s:5146   .debug_str:000000000000075b .LASF28
C:\Users\Uzair\AppData\Local\Temp\ccG3yh17.s:4870   .debug_str:00000000000000c6 .LASF29
C:\Users\Uzair\AppData\Local\Temp\ccG3yh17.s:5088   .debug_str:00000000000005dc .LASF30
C:\Users\Uzair\AppData\Local\Temp\ccG3yh17.s:5078   .debug_str:00000000000005af .LASF31
C:\Users\Uzair\AppData\Local\Temp\ccG3yh17.s:5250   .debug_str:00000000000009e7 .LASF32
C:\Users\Uzair\AppData\Local\Temp\ccG3yh17.s:5130   .debug_str:00000000000006c1 .LASF33
C:\Users\Uzair\AppData\Local\Temp\ccG3yh17.s:5272   .debug_str:0000000000000a53 .LASF34
C:\Users\Uzair\AppData\Local\Temp\ccG3yh17.s:5092   .debug_str:00000000000005f0 .LASF35
C:\Users\Uzair\AppData\Local\Temp\ccG3yh17.s:5106   .debug_str:000000000000063d .LASF36
C:\Users\Uzair\AppData\Local\Temp\ccG3yh17.s:5244   .debug_str:00000000000009d2 .LASF37
C:\Users\Uzair\AppData\Local\Temp\ccG3yh17.s:5164   .debug_str:00000000000007b0 .LASF38
GAS LISTING C:\Users\Uzair\AppData\Local\Temp\ccG3yh17.s 			page 26


C:\Users\Uzair\AppData\Local\Temp\ccG3yh17.s:5116   .debug_str:0000000000000672 .LASF39
C:\Users\Uzair\AppData\Local\Temp\ccG3yh17.s:5132   .debug_str:00000000000006cc .LASF40
C:\Users\Uzair\AppData\Local\Temp\ccG3yh17.s:5176   .debug_str:00000000000007f1 .LASF41
C:\Users\Uzair\AppData\Local\Temp\ccG3yh17.s:5062   .debug_str:0000000000000563 .LASF42
C:\Users\Uzair\AppData\Local\Temp\ccG3yh17.s:5178   .debug_str:00000000000007f9 .LASF43
C:\Users\Uzair\AppData\Local\Temp\ccG3yh17.s:5188   .debug_str:0000000000000829 .LASF44
C:\Users\Uzair\AppData\Local\Temp\ccG3yh17.s:5070   .debug_str:0000000000000588 .LASF45
C:\Users\Uzair\AppData\Local\Temp\ccG3yh17.s:5236   .debug_str:00000000000009b0 .LASF46
C:\Users\Uzair\AppData\Local\Temp\ccG3yh17.s:5048   .debug_str:000000000000050d .LASF47
C:\Users\Uzair\AppData\Local\Temp\ccG3yh17.s:4914   .debug_str:00000000000001eb .LASF48
C:\Users\Uzair\AppData\Local\Temp\ccG3yh17.s:4948   .debug_str:00000000000002aa .LASF49
C:\Users\Uzair\AppData\Local\Temp\ccG3yh17.s:4854   .debug_str:0000000000000075 .LASF50
C:\Users\Uzair\AppData\Local\Temp\ccG3yh17.s:5202   .debug_str:00000000000008eb .LASF51
C:\Users\Uzair\AppData\Local\Temp\ccG3yh17.s:4932   .debug_str:0000000000000256 .LASF52
C:\Users\Uzair\AppData\Local\Temp\ccG3yh17.s:5204   .debug_str:00000000000008f2 .LASF53
C:\Users\Uzair\AppData\Local\Temp\ccG3yh17.s:5084   .debug_str:00000000000005cb .LASF54
C:\Users\Uzair\AppData\Local\Temp\ccG3yh17.s:4920   .debug_str:000000000000020d .LASF55
C:\Users\Uzair\AppData\Local\Temp\ccG3yh17.s:5002   .debug_str:00000000000003eb .LASF56
C:\Users\Uzair\AppData\Local\Temp\ccG3yh17.s:5072   .debug_str:0000000000000591 .LASF57
C:\Users\Uzair\AppData\Local\Temp\ccG3yh17.s:5118   .debug_str:000000000000067e .LASF58
C:\Users\Uzair\AppData\Local\Temp\ccG3yh17.s:5050   .debug_str:0000000000000516 .LASF59
C:\Users\Uzair\AppData\Local\Temp\ccG3yh17.s:5214   .debug_str:0000000000000933 .LASF60
C:\Users\Uzair\AppData\Local\Temp\ccG3yh17.s:5036   .debug_str:00000000000004bc .LASF61
C:\Users\Uzair\AppData\Local\Temp\ccG3yh17.s:5160   .debug_str:00000000000007a1 .LASF62
C:\Users\Uzair\AppData\Local\Temp\ccG3yh17.s:5240   .debug_str:00000000000009c0 .LASF63
C:\Users\Uzair\AppData\Local\Temp\ccG3yh17.s:5034   .debug_str:00000000000004b4 .LASF64
C:\Users\Uzair\AppData\Local\Temp\ccG3yh17.s:4838   .debug_str:0000000000000020 .LASF65
C:\Users\Uzair\AppData\Local\Temp\ccG3yh17.s:5122   .debug_str:000000000000068f .LASF66
C:\Users\Uzair\AppData\Local\Temp\ccG3yh17.s:5030   .debug_str:00000000000004a2 .LASF67
C:\Users\Uzair\AppData\Local\Temp\ccG3yh17.s:4924   .debug_str:0000000000000222 .LASF68
C:\Users\Uzair\AppData\Local\Temp\ccG3yh17.s:5140   .debug_str:0000000000000743 .LASF69
C:\Users\Uzair\AppData\Local\Temp\ccG3yh17.s:4954   .debug_str:00000000000002c4 .LASF70
C:\Users\Uzair\AppData\Local\Temp\ccG3yh17.s:4950   .debug_str:00000000000002b5 .LASF71
C:\Users\Uzair\AppData\Local\Temp\ccG3yh17.s:5066   .debug_str:0000000000000579 .LASF72
C:\Users\Uzair\AppData\Local\Temp\ccG3yh17.s:4904   .debug_str:00000000000001b0 .LASF73
C:\Users\Uzair\AppData\Local\Temp\ccG3yh17.s:4860   .debug_str:000000000000009a .LASF74
C:\Users\Uzair\AppData\Local\Temp\ccG3yh17.s:5246   .debug_str:00000000000009d7 .LASF75
C:\Users\Uzair\AppData\Local\Temp\ccG3yh17.s:4842   .debug_str:0000000000000031 .LASF76
C:\Users\Uzair\AppData\Local\Temp\ccG3yh17.s:4844   .debug_str:000000000000003d .LASF77
C:\Users\Uzair\AppData\Local\Temp\ccG3yh17.s:5226   .debug_str:0000000000000976 .LASF78
C:\Users\Uzair\AppData\Local\Temp\ccG3yh17.s:5220   .debug_str:0000000000000954 .LASF79
C:\Users\Uzair\AppData\Local\Temp\ccG3yh17.s:4908   .debug_str:00000000000001ca .LASF80
C:\Users\Uzair\AppData\Local\Temp\ccG3yh17.s:4956   .debug_str:00000000000002cf .LASF81
C:\Users\Uzair\AppData\Local\Temp\ccG3yh17.s:5170   .debug_str:00000000000007cd .LASF82
C:\Users\Uzair\AppData\Local\Temp\ccG3yh17.s:4922   .debug_str:0000000000000218 .LASF83
C:\Users\Uzair\AppData\Local\Temp\ccG3yh17.s:4872   .debug_str:00000000000000da .LASF96
C:\Users\Uzair\AppData\Local\Temp\ccG3yh17.s:4946   .debug_str:00000000000002a4 .LASF84
C:\Users\Uzair\AppData\Local\Temp\ccG3yh17.s:5206   .debug_str:00000000000008f7 .LASF85
C:\Users\Uzair\AppData\Local\Temp\ccG3yh17.s:4848   .debug_str:0000000000000052 .LASF86
C:\Users\Uzair\AppData\Local\Temp\ccG3yh17.s:5108   .debug_str:0000000000000644 .LASF87
C:\Users\Uzair\AppData\Local\Temp\ccG3yh17.s:5124   .debug_str:0000000000000697 .LASF88
C:\Users\Uzair\AppData\Local\Temp\ccG3yh17.s:4958   .debug_str:00000000000002d7 .LASF89
C:\Users\Uzair\AppData\Local\Temp\ccG3yh17.s:4974   .debug_str:0000000000000344 .LASF91
C:\Users\Uzair\AppData\Local\Temp\ccG3yh17.s:5026   .debug_str:0000000000000486 .LASF115
C:\Users\Uzair\AppData\Local\Temp\ccG3yh17.s:5136   .debug_str:00000000000006df .LASF92
C:\Users\Uzair\AppData\Local\Temp\ccG3yh17.s:5054   .debug_str:0000000000000529 .LASF93
C:\Users\Uzair\AppData\Local\Temp\ccG3yh17.s:5014   .debug_str:000000000000042d .LASF94
GAS LISTING C:\Users\Uzair\AppData\Local\Temp\ccG3yh17.s 			page 27


C:\Users\Uzair\AppData\Local\Temp\ccG3yh17.s:5212   .debug_str:0000000000000923 .LASF95
C:\Users\Uzair\AppData\Local\Temp\ccG3yh17.s:5256   .debug_str:00000000000009ff .LASF97
C:\Users\Uzair\AppData\Local\Temp\ccG3yh17.s:4972   .debug_str:0000000000000336 .LASF98
C:\Users\Uzair\AppData\Local\Temp\ccG3yh17.s:5134   .debug_str:00000000000006d6 .LASF99
C:\Users\Uzair\AppData\Local\Temp\ccG3yh17.s:4938   .debug_str:0000000000000273 .LASF100
C:\Users\Uzair\AppData\Local\Temp\ccG3yh17.s:4984   .debug_str:000000000000037a .LASF101
C:\Users\Uzair\AppData\Local\Temp\ccG3yh17.s:5248   .debug_str:00000000000009df .LASF102
C:\Users\Uzair\AppData\Local\Temp\ccG3yh17.s:4864   .debug_str:00000000000000ae .LASF103
C:\Users\Uzair\AppData\Local\Temp\ccG3yh17.s:5168   .debug_str:00000000000007bc .LASF104
C:\Users\Uzair\AppData\Local\Temp\ccG3yh17.s:5252   .debug_str:00000000000009ed .LASF105
C:\Users\Uzair\AppData\Local\Temp\ccG3yh17.s:5042   .debug_str:00000000000004e5 .LASF106
C:\Users\Uzair\AppData\Local\Temp\ccG3yh17.s:5114   .debug_str:0000000000000662 .LASF107
C:\Users\Uzair\AppData\Local\Temp\ccG3yh17.s:4888   .debug_str:000000000000013f .LASF108
C:\Users\Uzair\AppData\Local\Temp\ccG3yh17.s:5282   .debug_str:0000000000000a89 .LASF109
C:\Users\Uzair\AppData\Local\Temp\ccG3yh17.s:5102   .debug_str:0000000000000624 .LASF110
C:\Users\Uzair\AppData\Local\Temp\ccG3yh17.s:5024   .debug_str:0000000000000479 .LASF111
C:\Users\Uzair\AppData\Local\Temp\ccG3yh17.s:5190   .debug_str:0000000000000830 .LASF112
C:\Users\Uzair\AppData\Local\Temp\ccG3yh17.s:5058   .debug_str:0000000000000545 .LASF113
C:\Users\Uzair\AppData\Local\Temp\ccG3yh17.s:5064   .debug_str:000000000000056d .LASF114
C:\Users\Uzair\AppData\Local\Temp\ccG3yh17.s:5082   .debug_str:00000000000005bf .LASF116
C:\Users\Uzair\AppData\Local\Temp\ccG3yh17.s:4964   .debug_str:00000000000002fa .LASF117
C:\Users\Uzair\AppData\Local\Temp\ccG3yh17.s:4990   .debug_str:00000000000003a2 .LASF118
C:\Users\Uzair\AppData\Local\Temp\ccG3yh17.s:5004   .debug_str:00000000000003f5 .LASF119
C:\Users\Uzair\AppData\Local\Temp\ccG3yh17.s:5258   .debug_str:0000000000000a08 .LASF120
C:\Users\Uzair\AppData\Local\Temp\ccG3yh17.s:5128   .debug_str:00000000000006b1 .LASF121
C:\Users\Uzair\AppData\Local\Temp\ccG3yh17.s:4976   .debug_str:000000000000034e .LASF122
C:\Users\Uzair\AppData\Local\Temp\ccG3yh17.s:4960   .debug_str:00000000000002e5 .LASF123
C:\Users\Uzair\AppData\Local\Temp\ccG3yh17.s:4880   .debug_str:0000000000000108 .LASF124
C:\Users\Uzair\AppData\Local\Temp\ccG3yh17.s:4862   .debug_str:00000000000000a3 .LASF125
C:\Users\Uzair\AppData\Local\Temp\ccG3yh17.s:4978   .debug_str:000000000000035b .LASF126
C:\Users\Uzair\AppData\Local\Temp\ccG3yh17.s:5268   .debug_str:0000000000000a43 .LASF127
C:\Users\Uzair\AppData\Local\Temp\ccG3yh17.s:5038   .debug_str:00000000000004c7 .LASF128
C:\Users\Uzair\AppData\Local\Temp\ccG3yh17.s:4980   .debug_str:0000000000000364 .LASF129
C:\Users\Uzair\AppData\Local\Temp\ccG3yh17.s:4866   .debug_str:00000000000000b6 .LASF130
C:\Users\Uzair\AppData\Local\Temp\ccG3yh17.s:5150   .debug_str:0000000000000770 .LASF131
C:\Users\Uzair\AppData\Local\Temp\ccG3yh17.s:5184   .debug_str:0000000000000812 .LASF132
C:\Users\Uzair\AppData\Local\Temp\ccG3yh17.s:5112   .debug_str:0000000000000658 .LASF133
C:\Users\Uzair\AppData\Local\Temp\ccG3yh17.s:5090   .debug_str:00000000000005e7 .LASF134
C:\Users\Uzair\AppData\Local\Temp\ccG3yh17.s:5174   .debug_str:00000000000007e5 .LASF135
C:\Users\Uzair\AppData\Local\Temp\ccG3yh17.s:5120   .debug_str:0000000000000686 .LASF136
C:\Users\Uzair\AppData\Local\Temp\ccG3yh17.s:5186   .debug_str:0000000000000821 .LASF137
C:\Users\Uzair\AppData\Local\Temp\ccG3yh17.s:5288   .debug_str:0000000000000aaf .LASF138
C:\Users\Uzair\AppData\Local\Temp\ccG3yh17.s:4952   .debug_str:00000000000002bc .LASF139
C:\Users\Uzair\AppData\Local\Temp\ccG3yh17.s:5086   .debug_str:00000000000005d1 .LASF140
C:\Users\Uzair\AppData\Local\Temp\ccG3yh17.s:5242   .debug_str:00000000000009c8 .LASF141
C:\Users\Uzair\AppData\Local\Temp\ccG3yh17.s:4970   .debug_str:0000000000000324 .LASF142
C:\Users\Uzair\AppData\Local\Temp\ccG3yh17.s:5210   .debug_str:0000000000000912 .LASF143
C:\Users\Uzair\AppData\Local\Temp\ccG3yh17.s:5198   .debug_str:000000000000085c .LASF144
C:\Users\Uzair\AppData\Local\Temp\ccG3yh17.s:5096   .debug_str:00000000000005ff .LASF145
C:\Users\Uzair\AppData\Local\Temp\ccG3yh17.s:5046   .debug_str:0000000000000503 .LASF146
C:\Users\Uzair\AppData\Local\Temp\ccG3yh17.s:5144   .debug_str:0000000000000753 .LASF147
C:\Users\Uzair\AppData\Local\Temp\ccG3yh17.s:5278   .debug_str:0000000000000a70 .LASF148
C:\Users\Uzair\AppData\Local\Temp\ccG3yh17.s:4912   .debug_str:00000000000001e3 .LASF149
C:\Users\Uzair\AppData\Local\Temp\ccG3yh17.s:5216   .debug_str:000000000000093e .LASF150
C:\Users\Uzair\AppData\Local\Temp\ccG3yh17.s:5270   .debug_str:0000000000000a4a .LASF151
C:\Users\Uzair\AppData\Local\Temp\ccG3yh17.s:4998   .debug_str:00000000000003cf .LASF152
C:\Users\Uzair\AppData\Local\Temp\ccG3yh17.s:5232   .debug_str:000000000000099f .LASF153
GAS LISTING C:\Users\Uzair\AppData\Local\Temp\ccG3yh17.s 			page 28


C:\Users\Uzair\AppData\Local\Temp\ccG3yh17.s:5012   .debug_str:0000000000000424 .LASF154
C:\Users\Uzair\AppData\Local\Temp\ccG3yh17.s:5052   .debug_str:0000000000000520 .LASF155
C:\Users\Uzair\AppData\Local\Temp\ccG3yh17.s:4936   .debug_str:0000000000000268 .LASF156
C:\Users\Uzair\AppData\Local\Temp\ccG3yh17.s:4874   .debug_str:00000000000000e4 .LASF157
C:\Users\Uzair\AppData\Local\Temp\ccG3yh17.s:5234   .debug_str:00000000000009a7 .LASF158
C:\Users\Uzair\AppData\Local\Temp\ccG3yh17.s:4930   .debug_str:000000000000024b .LASF159
C:\Users\Uzair\AppData\Local\Temp\ccG3yh17.s:5104   .debug_str:0000000000000635 .LASF160
C:\Users\Uzair\AppData\Local\Temp\ccG3yh17.s:5028   .debug_str:0000000000000491 .LASF161
C:\Users\Uzair\AppData\Local\Temp\ccG3yh17.s:5166   .debug_str:00000000000007b7 .LASF162
C:\Users\Uzair\AppData\Local\Temp\ccG3yh17.s:4850   .debug_str:0000000000000057 .LASF163
C:\Users\Uzair\AppData\Local\Temp\ccG3yh17.s:4996   .debug_str:00000000000003c7 .LASF164
C:\Users\Uzair\AppData\Local\Temp\ccG3yh17.s:5010   .debug_str:000000000000041a .LASF165
C:\Users\Uzair\AppData\Local\Temp\ccG3yh17.s:5094   .debug_str:00000000000005fa .LASF166
C:\Users\Uzair\AppData\Local\Temp\ccG3yh17.s:5156   .debug_str:0000000000000789 .LASF167
C:\Users\Uzair\AppData\Local\Temp\ccG3yh17.s:5074   .debug_str:000000000000059b .LASF168
C:\Users\Uzair\AppData\Local\Temp\ccG3yh17.s:5016   .debug_str:000000000000043e .LASF169
C:\Users\Uzair\AppData\Local\Temp\ccG3yh17.s:4962   .debug_str:00000000000002f1 .LASF170
C:\Users\Uzair\AppData\Local\Temp\ccG3yh17.s:4876   .debug_str:00000000000000ef .LASF171
C:\Users\Uzair\AppData\Local\Temp\ccG3yh17.s:4986   .debug_str:0000000000000381 .LASF172
C:\Users\Uzair\AppData\Local\Temp\ccG3yh17.s:4898   .debug_str:000000000000017d .LASF173
C:\Users\Uzair\AppData\Local\Temp\ccG3yh17.s:5148   .debug_str:0000000000000762 .LASF174
C:\Users\Uzair\AppData\Local\Temp\ccG3yh17.s:5180   .debug_str:0000000000000800 .LASF175
C:\Users\Uzair\AppData\Local\Temp\ccG3yh17.s:4894   .debug_str:0000000000000166 .LASF176
C:\Users\Uzair\AppData\Local\Temp\ccG3yh17.s:5266   .debug_str:0000000000000a38 .LASF177
C:\Users\Uzair\AppData\Local\Temp\ccG3yh17.s:4926   .debug_str:000000000000022d .LASF178
C:\Users\Uzair\AppData\Local\Temp\ccG3yh17.s:5254   .debug_str:00000000000009f5 .LASF179
C:\Users\Uzair\AppData\Local\Temp\ccG3yh17.s:4882   .debug_str:0000000000000112 .LASF180
C:\Users\Uzair\AppData\Local\Temp\ccG3yh17.s:5080   .debug_str:00000000000005ba .LASF181
C:\Users\Uzair\AppData\Local\Temp\ccG3yh17.s:5154   .debug_str:0000000000000781 .LASF182
C:\Users\Uzair\AppData\Local\Temp\ccG3yh17.s:4858   .debug_str:000000000000008f .LASF183
C:\Users\Uzair\AppData\Local\Temp\ccG3yh17.s:5284   .debug_str:0000000000000a90 .LASF184
C:\Users\Uzair\AppData\Local\Temp\ccG3yh17.s:5040   .debug_str:00000000000004d5 .LASF185
C:\Users\Uzair\AppData\Local\Temp\ccG3yh17.s:5228   .debug_str:000000000000097f .LASF186
C:\Users\Uzair\AppData\Local\Temp\ccG3yh17.s:5280   .debug_str:0000000000000a7c .LASF187
C:\Users\Uzair\AppData\Local\Temp\ccG3yh17.s:4968   .debug_str:0000000000000315 .LASF188
C:\Users\Uzair\AppData\Local\Temp\ccG3yh17.s:5126   .debug_str:00000000000006a1 .LASF189
C:\Users\Uzair\AppData\Local\Temp\ccG3yh17.s:4906   .debug_str:00000000000001bb .LASF190
C:\Users\Uzair\AppData\Local\Temp\ccG3yh17.s:4928   .debug_str:000000000000023b .LASF191
C:\Users\Uzair\AppData\Local\Temp\ccG3yh17.s:571    .text.usbd_disconnect:0000000000000000 .LFB14
C:\Users\Uzair\AppData\Local\Temp\ccG3yh17.s:599    .text.usbd_disconnect:000000000000001a .LFE14
C:\Users\Uzair\AppData\Local\Temp\ccG3yh17.s:4009   .debug_loc:0000000000000000 .LLST39
C:\Users\Uzair\AppData\Local\Temp\ccG3yh17.s:4994   .debug_str:00000000000003c2 .LASF193
C:\Users\Uzair\AppData\Local\Temp\ccG3yh17.s:4027   .debug_loc:000000000000002c .LLST40
C:\Users\Uzair\AppData\Local\Temp\ccG3yh17.s:584    .text.usbd_disconnect:000000000000000c .LVL53
C:\Users\Uzair\AppData\Local\Temp\ccG3yh17.s:597    .text.usbd_disconnect:000000000000001a .LVL54
C:\Users\Uzair\AppData\Local\Temp\ccG3yh17.s:4934   .debug_str:000000000000025b .LASF192
C:\Users\Uzair\AppData\Local\Temp\ccG3yh17.s:536    .text.usbd_connect:0000000000000000 .LFB13
C:\Users\Uzair\AppData\Local\Temp\ccG3yh17.s:564    .text.usbd_connect:000000000000001a .LFE13
C:\Users\Uzair\AppData\Local\Temp\ccG3yh17.s:4041   .debug_loc:000000000000004d .LLST37
C:\Users\Uzair\AppData\Local\Temp\ccG3yh17.s:4059   .debug_loc:0000000000000079 .LLST38
C:\Users\Uzair\AppData\Local\Temp\ccG3yh17.s:549    .text.usbd_connect:000000000000000c .LVL50
C:\Users\Uzair\AppData\Local\Temp\ccG3yh17.s:562    .text.usbd_connect:000000000000001a .LVL51
C:\Users\Uzair\AppData\Local\Temp\ccG3yh17.s:4856   .debug_str:000000000000007e .LASF197
C:\Users\Uzair\AppData\Local\Temp\ccG3yh17.s:514    .text.usbd_rxcount_get:0000000000000000 .LFB12
C:\Users\Uzair\AppData\Local\Temp\ccG3yh17.s:529    .text.usbd_rxcount_get:000000000000000e .LFE12
C:\Users\Uzair\AppData\Local\Temp\ccG3yh17.s:4073   .debug_loc:000000000000009a .LLST35
C:\Users\Uzair\AppData\Local\Temp\ccG3yh17.s:5162   .debug_str:00000000000007a9 .LASF194
GAS LISTING C:\Users\Uzair\AppData\Local\Temp\ccG3yh17.s 			page 29


C:\Users\Uzair\AppData\Local\Temp\ccG3yh17.s:4087   .debug_loc:00000000000000bb .LLST36
C:\Users\Uzair\AppData\Local\Temp\ccG3yh17.s:5006   .debug_str:0000000000000405 .LASF195
C:\Users\Uzair\AppData\Local\Temp\ccG3yh17.s:499    .text.usbd_addr_set:0000000000000000 .LFB11
C:\Users\Uzair\AppData\Local\Temp\ccG3yh17.s:507    .text.usbd_addr_set:0000000000000008 .LFE11
C:\Users\Uzair\AppData\Local\Temp\ccG3yh17.s:4101   .debug_loc:00000000000000dc .LLST33
C:\Users\Uzair\AppData\Local\Temp\ccG3yh17.s:4868   .debug_str:00000000000000c1 .LASF196
C:\Users\Uzair\AppData\Local\Temp\ccG3yh17.s:4115   .debug_loc:00000000000000fd .LLST34
C:\Users\Uzair\AppData\Local\Temp\ccG3yh17.s:505    .text.usbd_addr_set:0000000000000008 .LVL45
C:\Users\Uzair\AppData\Local\Temp\ccG3yh17.s:5262   .debug_str:0000000000000a1f .LASF198
C:\Users\Uzair\AppData\Local\Temp\ccG3yh17.s:448    .text.usbd_fifo_flush:0000000000000000 .LFB10
C:\Users\Uzair\AppData\Local\Temp\ccG3yh17.s:492    .text.usbd_fifo_flush:000000000000002e .LFE10
C:\Users\Uzair\AppData\Local\Temp\ccG3yh17.s:4129   .debug_loc:000000000000011e .LLST30
C:\Users\Uzair\AppData\Local\Temp\ccG3yh17.s:4152   .debug_loc:0000000000000156 .LLST31
C:\Users\Uzair\AppData\Local\Temp\ccG3yh17.s:4172   .debug_loc:0000000000000184 .LLST32
C:\Users\Uzair\AppData\Local\Temp\ccG3yh17.s:471    .text.usbd_fifo_flush:000000000000001c .LVL41
C:\Users\Uzair\AppData\Local\Temp\ccG3yh17.s:489    .text.usbd_fifo_flush:000000000000002c .LVL43
C:\Users\Uzair\AppData\Local\Temp\ccG3yh17.s:5060   .debug_str:000000000000054f .LASF199
C:\Users\Uzair\AppData\Local\Temp\ccG3yh17.s:384    .text.usbd_ep_stall_clear:0000000000000000 .LFB9
C:\Users\Uzair\AppData\Local\Temp\ccG3yh17.s:441    .text.usbd_ep_stall_clear:000000000000003e .LFE9
C:\Users\Uzair\AppData\Local\Temp\ccG3yh17.s:4197   .debug_loc:00000000000001be .LLST26
C:\Users\Uzair\AppData\Local\Temp\ccG3yh17.s:4220   .debug_loc:00000000000001f6 .LLST27
C:\Users\Uzair\AppData\Local\Temp\ccG3yh17.s:4238   .debug_loc:0000000000000222 .LLST28
C:\Users\Uzair\AppData\Local\Temp\ccG3yh17.s:5068   .debug_str:0000000000000581 .LASF201
C:\Users\Uzair\AppData\Local\Temp\ccG3yh17.s:4263   .debug_loc:000000000000025c .LLST29
C:\Users\Uzair\AppData\Local\Temp\ccG3yh17.s:418    .text.usbd_ep_stall_clear:000000000000002a .LVL35
C:\Users\Uzair\AppData\Local\Temp\ccG3yh17.s:4982   .debug_str:000000000000036c .LASF200
C:\Users\Uzair\AppData\Local\Temp\ccG3yh17.s:319    .text.usbd_ep_stall:0000000000000000 .LFB8
C:\Users\Uzair\AppData\Local\Temp\ccG3yh17.s:377    .text.usbd_ep_stall:0000000000000040 .LFE8
C:\Users\Uzair\AppData\Local\Temp\ccG3yh17.s:4280   .debug_loc:0000000000000287 .LLST22
C:\Users\Uzair\AppData\Local\Temp\ccG3yh17.s:4303   .debug_loc:00000000000002bf .LLST23
C:\Users\Uzair\AppData\Local\Temp\ccG3yh17.s:4321   .debug_loc:00000000000002eb .LLST24
C:\Users\Uzair\AppData\Local\Temp\ccG3yh17.s:4346   .debug_loc:0000000000000325 .LLST25
C:\Users\Uzair\AppData\Local\Temp\ccG3yh17.s:354    .text.usbd_ep_stall:000000000000002c .LVL29
C:\Users\Uzair\AppData\Local\Temp\ccG3yh17.s:5196   .debug_str:000000000000084f .LASF202
C:\Users\Uzair\AppData\Local\Temp\ccG3yh17.s:256    .text.usbd_ep_send:0000000000000000 .LFB7
C:\Users\Uzair\AppData\Local\Temp\ccG3yh17.s:312    .text.usbd_ep_send:0000000000000040 .LFE7
C:\Users\Uzair\AppData\Local\Temp\ccG3yh17.s:4363   .debug_loc:0000000000000350 .LLST16
C:\Users\Uzair\AppData\Local\Temp\ccG3yh17.s:4381   .debug_loc:000000000000037c .LLST17
C:\Users\Uzair\AppData\Local\Temp\ccG3yh17.s:4395   .debug_loc:000000000000039d .LLST18
C:\Users\Uzair\AppData\Local\Temp\ccG3yh17.s:4840   .debug_str:000000000000002c .LASF203
C:\Users\Uzair\AppData\Local\Temp\ccG3yh17.s:4409   .debug_loc:00000000000003be .LLST19
C:\Users\Uzair\AppData\Local\Temp\ccG3yh17.s:4423   .debug_loc:00000000000003df .LLST20
C:\Users\Uzair\AppData\Local\Temp\ccG3yh17.s:4437   .debug_loc:0000000000000400 .LLST21
C:\Users\Uzair\AppData\Local\Temp\ccG3yh17.s:301    .text.usbd_ep_send:0000000000000038 .LVL25
C:\Users\Uzair\AppData\Local\Temp\ccG3yh17.s:4852   .debug_str:0000000000000067 .LASF204
C:\Users\Uzair\AppData\Local\Temp\ccG3yh17.s:193    .text.usbd_ep_recev:0000000000000000 .LFB6
C:\Users\Uzair\AppData\Local\Temp\ccG3yh17.s:249    .text.usbd_ep_recev:0000000000000040 .LFE6
C:\Users\Uzair\AppData\Local\Temp\ccG3yh17.s:4444   .debug_loc:0000000000000413 .LLST10
C:\Users\Uzair\AppData\Local\Temp\ccG3yh17.s:4462   .debug_loc:000000000000043f .LLST11
C:\Users\Uzair\AppData\Local\Temp\ccG3yh17.s:4476   .debug_loc:0000000000000460 .LLST12
C:\Users\Uzair\AppData\Local\Temp\ccG3yh17.s:4490   .debug_loc:0000000000000481 .LLST13
C:\Users\Uzair\AppData\Local\Temp\ccG3yh17.s:4504   .debug_loc:00000000000004a2 .LLST14
C:\Users\Uzair\AppData\Local\Temp\ccG3yh17.s:4518   .debug_loc:00000000000004c3 .LLST15
C:\Users\Uzair\AppData\Local\Temp\ccG3yh17.s:238    .text.usbd_ep_recev:0000000000000038 .LVL20
C:\Users\Uzair\AppData\Local\Temp\ccG3yh17.s:5276   .debug_str:0000000000000a62 .LASF205
C:\Users\Uzair\AppData\Local\Temp\ccG3yh17.s:132    .text.usbd_ep_clear:0000000000000000 .LFB5
C:\Users\Uzair\AppData\Local\Temp\ccG3yh17.s:186    .text.usbd_ep_clear:000000000000003a .LFE5
GAS LISTING C:\Users\Uzair\AppData\Local\Temp\ccG3yh17.s 			page 30


C:\Users\Uzair\AppData\Local\Temp\ccG3yh17.s:4525   .debug_loc:00000000000004d6 .LLST6
C:\Users\Uzair\AppData\Local\Temp\ccG3yh17.s:4548   .debug_loc:000000000000050e .LLST7
C:\Users\Uzair\AppData\Local\Temp\ccG3yh17.s:4566   .debug_loc:000000000000053a .LLST8
C:\Users\Uzair\AppData\Local\Temp\ccG3yh17.s:4591   .debug_loc:0000000000000574 .LLST9
C:\Users\Uzair\AppData\Local\Temp\ccG3yh17.s:163    .text.usbd_ep_clear:0000000000000026 .LVL13
C:\Users\Uzair\AppData\Local\Temp\ccG3yh17.s:4896   .debug_str:000000000000016f .LASF206
C:\Users\Uzair\AppData\Local\Temp\ccG3yh17.s:14     .text.usbd_ep_setup:0000000000000000 .LFB4
C:\Users\Uzair\AppData\Local\Temp\ccG3yh17.s:125    .text.usbd_ep_setup:000000000000009a .LFE4
C:\Users\Uzair\AppData\Local\Temp\ccG3yh17.s:4598   .debug_loc:0000000000000587 .LLST0
C:\Users\Uzair\AppData\Local\Temp\ccG3yh17.s:4621   .debug_loc:00000000000005bf .LLST1
C:\Users\Uzair\AppData\Local\Temp\ccG3yh17.s:5098   .debug_str:000000000000060c .LASF207
C:\Users\Uzair\AppData\Local\Temp\ccG3yh17.s:4639   .debug_loc:00000000000005eb .LLST2
C:\Users\Uzair\AppData\Local\Temp\ccG3yh17.s:4657   .debug_loc:0000000000000617 .LLST3
C:\Users\Uzair\AppData\Local\Temp\ccG3yh17.s:4668   .debug_loc:0000000000000635 .LLST4
C:\Users\Uzair\AppData\Local\Temp\ccG3yh17.s:4679   .debug_loc:0000000000000653 .LLST5
C:\Users\Uzair\AppData\Local\Temp\ccG3yh17.s:93     .text.usbd_ep_setup:0000000000000076 .LVL7
C:\Users\Uzair\AppData\Local\Temp\ccG3yh17.s:4942   .debug_str:0000000000000283 .LASF208
C:\Users\Uzair\AppData\Local\Temp\ccG3yh17.s:606    .text.usbd_init:0000000000000000 .LFB3
C:\Users\Uzair\AppData\Local\Temp\ccG3yh17.s:671    .text.usbd_init:000000000000005a .LFE3
C:\Users\Uzair\AppData\Local\Temp\ccG3yh17.s:4690   .debug_loc:0000000000000671 .LLST41
C:\Users\Uzair\AppData\Local\Temp\ccG3yh17.s:4708   .debug_loc:000000000000069d .LLST42
C:\Users\Uzair\AppData\Local\Temp\ccG3yh17.s:5142   .debug_str:000000000000074e .LASF209
C:\Users\Uzair\AppData\Local\Temp\ccG3yh17.s:4732   .debug_loc:00000000000006d6 .LLST43
C:\Users\Uzair\AppData\Local\Temp\ccG3yh17.s:4750   .debug_loc:0000000000000702 .LLST44
C:\Users\Uzair\AppData\Local\Temp\ccG3yh17.s:634    .text.usbd_init:000000000000001e .LVL58
C:\Users\Uzair\AppData\Local\Temp\ccG3yh17.s:640    .text.usbd_init:000000000000002c .LVL59
C:\Users\Uzair\AppData\Local\Temp\ccG3yh17.s:644    .text.usbd_init:0000000000000036 .LVL60
C:\Users\Uzair\AppData\Local\Temp\ccG3yh17.s:648    .text.usbd_init:0000000000000040 .LVL61
C:\Users\Uzair\AppData\Local\Temp\ccG3yh17.s:652    .text.usbd_init:000000000000004a .LVL62
C:\Users\Uzair\AppData\Local\Temp\ccG3yh17.s:4900   .debug_str:000000000000018c .LASF210
C:\Users\Uzair\AppData\Local\Temp\ccG3yh17.s:5076   .debug_str:00000000000005a4 .LASF211
C:\Users\Uzair\AppData\Local\Temp\ccG3yh17.s:5100   .debug_str:0000000000000614 .LASF212
C:\Users\Uzair\AppData\Local\Temp\ccG3yh17.s:4910   .debug_str:00000000000001d3 .LASF213
C:\Users\Uzair\AppData\Local\Temp\ccG3yh17.s:4902   .debug_str:000000000000019f .LASF214
C:\Users\Uzair\AppData\Local\Temp\ccG3yh17.s:5158   .debug_str:0000000000000790 .LASF215
C:\Users\Uzair\AppData\Local\Temp\ccG3yh17.s:5208   .debug_str:00000000000008fe .LASF216
C:\Users\Uzair\AppData\Local\Temp\ccG3yh17.s:5224   .debug_str:0000000000000965 .LASF217
C:\Users\Uzair\AppData\Local\Temp\ccG3yh17.s:5286   .debug_str:0000000000000a9d .LASF218
C:\Users\Uzair\AppData\Local\Temp\ccG3yh17.s:5230   .debug_str:000000000000098c .LASF219
C:\Users\Uzair\AppData\Local\Temp\ccG3yh17.s:4834   .debug_str:0000000000000000 .LASF220
C:\Users\Uzair\AppData\Local\Temp\ccG3yh17.s:4918   .debug_str:00000000000001fb .LASF221
C:\Users\Uzair\AppData\Local\Temp\ccG3yh17.s:5022   .debug_str:000000000000046a .LASF222
C:\Users\Uzair\AppData\Local\Temp\ccG3yh17.s:5218   .debug_str:0000000000000946 .LASF223
C:\Users\Uzair\AppData\Local\Temp\ccG3yh17.s:4884   .debug_str:000000000000011d .LASF224
C:\Users\Uzair\AppData\Local\Temp\ccG3yh17.s:578    .text.usbd_disconnect:0000000000000002 .LCFI21
C:\Users\Uzair\AppData\Local\Temp\ccG3yh17.s:593    .text.usbd_disconnect:0000000000000012 .LCFI22
C:\Users\Uzair\AppData\Local\Temp\ccG3yh17.s:574    .text.usbd_disconnect:0000000000000000 .LVL52
C:\Users\Uzair\AppData\Local\Temp\ccG3yh17.s:543    .text.usbd_connect:0000000000000002 .LCFI19
C:\Users\Uzair\AppData\Local\Temp\ccG3yh17.s:558    .text.usbd_connect:0000000000000012 .LCFI20
C:\Users\Uzair\AppData\Local\Temp\ccG3yh17.s:539    .text.usbd_connect:0000000000000000 .LVL49
C:\Users\Uzair\AppData\Local\Temp\ccG3yh17.s:517    .text.usbd_rxcount_get:0000000000000000 .LVL46
C:\Users\Uzair\AppData\Local\Temp\ccG3yh17.s:526    .text.usbd_rxcount_get:000000000000000c .LVL48
C:\Users\Uzair\AppData\Local\Temp\ccG3yh17.s:522    .text.usbd_rxcount_get:0000000000000006 .LVL47
C:\Users\Uzair\AppData\Local\Temp\ccG3yh17.s:502    .text.usbd_addr_set:0000000000000000 .LVL44
C:\Users\Uzair\AppData\Local\Temp\ccG3yh17.s:455    .text.usbd_fifo_flush:0000000000000002 .LCFI16
C:\Users\Uzair\AppData\Local\Temp\ccG3yh17.s:480    .text.usbd_fifo_flush:0000000000000022 .LCFI17
C:\Users\Uzair\AppData\Local\Temp\ccG3yh17.s:485    .text.usbd_fifo_flush:0000000000000024 .LCFI18
GAS LISTING C:\Users\Uzair\AppData\Local\Temp\ccG3yh17.s 			page 31


C:\Users\Uzair\AppData\Local\Temp\ccG3yh17.s:451    .text.usbd_fifo_flush:0000000000000000 .LVL38
C:\Users\Uzair\AppData\Local\Temp\ccG3yh17.s:465    .text.usbd_fifo_flush:000000000000000c .LVL39
C:\Users\Uzair\AppData\Local\Temp\ccG3yh17.s:469    .text.usbd_fifo_flush:0000000000000014 .LVL40
C:\Users\Uzair\AppData\Local\Temp\ccG3yh17.s:483    .text.usbd_fifo_flush:0000000000000024 .LVL42
C:\Users\Uzair\AppData\Local\Temp\ccG3yh17.s:392    .text.usbd_ep_stall_clear:0000000000000002 .LCFI13
C:\Users\Uzair\AppData\Local\Temp\ccG3yh17.s:426    .text.usbd_ep_stall_clear:0000000000000030 .LCFI14
C:\Users\Uzair\AppData\Local\Temp\ccG3yh17.s:431    .text.usbd_ep_stall_clear:0000000000000032 .LCFI15
C:\Users\Uzair\AppData\Local\Temp\ccG3yh17.s:387    .text.usbd_ep_stall_clear:0000000000000000 .LVL32
C:\Users\Uzair\AppData\Local\Temp\ccG3yh17.s:429    .text.usbd_ep_stall_clear:0000000000000032 .LVL36
C:\Users\Uzair\AppData\Local\Temp\ccG3yh17.s:405    .text.usbd_ep_stall_clear:0000000000000012 .LVL33
C:\Users\Uzair\AppData\Local\Temp\ccG3yh17.s:437    .text.usbd_ep_stall_clear:0000000000000038 .LVL37
C:\Users\Uzair\AppData\Local\Temp\ccG3yh17.s:412    .text.usbd_ep_stall_clear:000000000000001e .LVL34
C:\Users\Uzair\AppData\Local\Temp\ccG3yh17.s:327    .text.usbd_ep_stall:0000000000000002 .LCFI10
C:\Users\Uzair\AppData\Local\Temp\ccG3yh17.s:362    .text.usbd_ep_stall:0000000000000032 .LCFI11
C:\Users\Uzair\AppData\Local\Temp\ccG3yh17.s:367    .text.usbd_ep_stall:0000000000000034 .LCFI12
C:\Users\Uzair\AppData\Local\Temp\ccG3yh17.s:322    .text.usbd_ep_stall:0000000000000000 .LVL26
C:\Users\Uzair\AppData\Local\Temp\ccG3yh17.s:365    .text.usbd_ep_stall:0000000000000034 .LVL30
C:\Users\Uzair\AppData\Local\Temp\ccG3yh17.s:340    .text.usbd_ep_stall:0000000000000012 .LVL27
C:\Users\Uzair\AppData\Local\Temp\ccG3yh17.s:373    .text.usbd_ep_stall:000000000000003a .LVL31
C:\Users\Uzair\AppData\Local\Temp\ccG3yh17.s:347    .text.usbd_ep_stall:000000000000001e .LVL28
C:\Users\Uzair\AppData\Local\Temp\ccG3yh17.s:268    .text.usbd_ep_send:000000000000000c .LCFI8
C:\Users\Uzair\AppData\Local\Temp\ccG3yh17.s:308    .text.usbd_ep_send:000000000000003e .LCFI9
C:\Users\Uzair\AppData\Local\Temp\ccG3yh17.s:259    .text.usbd_ep_send:0000000000000000 .LVL21
C:\Users\Uzair\AppData\Local\Temp\ccG3yh17.s:264    .text.usbd_ep_send:0000000000000006 .LVL22
C:\Users\Uzair\AppData\Local\Temp\ccG3yh17.s:285    .text.usbd_ep_send:0000000000000026 .LVL23
C:\Users\Uzair\AppData\Local\Temp\ccG3yh17.s:288    .text.usbd_ep_send:0000000000000028 .LVL24
C:\Users\Uzair\AppData\Local\Temp\ccG3yh17.s:205    .text.usbd_ep_recev:000000000000000c .LCFI6
C:\Users\Uzair\AppData\Local\Temp\ccG3yh17.s:245    .text.usbd_ep_recev:000000000000003e .LCFI7
C:\Users\Uzair\AppData\Local\Temp\ccG3yh17.s:196    .text.usbd_ep_recev:0000000000000000 .LVL16
C:\Users\Uzair\AppData\Local\Temp\ccG3yh17.s:201    .text.usbd_ep_recev:0000000000000006 .LVL17
C:\Users\Uzair\AppData\Local\Temp\ccG3yh17.s:222    .text.usbd_ep_recev:0000000000000026 .LVL18
C:\Users\Uzair\AppData\Local\Temp\ccG3yh17.s:225    .text.usbd_ep_recev:0000000000000028 .LVL19
C:\Users\Uzair\AppData\Local\Temp\ccG3yh17.s:140    .text.usbd_ep_clear:0000000000000002 .LCFI3
C:\Users\Uzair\AppData\Local\Temp\ccG3yh17.s:171    .text.usbd_ep_clear:000000000000002c .LCFI4
C:\Users\Uzair\AppData\Local\Temp\ccG3yh17.s:176    .text.usbd_ep_clear:000000000000002e .LCFI5
C:\Users\Uzair\AppData\Local\Temp\ccG3yh17.s:135    .text.usbd_ep_clear:0000000000000000 .LVL10
C:\Users\Uzair\AppData\Local\Temp\ccG3yh17.s:174    .text.usbd_ep_clear:000000000000002e .LVL14
C:\Users\Uzair\AppData\Local\Temp\ccG3yh17.s:153    .text.usbd_ep_clear:0000000000000012 .LVL11
C:\Users\Uzair\AppData\Local\Temp\ccG3yh17.s:182    .text.usbd_ep_clear:0000000000000034 .LVL15
C:\Users\Uzair\AppData\Local\Temp\ccG3yh17.s:160    .text.usbd_ep_clear:000000000000001e .LVL12
C:\Users\Uzair\AppData\Local\Temp\ccG3yh17.s:23     .text.usbd_ep_setup:0000000000000002 .LCFI0
C:\Users\Uzair\AppData\Local\Temp\ccG3yh17.s:101    .text.usbd_ep_setup:000000000000007c .LCFI1
C:\Users\Uzair\AppData\Local\Temp\ccG3yh17.s:106    .text.usbd_ep_setup:000000000000007e .LCFI2
C:\Users\Uzair\AppData\Local\Temp\ccG3yh17.s:18     .text.usbd_ep_setup:0000000000000000 .LVL0
C:\Users\Uzair\AppData\Local\Temp\ccG3yh17.s:104    .text.usbd_ep_setup:000000000000007e .LVL8
C:\Users\Uzair\AppData\Local\Temp\ccG3yh17.s:80     .text.usbd_ep_setup:0000000000000058 .LVL6
C:\Users\Uzair\AppData\Local\Temp\ccG3yh17.s:54     .text.usbd_ep_setup:0000000000000034 .LVL3
C:\Users\Uzair\AppData\Local\Temp\ccG3yh17.s:118    .text.usbd_ep_setup:0000000000000090 .LVL9
C:\Users\Uzair\AppData\Local\Temp\ccG3yh17.s:32     .text.usbd_ep_setup:0000000000000010 .LVL1
C:\Users\Uzair\AppData\Local\Temp\ccG3yh17.s:64     .text.usbd_ep_setup:0000000000000042 .LVL4
C:\Users\Uzair\AppData\Local\Temp\ccG3yh17.s:37     .text.usbd_ep_setup:0000000000000014 .LVL2
C:\Users\Uzair\AppData\Local\Temp\ccG3yh17.s:67     .text.usbd_ep_setup:0000000000000046 .LVL5
C:\Users\Uzair\AppData\Local\Temp\ccG3yh17.s:613    .text.usbd_init:0000000000000002 .LCFI23
C:\Users\Uzair\AppData\Local\Temp\ccG3yh17.s:667    .text.usbd_init:0000000000000058 .LCFI24
C:\Users\Uzair\AppData\Local\Temp\ccG3yh17.s:609    .text.usbd_init:0000000000000000 .LVL55
C:\Users\Uzair\AppData\Local\Temp\ccG3yh17.s:662    .text.usbd_init:0000000000000054 .LVL63
C:\Users\Uzair\AppData\Local\Temp\ccG3yh17.s:665    .text.usbd_init:0000000000000056 .LVL64
GAS LISTING C:\Users\Uzair\AppData\Local\Temp\ccG3yh17.s 			page 32


C:\Users\Uzair\AppData\Local\Temp\ccG3yh17.s:629    .text.usbd_init:0000000000000014 .LVL57
C:\Users\Uzair\AppData\Local\Temp\ccG3yh17.s:627    .text.usbd_init:0000000000000012 .LVL56
C:\Users\Uzair\AppData\Local\Temp\ccG3yh17.s:696    .debug_info:0000000000000000 .Ldebug_info0

UNDEFINED SYMBOLS
usb_transc_active
usb_transc_deactivate
usb_transc_outxfer
usb_transc_inxfer
usb_transc_stall
usb_transc_clrstall
usb_txfifo_flush
usb_rxfifo_flush
usb_devaddr_set
usb_dev_connect
usb_mdelay
usb_dev_disconnect
usb_basic_init
usb_core_init
usb_devcore_init
