GAS LISTING C:\Users\Uzair\AppData\Local\Temp\ccy2jRBs.s 			page 1


   1              		.file	"usbd_enum.c"
   2              		.option nopic
   3              		.attribute arch, "rv32i2p0_m2p0_a2p0_c2p0"
   4              		.attribute unaligned_access, 0
   5              		.attribute stack_align, 16
   6              		.text
   7              	.Ltext0:
   8              		.cfi_sections	.debug_frame
   9              		.section	.text._usb_std_reserved,"ax",@progbits
  10              		.align	1
  12              	_usb_std_reserved:
  13              	.LFB6:
  14              		.file 1 "usbd_enum.c"
   1:usbd_enum.c   **** /*!
   2:usbd_enum.c   ****     \file  usbd_enum.c
   3:usbd_enum.c   ****     \brief USB enumeration function
   4:usbd_enum.c   **** 
   5:usbd_enum.c   ****     \version 2019-6-5, V1.0.0, firmware for GD32 USBFS&USBHS
   6:usbd_enum.c   **** */
   7:usbd_enum.c   **** 
   8:usbd_enum.c   **** /*
   9:usbd_enum.c   ****     Copyright (c) 2019, GigaDevice Semiconductor Inc.
  10:usbd_enum.c   **** 
  11:usbd_enum.c   ****     Redistribution and use in source and binary forms, with or without modification, 
  12:usbd_enum.c   **** are permitted provided that the following conditions are met:
  13:usbd_enum.c   **** 
  14:usbd_enum.c   ****     1. Redistributions of source code must retain the above copyright notice, this 
  15:usbd_enum.c   ****        list of conditions and the following disclaimer.
  16:usbd_enum.c   ****     2. Redistributions in binary form must reproduce the above copyright notice, 
  17:usbd_enum.c   ****        this list of conditions and the following disclaimer in the documentation 
  18:usbd_enum.c   ****        and/or other materials provided with the distribution.
  19:usbd_enum.c   ****     3. Neither the name of the copyright holder nor the names of its contributors 
  20:usbd_enum.c   ****        may be used to endorse or promote products derived from this software without 
  21:usbd_enum.c   ****        specific prior written permission.
  22:usbd_enum.c   **** 
  23:usbd_enum.c   ****     THIS SOFTWARE IS PROVIDED BY THE COPYRIGHT HOLDERS AND CONTRIBUTORS "AS IS" 
  24:usbd_enum.c   **** AND ANY EXPRESS OR IMPLIED WARRANTIES, INCLUDING, BUT NOT LIMITED TO, THE IMPLIED 
  25:usbd_enum.c   **** WARRANTIES OF MERCHANTABILITY AND FITNESS FOR A PARTICULAR PURPOSE ARE DISCLAIMED. 
  26:usbd_enum.c   **** IN NO EVENT SHALL THE COPYRIGHT HOLDER OR CONTRIBUTORS BE LIABLE FOR ANY DIRECT, 
  27:usbd_enum.c   **** INDIRECT, INCIDENTAL, SPECIAL, EXEMPLARY, OR CONSEQUENTIAL DAMAGES (INCLUDING, BUT 
  28:usbd_enum.c   **** NOT LIMITED TO, PROCUREMENT OF SUBSTITUTE GOODS OR SERVICES; LOSS OF USE, DATA, OR 
  29:usbd_enum.c   **** PROFITS; OR BUSINESS INTERRUPTION) HOWEVER CAUSED AND ON ANY THEORY OF LIABILITY, 
  30:usbd_enum.c   **** WHETHER IN CONTRACT, STRICT LIABILITY, OR TORT (INCLUDING NEGLIGENCE OR OTHERWISE) 
  31:usbd_enum.c   **** ARISING IN ANY WAY OUT OF THE USE OF THIS SOFTWARE, EVEN IF ADVISED OF THE POSSIBILITY 
  32:usbd_enum.c   **** OF SUCH DAMAGE.
  33:usbd_enum.c   **** */
  34:usbd_enum.c   **** 
  35:usbd_enum.c   **** #include "usbd_enum.h"
  36:usbd_enum.c   **** #include "usb_ch9_std.h"
  37:usbd_enum.c   **** 
  38:usbd_enum.c   **** static usb_reqsta _usb_std_getstatus        (usb_core_driver *udev, usb_req *req);
  39:usbd_enum.c   **** static usb_reqsta _usb_std_setaddress       (usb_core_driver *udev, usb_req *req);
  40:usbd_enum.c   **** static usb_reqsta _usb_std_setconfiguration (usb_core_driver *udev, usb_req *req);
  41:usbd_enum.c   **** static usb_reqsta _usb_std_getconfiguration (usb_core_driver *udev, usb_req *req);
  42:usbd_enum.c   **** static usb_reqsta _usb_std_getdescriptor    (usb_core_driver *udev, usb_req *req);
  43:usbd_enum.c   **** static usb_reqsta _usb_std_setfeature       (usb_core_driver *udev, usb_req *req);
  44:usbd_enum.c   **** static usb_reqsta _usb_std_clearfeature     (usb_core_driver *udev, usb_req *req);
GAS LISTING C:\Users\Uzair\AppData\Local\Temp\ccy2jRBs.s 			page 2


  45:usbd_enum.c   **** static usb_reqsta _usb_std_reserved         (usb_core_driver *udev, usb_req *req);
  46:usbd_enum.c   **** static usb_reqsta _usb_std_setdescriptor    (usb_core_driver *udev, usb_req *req);
  47:usbd_enum.c   **** static usb_reqsta _usb_std_getinterface     (usb_core_driver *udev, usb_req *req);
  48:usbd_enum.c   **** static usb_reqsta _usb_std_setinterface     (usb_core_driver *udev, usb_req *req);
  49:usbd_enum.c   **** static usb_reqsta _usb_std_synchframe       (usb_core_driver *udev, usb_req *req);
  50:usbd_enum.c   **** 
  51:usbd_enum.c   **** static uint8_t* _usb_dev_desc_get     (usb_core_driver *udev, uint8_t index, uint16_t *len);
  52:usbd_enum.c   **** static uint8_t* _usb_config_desc_get  (usb_core_driver *udev, uint8_t index, uint16_t *len);
  53:usbd_enum.c   **** static uint8_t* _usb_str_desc_get     (usb_core_driver *udev, uint8_t index, uint16_t *len);
  54:usbd_enum.c   **** static uint8_t* _usb_bos_desc_get     (usb_core_driver *udev, uint8_t index, uint16_t *len);
  55:usbd_enum.c   **** 
  56:usbd_enum.c   **** static usb_reqsta (*_std_dev_req[])(usb_core_driver *udev, usb_req *req) =
  57:usbd_enum.c   **** {
  58:usbd_enum.c   ****     [USB_GET_STATUS]        = _usb_std_getstatus,
  59:usbd_enum.c   ****     [USB_CLEAR_FEATURE]     = _usb_std_clearfeature,
  60:usbd_enum.c   ****     [USB_RESERVED2]         = _usb_std_reserved,
  61:usbd_enum.c   ****     [USB_SET_FEATURE]       = _usb_std_setfeature,
  62:usbd_enum.c   ****     [USB_RESERVED4]         = _usb_std_reserved,
  63:usbd_enum.c   ****     [USB_SET_ADDRESS]       = _usb_std_setaddress,
  64:usbd_enum.c   ****     [USB_GET_DESCRIPTOR]    = _usb_std_getdescriptor,
  65:usbd_enum.c   ****     [USB_SET_DESCRIPTOR]    = _usb_std_setdescriptor,
  66:usbd_enum.c   ****     [USB_GET_CONFIGURATION] = _usb_std_getconfiguration,
  67:usbd_enum.c   ****     [USB_SET_CONFIGURATION] = _usb_std_setconfiguration,
  68:usbd_enum.c   ****     [USB_GET_INTERFACE]     = _usb_std_getinterface,
  69:usbd_enum.c   ****     [USB_SET_INTERFACE]     = _usb_std_setinterface,
  70:usbd_enum.c   ****     [USB_SYNCH_FRAME]       = _usb_std_synchframe,
  71:usbd_enum.c   **** };
  72:usbd_enum.c   **** 
  73:usbd_enum.c   **** /* get standard descriptor handler */
  74:usbd_enum.c   **** static uint8_t* (*std_desc_get[])(usb_core_driver *udev, uint8_t index, uint16_t *len) = {
  75:usbd_enum.c   ****     [USB_DESCTYPE_DEV - 1]    = _usb_dev_desc_get,
  76:usbd_enum.c   ****     [USB_DESCTYPE_CONFIG - 1] = _usb_config_desc_get,
  77:usbd_enum.c   ****     [USB_DESCTYPE_STR - 1]    = _usb_str_desc_get
  78:usbd_enum.c   **** };
  79:usbd_enum.c   **** 
  80:usbd_enum.c   **** /*!
  81:usbd_enum.c   ****     \brief      handle USB standard device request
  82:usbd_enum.c   ****     \param[in]  udev: pointer to USB device instance
  83:usbd_enum.c   ****     \param[in]  req: pointer to USB device request
  84:usbd_enum.c   ****     \param[out] none
  85:usbd_enum.c   ****     \retval     USB device request status
  86:usbd_enum.c   **** */
  87:usbd_enum.c   **** usb_reqsta  usbd_standard_request (usb_core_driver *udev, usb_req *req)
  88:usbd_enum.c   **** {
  89:usbd_enum.c   ****     return (*_std_dev_req[req->bRequest])(udev, req);
  90:usbd_enum.c   **** }
  91:usbd_enum.c   **** 
  92:usbd_enum.c   **** /*!
  93:usbd_enum.c   ****     \brief      handle USB device class request
  94:usbd_enum.c   ****     \param[in]  udev: pointer to USB device instance
  95:usbd_enum.c   ****     \param[in]  req: pointer to USB device class request
  96:usbd_enum.c   ****     \param[out] none
  97:usbd_enum.c   ****     \retval     USB device request status
  98:usbd_enum.c   **** */
  99:usbd_enum.c   **** usb_reqsta  usbd_class_request (usb_core_driver *udev, usb_req *req)
 100:usbd_enum.c   **** {
 101:usbd_enum.c   ****     if (USBD_CONFIGURED == udev->dev.cur_status) {
GAS LISTING C:\Users\Uzair\AppData\Local\Temp\ccy2jRBs.s 			page 3


 102:usbd_enum.c   ****         if (BYTE_LOW(req->wIndex) <= USBD_ITF_MAX_NUM) {
 103:usbd_enum.c   ****             /* call device class handle function */
 104:usbd_enum.c   ****             return (usb_reqsta)udev->dev.class_core->req_proc(udev, req);
 105:usbd_enum.c   ****         }
 106:usbd_enum.c   ****     }
 107:usbd_enum.c   **** 
 108:usbd_enum.c   ****     return REQ_NOTSUPP;
 109:usbd_enum.c   **** }
 110:usbd_enum.c   **** 
 111:usbd_enum.c   **** /*!
 112:usbd_enum.c   ****     \brief      handle USB vendor request
 113:usbd_enum.c   ****     \param[in]  udev: pointer to USB device instance
 114:usbd_enum.c   ****     \param[in]  req: pointer to USB vendor request
 115:usbd_enum.c   ****     \param[out] none
 116:usbd_enum.c   ****     \retval     USB device request status
 117:usbd_enum.c   **** */
 118:usbd_enum.c   **** usb_reqsta  usbd_vendor_request (usb_core_driver *udev, usb_req *req)
 119:usbd_enum.c   **** {
 120:usbd_enum.c   ****     /* added by user... */
 121:usbd_enum.c   **** 
 122:usbd_enum.c   ****     return REQ_SUPP;
 123:usbd_enum.c   **** }
 124:usbd_enum.c   **** 
 125:usbd_enum.c   **** /*!
 126:usbd_enum.c   ****     \brief      no operation, just for reserved
 127:usbd_enum.c   ****     \param[in]  udev: pointer to USB device instance
 128:usbd_enum.c   ****     \param[in]  req: pointer to USB vendor request
 129:usbd_enum.c   ****     \param[out] none
 130:usbd_enum.c   ****     \retval     USB device request status
 131:usbd_enum.c   **** */
 132:usbd_enum.c   **** static usb_reqsta _usb_std_reserved (usb_core_driver *udev, usb_req *req)
 133:usbd_enum.c   **** {
  15              		.loc 1 133 1
  16              		.cfi_startproc
  17              	.LVL0:
 134:usbd_enum.c   ****     /* no operation... */
 135:usbd_enum.c   **** 
 136:usbd_enum.c   ****     return REQ_NOTSUPP;
  18              		.loc 1 136 5
 137:usbd_enum.c   **** }
  19              		.loc 1 137 1 is_stmt 0
  20 0000 0545     		li	a0,1
  21              	.LVL1:
  22 0002 8280     		ret
  23              		.cfi_endproc
  24              	.LFE6:
  26              		.section	.text._usb_dev_desc_get,"ax",@progbits
  27              		.align	1
  29              	_usb_dev_desc_get:
  30              	.LFB7:
 138:usbd_enum.c   **** 
 139:usbd_enum.c   **** /*!
 140:usbd_enum.c   ****     \brief      get the device descriptor
 141:usbd_enum.c   ****     \param[in]  udev: pointer to USB device instance
 142:usbd_enum.c   ****     \param[in]  index: no use
 143:usbd_enum.c   ****     \param[out] len: data length pointer
 144:usbd_enum.c   ****     \retval     descriptor buffer pointer
GAS LISTING C:\Users\Uzair\AppData\Local\Temp\ccy2jRBs.s 			page 4


 145:usbd_enum.c   **** */
 146:usbd_enum.c   **** static uint8_t* _usb_dev_desc_get (usb_core_driver *udev, uint8_t index, uint16_t *len)
 147:usbd_enum.c   **** {
  31              		.loc 1 147 1 is_stmt 1
  32              		.cfi_startproc
  33              	.LVL2:
 148:usbd_enum.c   ****     *len = udev->dev.desc.dev_desc[0];
  34              		.loc 1 148 5
  35              		.loc 1 148 26 is_stmt 0
  36 0000 03254541 		lw	a0,1044(a0)
  37              	.LVL3:
  38              		.loc 1 148 35
  39 0004 83470500 		lbu	a5,0(a0)
  40 0008 2310F600 		sh	a5,0(a2)
 149:usbd_enum.c   **** 
 150:usbd_enum.c   ****     return udev->dev.desc.dev_desc;
  41              		.loc 1 150 5 is_stmt 1
 151:usbd_enum.c   **** }
  42              		.loc 1 151 1 is_stmt 0
  43 000c 8280     		ret
  44              		.cfi_endproc
  45              	.LFE7:
  47              		.section	.text._usb_config_desc_get,"ax",@progbits
  48              		.align	1
  50              	_usb_config_desc_get:
  51              	.LFB8:
 152:usbd_enum.c   **** 
 153:usbd_enum.c   **** /*!
 154:usbd_enum.c   ****     \brief      get the configuration descriptor
 155:usbd_enum.c   ****     \brief[in]  udev: pointer to USB device instance
 156:usbd_enum.c   ****     \brief[in]  index: no use
 157:usbd_enum.c   ****     \param[out] len: data length pointer
 158:usbd_enum.c   ****     \retval     descriptor buffer pointer
 159:usbd_enum.c   **** */
 160:usbd_enum.c   **** static uint8_t* _usb_config_desc_get (usb_core_driver *udev, uint8_t index, uint16_t *len)
 161:usbd_enum.c   **** {
  52              		.loc 1 161 1 is_stmt 1
  53              		.cfi_startproc
  54              	.LVL4:
 162:usbd_enum.c   ****     *len = udev->dev.desc.config_desc[2];
  55              		.loc 1 162 5
  56              		.loc 1 162 26 is_stmt 0
  57 0000 03258541 		lw	a0,1048(a0)
  58              	.LVL5:
  59              		.loc 1 162 38
  60 0004 83472500 		lbu	a5,2(a0)
  61 0008 2310F600 		sh	a5,0(a2)
 163:usbd_enum.c   **** 
 164:usbd_enum.c   ****     return udev->dev.desc.config_desc;
  62              		.loc 1 164 5 is_stmt 1
 165:usbd_enum.c   **** }
  63              		.loc 1 165 1 is_stmt 0
  64 000c 8280     		ret
  65              		.cfi_endproc
  66              	.LFE8:
  68              		.section	.text._usb_str_desc_get,"ax",@progbits
  69              		.align	1
GAS LISTING C:\Users\Uzair\AppData\Local\Temp\ccy2jRBs.s 			page 5


  71              	_usb_str_desc_get:
  72              	.LFB10:
 166:usbd_enum.c   **** 
 167:usbd_enum.c   **** /*!
 168:usbd_enum.c   ****     \brief      get the BOS descriptor
 169:usbd_enum.c   ****     \brief[in]  udev: pointer to USB device instance
 170:usbd_enum.c   ****     \brief[in]  index: no use
 171:usbd_enum.c   ****     \param[out] len: data length pointer
 172:usbd_enum.c   ****     \retval     descriptor buffer pointer
 173:usbd_enum.c   **** */
 174:usbd_enum.c   **** static uint8_t* _usb_bos_desc_get (usb_core_driver *udev, uint8_t index, uint16_t *len)
 175:usbd_enum.c   **** {
 176:usbd_enum.c   ****     *len = udev->dev.desc.bos_desc[2];
 177:usbd_enum.c   **** 
 178:usbd_enum.c   ****     return udev->dev.desc.bos_desc;
 179:usbd_enum.c   **** }
 180:usbd_enum.c   **** 
 181:usbd_enum.c   **** /*!
 182:usbd_enum.c   ****     \brief      get string descriptor
 183:usbd_enum.c   ****     \param[in]  udev: pointer to USB device instance
 184:usbd_enum.c   ****     \param[in]  index: string descriptor index
 185:usbd_enum.c   ****     \param[out] len: pointer to string length
 186:usbd_enum.c   ****     \retval     descriptor buffer pointer
 187:usbd_enum.c   **** */
 188:usbd_enum.c   **** static uint8_t* _usb_str_desc_get (usb_core_driver *udev, uint8_t index, uint16_t *len)
 189:usbd_enum.c   **** {
  73              		.loc 1 189 1 is_stmt 1
  74              		.cfi_startproc
  75              	.LVL6:
 190:usbd_enum.c   ****     uint8_t *desc = udev->dev.desc.strings[index];
  76              		.loc 1 190 5
  77              		.loc 1 190 14 is_stmt 0
  78 0000 83270542 		lw	a5,1056(a0)
  79 0004 8A05     		slli	a1,a1,2
  80              	.LVL7:
  81 0006 AE97     		add	a5,a5,a1
  82 0008 8843     		lw	a0,0(a5)
  83              	.LVL8:
 191:usbd_enum.c   **** 
 192:usbd_enum.c   ****     *len = desc[0];
  84              		.loc 1 192 5 is_stmt 1
  85              		.loc 1 192 16 is_stmt 0
  86 000a 83470500 		lbu	a5,0(a0)
  87 000e 2310F600 		sh	a5,0(a2)
 193:usbd_enum.c   **** 
 194:usbd_enum.c   ****     return desc;
  88              		.loc 1 194 5 is_stmt 1
 195:usbd_enum.c   **** }
  89              		.loc 1 195 1 is_stmt 0
  90 0012 8280     		ret
  91              		.cfi_endproc
  92              	.LFE10:
  94              		.section	.text._usb_std_getdescriptor,"ax",@progbits
  95              		.align	1
  97              	_usb_std_getdescriptor:
  98              	.LFB15:
 196:usbd_enum.c   **** 
GAS LISTING C:\Users\Uzair\AppData\Local\Temp\ccy2jRBs.s 			page 6


 197:usbd_enum.c   **** /*!
 198:usbd_enum.c   ****     \brief      handle Get_Status request
 199:usbd_enum.c   ****     \param[in]  udev: pointer to USB device instance
 200:usbd_enum.c   ****     \param[in]  req: pointer to USB device request
 201:usbd_enum.c   ****     \param[out] none
 202:usbd_enum.c   ****     \retval     USB device request status
 203:usbd_enum.c   **** */
 204:usbd_enum.c   **** static usb_reqsta _usb_std_getstatus (usb_core_driver *udev, usb_req *req)
 205:usbd_enum.c   **** {
 206:usbd_enum.c   ****     uint8_t recp = BYTE_LOW(req->wIndex);
 207:usbd_enum.c   **** 
 208:usbd_enum.c   ****     usb_transc *transc = &udev->dev.transc_in[0];
 209:usbd_enum.c   **** 
 210:usbd_enum.c   ****     static uint8_t status[2] = {0};
 211:usbd_enum.c   **** 
 212:usbd_enum.c   ****     switch(req->bmRequestType & USB_RECPTYPE_MASK) {
 213:usbd_enum.c   ****         case USB_RECPTYPE_DEV:
 214:usbd_enum.c   ****             if ((USBD_ADDRESSED == udev->dev.cur_status) || \
 215:usbd_enum.c   ****                 (USBD_CONFIGURED == udev->dev.cur_status)) {
 216:usbd_enum.c   **** 
 217:usbd_enum.c   ****                 if (udev->dev.pm.power_mode) {
 218:usbd_enum.c   ****                     status[0] = USB_STATUS_SELF_POWERED;
 219:usbd_enum.c   ****                 } else {
 220:usbd_enum.c   ****                     status[0] = 0U;
 221:usbd_enum.c   ****                 }
 222:usbd_enum.c   **** 
 223:usbd_enum.c   ****                 if (udev->dev.pm.dev_remote_wakeup) {
 224:usbd_enum.c   ****                     status[0] |= USB_STATUS_REMOTE_WAKEUP;
 225:usbd_enum.c   ****                 } else {
 226:usbd_enum.c   ****                     status[0] = 0U;
 227:usbd_enum.c   ****                 }
 228:usbd_enum.c   **** 
 229:usbd_enum.c   ****                 transc->xfer_buf = status;
 230:usbd_enum.c   ****                 transc->remain_len = 2U;
 231:usbd_enum.c   **** 
 232:usbd_enum.c   ****                 return REQ_SUPP;
 233:usbd_enum.c   ****             }
 234:usbd_enum.c   ****             break;
 235:usbd_enum.c   **** 
 236:usbd_enum.c   ****         case USB_RECPTYPE_ITF:
 237:usbd_enum.c   ****             if ((USBD_CONFIGURED == udev->dev.cur_status) && (recp <= USBD_ITF_MAX_NUM)) {
 238:usbd_enum.c   ****                 transc->xfer_buf = status;
 239:usbd_enum.c   ****                 transc->remain_len = 2U;
 240:usbd_enum.c   **** 
 241:usbd_enum.c   ****                 return REQ_SUPP;
 242:usbd_enum.c   ****             }
 243:usbd_enum.c   ****             break;
 244:usbd_enum.c   **** 
 245:usbd_enum.c   ****         case USB_RECPTYPE_EP:
 246:usbd_enum.c   ****             if (USBD_CONFIGURED == udev->dev.cur_status) {
 247:usbd_enum.c   ****                 if (0x80U == (recp & 0x80U)) {
 248:usbd_enum.c   ****                     status[0] = udev->dev.transc_in[EP_ID(recp)].ep_stall;
 249:usbd_enum.c   ****                 } else {
 250:usbd_enum.c   ****                     status[0] = udev->dev.transc_out[recp].ep_stall;
 251:usbd_enum.c   ****                 }
 252:usbd_enum.c   **** 
 253:usbd_enum.c   ****                 transc->xfer_buf = status;
GAS LISTING C:\Users\Uzair\AppData\Local\Temp\ccy2jRBs.s 			page 7


 254:usbd_enum.c   ****                 transc->remain_len = 2U;
 255:usbd_enum.c   **** 
 256:usbd_enum.c   ****                 return REQ_SUPP;
 257:usbd_enum.c   ****             }
 258:usbd_enum.c   ****             break;
 259:usbd_enum.c   **** 
 260:usbd_enum.c   ****         default:
 261:usbd_enum.c   ****             break;
 262:usbd_enum.c   ****     }
 263:usbd_enum.c   **** 
 264:usbd_enum.c   ****     return REQ_NOTSUPP;
 265:usbd_enum.c   **** }
 266:usbd_enum.c   **** 
 267:usbd_enum.c   **** /*!
 268:usbd_enum.c   ****     \brief      handle USB Clear_Feature request
 269:usbd_enum.c   ****     \param[in]  udev: pointer to USB device instance
 270:usbd_enum.c   ****     \param[in]  req: USB device request
 271:usbd_enum.c   ****     \param[out] none
 272:usbd_enum.c   ****     \retval     USB device request status
 273:usbd_enum.c   **** */
 274:usbd_enum.c   **** static usb_reqsta _usb_std_clearfeature (usb_core_driver *udev, usb_req *req)
 275:usbd_enum.c   **** {
 276:usbd_enum.c   ****     uint8_t ep = 0;
 277:usbd_enum.c   **** 
 278:usbd_enum.c   ****     switch(req->bmRequestType & USB_RECPTYPE_MASK)
 279:usbd_enum.c   ****     {
 280:usbd_enum.c   ****         case USB_RECPTYPE_DEV:
 281:usbd_enum.c   ****             if ((USBD_ADDRESSED == udev->dev.cur_status) || \
 282:usbd_enum.c   ****                 (USBD_CONFIGURED == udev->dev.cur_status)) {
 283:usbd_enum.c   **** 
 284:usbd_enum.c   ****                 /* clear device remote wakeup feature */
 285:usbd_enum.c   ****                 if (USB_FEATURE_REMOTE_WAKEUP == req->wValue) {
 286:usbd_enum.c   ****                     udev->dev.pm.dev_remote_wakeup = 0U;
 287:usbd_enum.c   **** 
 288:usbd_enum.c   ****                     return REQ_SUPP;
 289:usbd_enum.c   ****                 }
 290:usbd_enum.c   ****             }
 291:usbd_enum.c   ****             break;
 292:usbd_enum.c   **** 
 293:usbd_enum.c   ****         case USB_RECPTYPE_ITF:
 294:usbd_enum.c   ****             break;
 295:usbd_enum.c   **** 
 296:usbd_enum.c   ****         case USB_RECPTYPE_EP:
 297:usbd_enum.c   ****             /* get endpoint address */
 298:usbd_enum.c   ****             ep = BYTE_LOW(req->wIndex);
 299:usbd_enum.c   **** 
 300:usbd_enum.c   ****             if (USBD_CONFIGURED == udev->dev.cur_status) {
 301:usbd_enum.c   ****                 /* clear endpoint halt feature */
 302:usbd_enum.c   ****                 if ((USB_FEATURE_EP_HALT == req->wValue) && (!CTL_EP(ep))) {
 303:usbd_enum.c   ****                     usbd_ep_stall_clear (udev, ep);
 304:usbd_enum.c   **** 
 305:usbd_enum.c   ****                     udev->dev.class_core->req_proc (udev, req);
 306:usbd_enum.c   ****                 }
 307:usbd_enum.c   **** 
 308:usbd_enum.c   ****                 return REQ_SUPP;
 309:usbd_enum.c   ****             }
 310:usbd_enum.c   ****             break;
GAS LISTING C:\Users\Uzair\AppData\Local\Temp\ccy2jRBs.s 			page 8


 311:usbd_enum.c   **** 
 312:usbd_enum.c   ****         default:
 313:usbd_enum.c   ****             break;
 314:usbd_enum.c   ****     }
 315:usbd_enum.c   **** 
 316:usbd_enum.c   ****     return REQ_NOTSUPP;
 317:usbd_enum.c   **** }
 318:usbd_enum.c   **** 
 319:usbd_enum.c   **** /*!
 320:usbd_enum.c   ****     \brief      handle USB Set_Feature request
 321:usbd_enum.c   ****     \param[in]  udev: pointer to USB device instance
 322:usbd_enum.c   ****     \param[in]  req: pointer to USB device request
 323:usbd_enum.c   ****     \param[out] none
 324:usbd_enum.c   ****     \retval     USB device request status
 325:usbd_enum.c   **** */
 326:usbd_enum.c   **** static usb_reqsta _usb_std_setfeature (usb_core_driver *udev, usb_req *req)
 327:usbd_enum.c   **** {
 328:usbd_enum.c   ****     uint8_t ep = 0;
 329:usbd_enum.c   **** 
 330:usbd_enum.c   ****     switch(req->bmRequestType & USB_RECPTYPE_MASK)
 331:usbd_enum.c   ****     {
 332:usbd_enum.c   ****         case USB_RECPTYPE_DEV:
 333:usbd_enum.c   ****             if ((USBD_ADDRESSED == udev->dev.cur_status) || \
 334:usbd_enum.c   ****                 (USBD_CONFIGURED == udev->dev.cur_status)) {
 335:usbd_enum.c   ****                 /* set device remote wakeup feature */
 336:usbd_enum.c   ****                 if (USB_FEATURE_REMOTE_WAKEUP == req->wValue) {
 337:usbd_enum.c   ****                     udev->dev.pm.dev_remote_wakeup = 1U;
 338:usbd_enum.c   ****                 }
 339:usbd_enum.c   **** 
 340:usbd_enum.c   ****                 return REQ_SUPP;
 341:usbd_enum.c   ****             }
 342:usbd_enum.c   ****             break;
 343:usbd_enum.c   **** 
 344:usbd_enum.c   ****         case USB_RECPTYPE_ITF:
 345:usbd_enum.c   ****             break;
 346:usbd_enum.c   **** 
 347:usbd_enum.c   ****         case USB_RECPTYPE_EP:
 348:usbd_enum.c   ****             /* get endpoint address */
 349:usbd_enum.c   ****             ep = BYTE_LOW(req->wIndex);
 350:usbd_enum.c   **** 
 351:usbd_enum.c   ****             if (USBD_CONFIGURED == udev->dev.cur_status) {
 352:usbd_enum.c   ****                 /* set endpoint halt feature */
 353:usbd_enum.c   ****                 if ((USB_FEATURE_EP_HALT == req->wValue) && (!CTL_EP(ep))) {
 354:usbd_enum.c   ****                     usbd_ep_stall (udev, ep);
 355:usbd_enum.c   ****                 }
 356:usbd_enum.c   **** 
 357:usbd_enum.c   ****                 return REQ_SUPP;
 358:usbd_enum.c   ****             }
 359:usbd_enum.c   ****             break;
 360:usbd_enum.c   **** 
 361:usbd_enum.c   ****         default:
 362:usbd_enum.c   ****             break;
 363:usbd_enum.c   ****     }
 364:usbd_enum.c   **** 
 365:usbd_enum.c   ****     return REQ_NOTSUPP;
 366:usbd_enum.c   **** }
 367:usbd_enum.c   **** 
GAS LISTING C:\Users\Uzair\AppData\Local\Temp\ccy2jRBs.s 			page 9


 368:usbd_enum.c   **** /*!
 369:usbd_enum.c   ****     \brief      handle USB Set_Address request
 370:usbd_enum.c   ****     \param[in]  udev: pointer to USB device instance
 371:usbd_enum.c   ****     \param[in]  req: pointer to USB device request
 372:usbd_enum.c   ****     \param[out] none
 373:usbd_enum.c   ****     \retval     USB device request status
 374:usbd_enum.c   **** */
 375:usbd_enum.c   **** static usb_reqsta _usb_std_setaddress (usb_core_driver *udev, usb_req *req)
 376:usbd_enum.c   **** {
 377:usbd_enum.c   ****     if ((0U == req->wIndex) && (0U == req->wLength)) {
 378:usbd_enum.c   ****         udev->dev.dev_addr = (uint8_t)(req->wValue) & 0x7FU;
 379:usbd_enum.c   **** 
 380:usbd_enum.c   ****         if (udev->dev.cur_status != USBD_CONFIGURED) {
 381:usbd_enum.c   ****             usbd_addr_set (udev, udev->dev.dev_addr);
 382:usbd_enum.c   **** 
 383:usbd_enum.c   ****             if (udev->dev.dev_addr) {
 384:usbd_enum.c   ****                 udev->dev.cur_status = USBD_ADDRESSED;
 385:usbd_enum.c   ****             } else {
 386:usbd_enum.c   ****                 udev->dev.cur_status = USBD_DEFAULT;
 387:usbd_enum.c   ****             }
 388:usbd_enum.c   **** 
 389:usbd_enum.c   ****             return REQ_SUPP;
 390:usbd_enum.c   ****         }
 391:usbd_enum.c   ****     }
 392:usbd_enum.c   **** 
 393:usbd_enum.c   ****     return REQ_NOTSUPP;
 394:usbd_enum.c   **** }
 395:usbd_enum.c   **** 
 396:usbd_enum.c   **** /*!
 397:usbd_enum.c   ****     \brief      handle USB Get_Descriptor request
 398:usbd_enum.c   ****     \param[in]  udev: pointer to USB device instance
 399:usbd_enum.c   ****     \param[in]  req: pointer to USB device request
 400:usbd_enum.c   ****     \param[out] none
 401:usbd_enum.c   ****     \retval     USB device request status
 402:usbd_enum.c   **** */
 403:usbd_enum.c   **** static usb_reqsta _usb_std_getdescriptor (usb_core_driver *udev, usb_req *req)
 404:usbd_enum.c   **** {
  99              		.loc 1 404 1 is_stmt 1
 100              		.cfi_startproc
 101              	.LVL9:
 405:usbd_enum.c   ****     uint8_t desc_type = 0;
 102              		.loc 1 405 5
 406:usbd_enum.c   ****     uint8_t desc_index = 0;
 103              		.loc 1 406 5
 407:usbd_enum.c   **** 
 408:usbd_enum.c   ****     usb_transc *transc = &udev->dev.transc_in[0];
 104              		.loc 1 408 5
 409:usbd_enum.c   **** 
 410:usbd_enum.c   ****     /* get device standard descriptor */
 411:usbd_enum.c   ****     switch (req->bmRequestType & USB_RECPTYPE_MASK) {
 105              		.loc 1 411 5
 404:usbd_enum.c   ****     uint8_t desc_type = 0;
 106              		.loc 1 404 1 is_stmt 0
 107 0000 4111     		addi	sp,sp,-16
 108              	.LCFI0:
 109              		.cfi_def_cfa_offset 16
 110 0002 22C4     		sw	s0,8(sp)
GAS LISTING C:\Users\Uzair\AppData\Local\Temp\ccy2jRBs.s 			page 10


 111 0004 26C2     		sw	s1,4(sp)
 112 0006 06C6     		sw	ra,12(sp)
 113              		.cfi_offset 8, -8
 114              		.cfi_offset 9, -12
 115              		.cfi_offset 1, -4
 116 0008 83C70500 		lbu	a5,0(a1)
 404:usbd_enum.c   ****     uint8_t desc_type = 0;
 117              		.loc 1 404 1
 118 000c 2A84     		mv	s0,a0
 119 000e AE84     		mv	s1,a1
 120 0010 8D8B     		andi	a5,a5,3
 121              		.loc 1 411 5
 122 0012 8DCF     		beq	a5,zero,.L6
 123 0014 0547     		li	a4,1
 124 0016 6385E70C 		beq	a5,a4,.L7
 125              	.LVL10:
 126              	.L8:
 412:usbd_enum.c   ****     case USB_RECPTYPE_DEV:
 413:usbd_enum.c   ****         desc_type = BYTE_HIGH(req->wValue);
 414:usbd_enum.c   ****         desc_index = BYTE_LOW(req->wValue);
 415:usbd_enum.c   **** 
 416:usbd_enum.c   ****         switch (desc_type) {
 417:usbd_enum.c   ****         case USB_DESCTYPE_DEV:
 418:usbd_enum.c   ****             transc->xfer_buf = std_desc_get[desc_type - 1U](udev, desc_index, (uint16_t *)&(transc-
 419:usbd_enum.c   **** 
 420:usbd_enum.c   ****             if (64U == req->wLength) {
 421:usbd_enum.c   ****                 transc->remain_len = 8U;
 422:usbd_enum.c   ****             }
 423:usbd_enum.c   ****             break;
 424:usbd_enum.c   **** 
 425:usbd_enum.c   ****         case USB_DESCTYPE_CONFIG:
 426:usbd_enum.c   ****             transc->xfer_buf = std_desc_get[desc_type - 1U](udev, desc_index, (uint16_t *)&(transc-
 427:usbd_enum.c   ****             break;
 428:usbd_enum.c   **** 
 429:usbd_enum.c   ****         case USB_DESCTYPE_STR:
 430:usbd_enum.c   ****             if (desc_index < STR_IDX_MAX) {
 431:usbd_enum.c   ****                 transc->xfer_buf = std_desc_get[desc_type - 1U](udev, desc_index, (uint16_t *)&(tra
 432:usbd_enum.c   ****             }
 433:usbd_enum.c   ****             break;
 434:usbd_enum.c   **** 
 435:usbd_enum.c   ****         case USB_DESCTYPE_ITF:
 436:usbd_enum.c   ****         case USB_DESCTYPE_EP:
 437:usbd_enum.c   ****         case USB_DESCTYPE_DEV_QUALIFIER:
 438:usbd_enum.c   ****         case USB_DESCTYPE_OTHER_SPD_CONFIG:
 439:usbd_enum.c   ****         case USB_DESCTYPE_ITF_POWER:
 440:usbd_enum.c   ****             break;
 441:usbd_enum.c   **** 
 442:usbd_enum.c   ****         case USB_DESCTYPE_BOS:
 443:usbd_enum.c   ****             transc->xfer_buf = _usb_bos_desc_get(udev, desc_index, (uint16_t *)&(transc->remain_len
 444:usbd_enum.c   ****             break;
 445:usbd_enum.c   **** 
 446:usbd_enum.c   ****         default:
 447:usbd_enum.c   ****             break;
 448:usbd_enum.c   ****         }
 449:usbd_enum.c   ****         break;
 450:usbd_enum.c   **** 
 451:usbd_enum.c   ****     case USB_RECPTYPE_ITF:
GAS LISTING C:\Users\Uzair\AppData\Local\Temp\ccy2jRBs.s 			page 11


 452:usbd_enum.c   ****         /* get device class special descriptor */
 453:usbd_enum.c   ****         return (usb_reqsta)(udev->dev.class_core->req_proc(udev, req));
 454:usbd_enum.c   **** 
 455:usbd_enum.c   ****     case USB_RECPTYPE_EP:
 456:usbd_enum.c   ****         break;
 457:usbd_enum.c   **** 
 458:usbd_enum.c   ****     default:
 459:usbd_enum.c   ****         break;
 460:usbd_enum.c   ****     }
 461:usbd_enum.c   **** 
 462:usbd_enum.c   ****     if ((0U != transc->remain_len) && (0U != req->wLength)) {
 127              		.loc 1 462 5 is_stmt 1
 128              		.loc 1 462 22 is_stmt 0
 129 001a 0327C40D 		lw	a4,220(s0)
 463:usbd_enum.c   ****         if (transc->remain_len < req->wLength) {
 464:usbd_enum.c   ****             if ((transc->remain_len >= transc->max_len) && (0U == (transc->remain_len % transc->max
 465:usbd_enum.c   ****                 udev->dev.control.ctl_zlp = 1;
 466:usbd_enum.c   ****             }
 467:usbd_enum.c   ****         } else {
 468:usbd_enum.c   ****             transc->remain_len = req->wLength;
 469:usbd_enum.c   ****         }
 470:usbd_enum.c   **** 
 471:usbd_enum.c   ****         return REQ_SUPP;
 472:usbd_enum.c   ****     }
 473:usbd_enum.c   **** 
 474:usbd_enum.c   ****     return REQ_NOTSUPP;
 130              		.loc 1 474 12
 131 001e 0545     		li	a0,1
 462:usbd_enum.c   ****         if (transc->remain_len < req->wLength) {
 132              		.loc 1 462 8
 133 0020 61C7     		beq	a4,zero,.L5
 462:usbd_enum.c   ****         if (transc->remain_len < req->wLength) {
 134              		.loc 1 462 49 discriminator 1
 135 0022 83C77400 		lbu	a5,7(s1)
 136 0026 83C66400 		lbu	a3,6(s1)
 137 002a A207     		slli	a5,a5,8
 138 002c D58F     		or	a5,a5,a3
 462:usbd_enum.c   ****         if (transc->remain_len < req->wLength) {
 139              		.loc 1 462 36 discriminator 1
 140 002e CDCF     		beq	a5,zero,.L5
 463:usbd_enum.c   ****         if (transc->remain_len < req->wLength) {
 141              		.loc 1 463 9 is_stmt 1
 463:usbd_enum.c   ****         if (transc->remain_len < req->wLength) {
 142              		.loc 1 463 12 is_stmt 0
 143 0030 6371F70C 		bgeu	a4,a5,.L17
 464:usbd_enum.c   ****                 udev->dev.control.ctl_zlp = 1;
 144              		.loc 1 464 13 is_stmt 1
 464:usbd_enum.c   ****                 udev->dev.control.ctl_zlp = 1;
 145              		.loc 1 464 37 is_stmt 0
 146 0034 8357C40C 		lhu	a5,204(s0)
 471:usbd_enum.c   ****     }
 147              		.loc 1 471 16
 148 0038 0145     		li	a0,0
 464:usbd_enum.c   ****                 udev->dev.control.ctl_zlp = 1;
 149              		.loc 1 464 16
 150 003a 6367F70A 		bltu	a4,a5,.L5
 464:usbd_enum.c   ****                 udev->dev.control.ctl_zlp = 1;
GAS LISTING C:\Users\Uzair\AppData\Local\Temp\ccy2jRBs.s 			page 12


 151              		.loc 1 464 87 discriminator 1
 152 003e 3375F702 		remu	a0,a4,a5
 464:usbd_enum.c   ****                 udev->dev.control.ctl_zlp = 1;
 153              		.loc 1 464 57 discriminator 1
 154 0042 55E9     		bne	a0,zero,.L21
 465:usbd_enum.c   ****             }
 155              		.loc 1 465 17 is_stmt 1
 465:usbd_enum.c   ****             }
 156              		.loc 1 465 43 is_stmt 0
 157 0044 8547     		li	a5,1
 158 0046 A306F442 		sb	a5,1069(s0)
 159 004a 79A8     		j	.L5
 160              	.LVL11:
 161              	.L6:
 413:usbd_enum.c   ****         desc_index = BYTE_LOW(req->wValue);
 162              		.loc 1 413 9 is_stmt 1
 413:usbd_enum.c   ****         desc_index = BYTE_LOW(req->wValue);
 163              		.loc 1 413 21 is_stmt 0
 164 004c 83C72500 		lbu	a5,2(a1)
 165 0050 83C53500 		lbu	a1,3(a1)
 166 0054 0947     		li	a4,2
 167 0056 A205     		slli	a1,a1,8
 168 0058 DD8D     		or	a1,a1,a5
 413:usbd_enum.c   ****         desc_index = BYTE_LOW(req->wValue);
 169              		.loc 1 413 19
 170 005a 93D78500 		srli	a5,a1,8
 171              	.LVL12:
 414:usbd_enum.c   **** 
 172              		.loc 1 414 9 is_stmt 1
 414:usbd_enum.c   **** 
 173              		.loc 1 414 20 is_stmt 0
 174 005e 93F5F50F 		andi	a1,a1,0xff
 175              	.LVL13:
 416:usbd_enum.c   ****         case USB_DESCTYPE_DEV:
 176              		.loc 1 416 9 is_stmt 1
 177 0062 638CE704 		beq	a5,a4,.L9
 178 0066 636BF702 		bgtu	a5,a4,.L10
 179 006a 0547     		li	a4,1
 180 006c E397E7FA 		bne	a5,a4,.L8
 418:usbd_enum.c   **** 
 181              		.loc 1 418 13
 418:usbd_enum.c   **** 
 182              		.loc 1 418 32 is_stmt 0
 183 0070 1306C50D 		addi	a2,a0,220
 184 0074 97000000 		call	_usb_dev_desc_get
 184      E7800000 
 185              	.LVL14:
 418:usbd_enum.c   **** 
 186              		.loc 1 418 30
 187 007c 2328A40C 		sw	a0,208(s0)
 420:usbd_enum.c   ****                 transc->remain_len = 8U;
 188              		.loc 1 420 13 is_stmt 1
 420:usbd_enum.c   ****                 transc->remain_len = 8U;
 189              		.loc 1 420 27 is_stmt 0
 190 0080 83C77400 		lbu	a5,7(s1)
 191 0084 03C76400 		lbu	a4,6(s1)
 192 0088 A207     		slli	a5,a5,8
GAS LISTING C:\Users\Uzair\AppData\Local\Temp\ccy2jRBs.s 			page 13


 420:usbd_enum.c   ****                 transc->remain_len = 8U;
 193              		.loc 1 420 16
 194 008a D98F     		or	a5,a5,a4
 195 008c 13070004 		li	a4,64
 196 0090 E395E7F8 		bne	a5,a4,.L8
 421:usbd_enum.c   ****             }
 197              		.loc 1 421 17 is_stmt 1
 421:usbd_enum.c   ****             }
 198              		.loc 1 421 36 is_stmt 0
 199 0094 A147     		li	a5,8
 200 0096 232EF40C 		sw	a5,220(s0)
 201 009a 41B7     		j	.L8
 202              	.LVL15:
 203              	.L10:
 204 009c 0D47     		li	a4,3
 205 009e 6387E702 		beq	a5,a4,.L12
 206 00a2 3D47     		li	a4,15
 207 00a4 E39BE7F6 		bne	a5,a4,.L8
 443:usbd_enum.c   ****             break;
 208              		.loc 1 443 13 is_stmt 1
 209              	.LVL16:
 210              	.LBB5:
 211              	.LBB6:
 176:usbd_enum.c   **** 
 212              		.loc 1 176 5
 176:usbd_enum.c   **** 
 213              		.loc 1 176 26 is_stmt 0
 214 00a8 8327C541 		lw	a5,1052(a0)
 215              	.LVL17:
 176:usbd_enum.c   **** 
 216              		.loc 1 176 35
 217 00ac 03C72700 		lbu	a4,2(a5)
 218              	.LBE6:
 219              	.LBE5:
 443:usbd_enum.c   ****             break;
 220              		.loc 1 443 30
 221 00b0 2328F50C 		sw	a5,208(a0)
 222              	.LVL18:
 223              	.LBB8:
 224              	.LBB7:
 176:usbd_enum.c   **** 
 225              		.loc 1 176 35
 226 00b4 231EE50C 		sh	a4,220(a0)
 178:usbd_enum.c   **** }
 227              		.loc 1 178 5 is_stmt 1
 228              	.LVL19:
 229              	.LBE7:
 230              	.LBE8:
 444:usbd_enum.c   **** 
 231              		.loc 1 444 13
 232 00b8 8DB7     		j	.L8
 233              	.LVL20:
 234              	.L9:
 426:usbd_enum.c   ****             break;
 235              		.loc 1 426 13
 426:usbd_enum.c   ****             break;
 236              		.loc 1 426 32 is_stmt 0
GAS LISTING C:\Users\Uzair\AppData\Local\Temp\ccy2jRBs.s 			page 14


 237 00ba 1306C50D 		addi	a2,a0,220
 238 00be 97000000 		call	_usb_config_desc_get
 238      E7800000 
 239              	.LVL21:
 240              	.L25:
 431:usbd_enum.c   ****             }
 241              		.loc 1 431 34
 242 00c6 2328A40C 		sw	a0,208(s0)
 243 00ca 81BF     		j	.L8
 244              	.LVL22:
 245              	.L12:
 430:usbd_enum.c   ****                 transc->xfer_buf = std_desc_get[desc_type - 1U](udev, desc_index, (uint16_t *)&(tra
 246              		.loc 1 430 13 is_stmt 1
 430:usbd_enum.c   ****                 transc->xfer_buf = std_desc_get[desc_type - 1U](udev, desc_index, (uint16_t *)&(tra
 247              		.loc 1 430 16 is_stmt 0
 248 00cc 9547     		li	a5,5
 249              	.LVL23:
 250 00ce E3E6B7F4 		bgtu	a1,a5,.L8
 431:usbd_enum.c   ****             }
 251              		.loc 1 431 17 is_stmt 1
 431:usbd_enum.c   ****             }
 252              		.loc 1 431 36 is_stmt 0
 253 00d2 1306C50D 		addi	a2,a0,220
 254 00d6 97000000 		call	_usb_str_desc_get
 254      E7800000 
 255              	.LVL24:
 256 00de E5B7     		j	.L25
 257              	.LVL25:
 258              	.L7:
 453:usbd_enum.c   **** 
 259              		.loc 1 453 9 is_stmt 1
 453:usbd_enum.c   **** 
 260              		.loc 1 453 49 is_stmt 0
 261 00e0 83270543 		lw	a5,1072(a0)
 453:usbd_enum.c   **** 
 262              		.loc 1 453 29
 263 00e4 DC47     		lw	a5,12(a5)
 264 00e6 8297     		jalr	a5
 265              	.LVL26:
 266              	.L5:
 475:usbd_enum.c   **** }
 267              		.loc 1 475 1
 268 00e8 B240     		lw	ra,12(sp)
 269              		.cfi_remember_state
 270              		.cfi_restore 1
 271 00ea 2244     		lw	s0,8(sp)
 272              		.cfi_restore 8
 273              	.LVL27:
 274 00ec 9244     		lw	s1,4(sp)
 275              		.cfi_restore 9
 276              	.LVL28:
 277 00ee 4101     		addi	sp,sp,16
 278              	.LCFI1:
 279              		.cfi_def_cfa_offset 0
 280 00f0 8280     		jr	ra
 281              	.LVL29:
 282              	.L17:
GAS LISTING C:\Users\Uzair\AppData\Local\Temp\ccy2jRBs.s 			page 15


 283              	.LCFI2:
 284              		.cfi_restore_state
 468:usbd_enum.c   ****         }
 285              		.loc 1 468 13 is_stmt 1
 468:usbd_enum.c   ****         }
 286              		.loc 1 468 32 is_stmt 0
 287 00f2 232EF40C 		sw	a5,220(s0)
 288              	.L21:
 471:usbd_enum.c   ****     }
 289              		.loc 1 471 16
 290 00f6 0145     		li	a0,0
 291 00f8 C5BF     		j	.L5
 292              		.cfi_endproc
 293              	.LFE15:
 295              		.section	.text._usb_std_setconfiguration,"ax",@progbits
 296              		.align	1
 298              	_usb_std_setconfiguration:
 299              	.LFB18:
 476:usbd_enum.c   **** 
 477:usbd_enum.c   **** /*!
 478:usbd_enum.c   ****     \brief      handle USB Set_Descriptor request
 479:usbd_enum.c   ****     \param[in]  udev: pointer to USB device instance
 480:usbd_enum.c   ****     \param[in]  req: pointer to USB device request
 481:usbd_enum.c   ****     \param[out] none
 482:usbd_enum.c   ****     \retval     USB device request status
 483:usbd_enum.c   **** */
 484:usbd_enum.c   **** static usb_reqsta _usb_std_setdescriptor (usb_core_driver *udev, usb_req *req)
 485:usbd_enum.c   **** {
 486:usbd_enum.c   ****     /* no handle... */
 487:usbd_enum.c   ****     return REQ_SUPP;
 488:usbd_enum.c   **** }
 489:usbd_enum.c   **** 
 490:usbd_enum.c   **** /*!
 491:usbd_enum.c   ****     \brief      handle USB Get_Configuration request
 492:usbd_enum.c   ****     \param[in]  udev: pointer to USB device instance
 493:usbd_enum.c   ****     \param[in]  req: pointer to USB device request
 494:usbd_enum.c   ****     \param[out] none
 495:usbd_enum.c   ****     \retval     USB device request status
 496:usbd_enum.c   **** */
 497:usbd_enum.c   **** static usb_reqsta _usb_std_getconfiguration (usb_core_driver *udev, usb_req *req)
 498:usbd_enum.c   **** {
 499:usbd_enum.c   ****     usb_transc *transc = &udev->dev.transc_in[0];
 500:usbd_enum.c   **** 
 501:usbd_enum.c   ****     switch (udev->dev.cur_status) {
 502:usbd_enum.c   ****     case USBD_ADDRESSED:
 503:usbd_enum.c   ****         if (USB_DEFAULT_CONFIG == udev->dev.config) {
 504:usbd_enum.c   ****             transc->xfer_buf = &(udev->dev.config);
 505:usbd_enum.c   ****             transc->remain_len = 1U;
 506:usbd_enum.c   **** 
 507:usbd_enum.c   ****             return REQ_SUPP;
 508:usbd_enum.c   ****         }
 509:usbd_enum.c   ****         break;
 510:usbd_enum.c   **** 
 511:usbd_enum.c   ****     case USBD_CONFIGURED:
 512:usbd_enum.c   ****         if (udev->dev.config != USB_DEFAULT_CONFIG) {
 513:usbd_enum.c   ****             transc->xfer_buf = &(udev->dev.config);
 514:usbd_enum.c   ****             transc->remain_len = 1U;
GAS LISTING C:\Users\Uzair\AppData\Local\Temp\ccy2jRBs.s 			page 16


 515:usbd_enum.c   **** 
 516:usbd_enum.c   ****             return REQ_SUPP;
 517:usbd_enum.c   ****         }
 518:usbd_enum.c   ****         break;
 519:usbd_enum.c   **** 
 520:usbd_enum.c   ****     default:
 521:usbd_enum.c   ****         break;
 522:usbd_enum.c   ****     }
 523:usbd_enum.c   **** 
 524:usbd_enum.c   ****     return REQ_NOTSUPP;
 525:usbd_enum.c   **** }
 526:usbd_enum.c   **** 
 527:usbd_enum.c   **** /*!
 528:usbd_enum.c   ****     \brief      handle USB Set_Configuration request
 529:usbd_enum.c   ****     \param[in]  udev: pointer to USB device instance
 530:usbd_enum.c   ****     \param[in]  req: pointer to USB device request
 531:usbd_enum.c   ****     \param[out] none
 532:usbd_enum.c   ****     \retval     USB device request status
 533:usbd_enum.c   **** */
 534:usbd_enum.c   **** static usb_reqsta _usb_std_setconfiguration (usb_core_driver *udev, usb_req *req)
 535:usbd_enum.c   **** {
 300              		.loc 1 535 1 is_stmt 1
 301              		.cfi_startproc
 302              	.LVL30:
 536:usbd_enum.c   ****     static uint8_t config;
 303              		.loc 1 536 5
 537:usbd_enum.c   **** 
 538:usbd_enum.c   ****     config = (uint8_t)(req->wValue);
 304              		.loc 1 538 5
 535:usbd_enum.c   ****     static uint8_t config;
 305              		.loc 1 535 1 is_stmt 0
 306 0000 4111     		addi	sp,sp,-16
 307              	.LCFI3:
 308              		.cfi_def_cfa_offset 16
 309 0002 4AC0     		sw	s2,0(sp)
 310 0004 06C6     		sw	ra,12(sp)
 311 0006 22C4     		sw	s0,8(sp)
 312 0008 26C2     		sw	s1,4(sp)
 313              		.cfi_offset 18, -16
 314              		.cfi_offset 1, -4
 315              		.cfi_offset 8, -8
 316              		.cfi_offset 9, -12
 317              		.loc 1 538 14
 318 000a 83C72500 		lbu	a5,2(a1)
 319              		.loc 1 538 12
 320 000e 37090000 		lui	s2,%hi(.LANCHOR0)
 321 0012 13090900 		addi	s2,s2,%lo(.LANCHOR0)
 322 0016 2300F900 		sb	a5,0(s2)
 539:usbd_enum.c   **** 
 540:usbd_enum.c   ****     if (config <= USBD_CFG_MAX_NUM) {
 323              		.loc 1 540 5 is_stmt 1
 324              		.loc 1 540 8 is_stmt 0
 325 001a 8546     		li	a3,1
 326 001c 63EDF600 		bgtu	a5,a3,.L31
 541:usbd_enum.c   ****         switch (udev->dev.cur_status) {
 327              		.loc 1 541 26
 328 0020 0347650C 		lbu	a4,198(a0)
GAS LISTING C:\Users\Uzair\AppData\Local\Temp\ccy2jRBs.s 			page 17


 329              		.loc 1 541 9
 330 0024 8944     		li	s1,2
 331 0026 2A84     		mv	s0,a0
 332              		.loc 1 541 9 is_stmt 1
 333              		.loc 1 541 26 is_stmt 0
 334 0028 1377F70F 		andi	a4,a4,0xff
 335              		.loc 1 541 9
 336 002c 63079700 		beq	a4,s1,.L28
 337 0030 0D46     		li	a2,3
 338 0032 6309C702 		beq	a4,a2,.L29
 339              	.L31:
 542:usbd_enum.c   ****         case USBD_ADDRESSED:
 543:usbd_enum.c   ****             if (config){
 544:usbd_enum.c   ****                 udev->dev.class_core->init(udev, config);
 545:usbd_enum.c   **** 
 546:usbd_enum.c   ****                 udev->dev.config = config;
 547:usbd_enum.c   ****                 udev->dev.cur_status = USBD_CONFIGURED;
 548:usbd_enum.c   ****             }
 549:usbd_enum.c   **** 
 550:usbd_enum.c   ****             return REQ_SUPP;
 551:usbd_enum.c   **** 
 552:usbd_enum.c   ****         case USBD_CONFIGURED:
 553:usbd_enum.c   ****             if (USB_DEFAULT_CONFIG == config) {
 554:usbd_enum.c   ****                 udev->dev.class_core->deinit(udev, config);
 555:usbd_enum.c   **** 
 556:usbd_enum.c   ****                 udev->dev.config = config;
 557:usbd_enum.c   ****                 udev->dev.cur_status = USBD_ADDRESSED;
 558:usbd_enum.c   ****             } else if (config != udev->dev.config) {
 559:usbd_enum.c   ****                 /* clear old configuration */
 560:usbd_enum.c   ****                 udev->dev.class_core->deinit(udev, config);
 561:usbd_enum.c   **** 
 562:usbd_enum.c   ****                 /* set new configuration */
 563:usbd_enum.c   ****                 udev->dev.config = config;
 564:usbd_enum.c   ****                 udev->dev.class_core->init(udev, config);
 565:usbd_enum.c   ****             }
 566:usbd_enum.c   **** 
 567:usbd_enum.c   ****             return REQ_SUPP;
 568:usbd_enum.c   **** 
 569:usbd_enum.c   ****         case USBD_DEFAULT:
 570:usbd_enum.c   ****             break;
 571:usbd_enum.c   **** 
 572:usbd_enum.c   ****         default:
 573:usbd_enum.c   ****             break;
 574:usbd_enum.c   ****         }
 575:usbd_enum.c   ****     }
 576:usbd_enum.c   **** 
 577:usbd_enum.c   ****     return REQ_NOTSUPP;
 340              		.loc 1 577 12
 341 0036 8544     		li	s1,1
 342 0038 39A8     		j	.L26
 343              	.LVL31:
 344              	.L28:
 543:usbd_enum.c   ****                 udev->dev.class_core->init(udev, config);
 345              		.loc 1 543 13 is_stmt 1
 550:usbd_enum.c   **** 
 346              		.loc 1 550 20 is_stmt 0
 347 003a 8144     		li	s1,0
GAS LISTING C:\Users\Uzair\AppData\Local\Temp\ccy2jRBs.s 			page 18


 543:usbd_enum.c   ****                 udev->dev.class_core->init(udev, config);
 348              		.loc 1 543 16
 349 003c 89CF     		beq	a5,zero,.L26
 544:usbd_enum.c   **** 
 350              		.loc 1 544 17 is_stmt 1
 544:usbd_enum.c   **** 
 351              		.loc 1 544 37 is_stmt 0
 352 003e 83270543 		lw	a5,1072(a0)
 544:usbd_enum.c   **** 
 353              		.loc 1 544 17
 354 0042 8545     		li	a1,1
 355              	.LVL32:
 356 0044 DC43     		lw	a5,4(a5)
 357 0046 8297     		jalr	a5
 358              	.LVL33:
 546:usbd_enum.c   ****                 udev->dev.cur_status = USBD_CONFIGURED;
 359              		.loc 1 546 17 is_stmt 1
 546:usbd_enum.c   ****                 udev->dev.cur_status = USBD_CONFIGURED;
 360              		.loc 1 546 34 is_stmt 0
 361 0048 83470900 		lbu	a5,0(s2)
 362 004c 2302F40C 		sb	a5,196(s0)
 547:usbd_enum.c   ****             }
 363              		.loc 1 547 17 is_stmt 1
 547:usbd_enum.c   ****             }
 364              		.loc 1 547 38 is_stmt 0
 365 0050 8D47     		li	a5,3
 366 0052 2303F40C 		sb	a5,198(s0)
 367              	.LVL34:
 368              	.L26:
 578:usbd_enum.c   **** }
 369              		.loc 1 578 1
 370 0056 B240     		lw	ra,12(sp)
 371              		.cfi_remember_state
 372              		.cfi_restore 1
 373 0058 2244     		lw	s0,8(sp)
 374              		.cfi_restore 8
 375 005a 2685     		mv	a0,s1
 376 005c 0249     		lw	s2,0(sp)
 377              		.cfi_restore 18
 378 005e 9244     		lw	s1,4(sp)
 379              		.cfi_restore 9
 380 0060 4101     		addi	sp,sp,16
 381              	.LCFI4:
 382              		.cfi_def_cfa_offset 0
 383 0062 8280     		jr	ra
 384              	.LVL35:
 385              	.L29:
 386              	.LCFI5:
 387              		.cfi_restore_state
 553:usbd_enum.c   ****                 udev->dev.class_core->deinit(udev, config);
 388              		.loc 1 553 13 is_stmt 1
 553:usbd_enum.c   ****                 udev->dev.class_core->deinit(udev, config);
 389              		.loc 1 553 16 is_stmt 0
 390 0064 91EF     		bne	a5,zero,.L30
 554:usbd_enum.c   **** 
 391              		.loc 1 554 17 is_stmt 1
 554:usbd_enum.c   **** 
GAS LISTING C:\Users\Uzair\AppData\Local\Temp\ccy2jRBs.s 			page 19


 392              		.loc 1 554 37 is_stmt 0
 393 0066 83270543 		lw	a5,1072(a0)
 554:usbd_enum.c   **** 
 394              		.loc 1 554 17
 395 006a 8145     		li	a1,0
 396              	.LVL36:
 397 006c 9C47     		lw	a5,8(a5)
 398 006e 8297     		jalr	a5
 399              	.LVL37:
 556:usbd_enum.c   ****                 udev->dev.cur_status = USBD_ADDRESSED;
 400              		.loc 1 556 17 is_stmt 1
 556:usbd_enum.c   ****                 udev->dev.cur_status = USBD_ADDRESSED;
 401              		.loc 1 556 34 is_stmt 0
 402 0070 83470900 		lbu	a5,0(s2)
 557:usbd_enum.c   ****             } else if (config != udev->dev.config) {
 403              		.loc 1 557 38
 404 0074 2303940C 		sb	s1,198(s0)
 567:usbd_enum.c   **** 
 405              		.loc 1 567 20
 406 0078 8144     		li	s1,0
 556:usbd_enum.c   ****                 udev->dev.cur_status = USBD_ADDRESSED;
 407              		.loc 1 556 34
 408 007a 2302F40C 		sb	a5,196(s0)
 557:usbd_enum.c   ****             } else if (config != udev->dev.config) {
 409              		.loc 1 557 17 is_stmt 1
 410 007e E1BF     		j	.L26
 411              	.LVL38:
 412              	.L30:
 558:usbd_enum.c   ****                 /* clear old configuration */
 413              		.loc 1 558 20
 558:usbd_enum.c   ****                 /* clear old configuration */
 414              		.loc 1 558 23 is_stmt 0
 415 0080 8347450C 		lbu	a5,196(a0)
 550:usbd_enum.c   **** 
 416              		.loc 1 550 20
 417 0084 8144     		li	s1,0
 558:usbd_enum.c   ****                 /* clear old configuration */
 418              		.loc 1 558 23
 419 0086 E388D7FC 		beq	a5,a3,.L26
 560:usbd_enum.c   **** 
 420              		.loc 1 560 17 is_stmt 1
 560:usbd_enum.c   **** 
 421              		.loc 1 560 37 is_stmt 0
 422 008a 83270543 		lw	a5,1072(a0)
 560:usbd_enum.c   **** 
 423              		.loc 1 560 17
 424 008e 8545     		li	a1,1
 425              	.LVL39:
 426 0090 9C47     		lw	a5,8(a5)
 427 0092 8297     		jalr	a5
 428              	.LVL40:
 563:usbd_enum.c   ****                 udev->dev.class_core->init(udev, config);
 429              		.loc 1 563 17 is_stmt 1
 563:usbd_enum.c   ****                 udev->dev.class_core->init(udev, config);
 430              		.loc 1 563 34 is_stmt 0
 431 0094 83450900 		lbu	a1,0(s2)
 564:usbd_enum.c   ****             }
GAS LISTING C:\Users\Uzair\AppData\Local\Temp\ccy2jRBs.s 			page 20


 432              		.loc 1 564 37
 433 0098 83270443 		lw	a5,1072(s0)
 564:usbd_enum.c   ****             }
 434              		.loc 1 564 17
 435 009c 2285     		mv	a0,s0
 563:usbd_enum.c   ****                 udev->dev.class_core->init(udev, config);
 436              		.loc 1 563 34
 437 009e 2302B40C 		sb	a1,196(s0)
 564:usbd_enum.c   ****             }
 438              		.loc 1 564 17 is_stmt 1
 439 00a2 DC43     		lw	a5,4(a5)
 440 00a4 8297     		jalr	a5
 441              	.LVL41:
 442 00a6 45BF     		j	.L26
 443              		.cfi_endproc
 444              	.LFE18:
 446              		.section	.text._usb_std_getstatus,"ax",@progbits
 447              		.align	1
 449              	_usb_std_getstatus:
 450              	.LFB11:
 205:usbd_enum.c   ****     uint8_t recp = BYTE_LOW(req->wIndex);
 451              		.loc 1 205 1
 452              		.cfi_startproc
 453              	.LVL42:
 206:usbd_enum.c   **** 
 454              		.loc 1 206 20 is_stmt 0
 455 0000 83C65500 		lbu	a3,5(a1)
 456 0004 03C74500 		lbu	a4,4(a1)
 457 0008 03C60500 		lbu	a2,0(a1)
 458 000c A206     		slli	a3,a3,8
 459 000e D98E     		or	a3,a3,a4
 460 0010 0D8A     		andi	a2,a2,3
 212:usbd_enum.c   ****         case USB_RECPTYPE_DEV:
 461              		.loc 1 212 5
 462 0012 8545     		li	a1,1
 463              	.LVL43:
 205:usbd_enum.c   ****     uint8_t recp = BYTE_LOW(req->wIndex);
 464              		.loc 1 205 1
 465 0014 AA87     		mv	a5,a0
 206:usbd_enum.c   **** 
 466              		.loc 1 206 5 is_stmt 1
 206:usbd_enum.c   **** 
 467              		.loc 1 206 13 is_stmt 0
 468 0016 13F7F60F 		andi	a4,a3,0xff
 469              	.LVL44:
 208:usbd_enum.c   **** 
 470              		.loc 1 208 5 is_stmt 1
 210:usbd_enum.c   **** 
 471              		.loc 1 210 5
 212:usbd_enum.c   ****         case USB_RECPTYPE_DEV:
 472              		.loc 1 212 5
 473 001a 6303B604 		beq	a2,a1,.L37
 474 001e 11C6     		beq	a2,zero,.L38
 475 0020 8945     		li	a1,2
 476 0022 6302B606 		beq	a2,a1,.L39
 264:usbd_enum.c   **** }
 477              		.loc 1 264 12 is_stmt 0
GAS LISTING C:\Users\Uzair\AppData\Local\Temp\ccy2jRBs.s 			page 21


 478 0026 0545     		li	a0,1
 479              	.LVL45:
 480 0028 8280     		ret
 481              	.LVL46:
 482              	.L38:
 483              	.LBB11:
 484              	.LBB12:
 214:usbd_enum.c   ****                 (USBD_CONFIGURED == udev->dev.cur_status)) {
 485              		.loc 1 214 13 is_stmt 1
 214:usbd_enum.c   ****                 (USBD_CONFIGURED == udev->dev.cur_status)) {
 486              		.loc 1 214 45 is_stmt 0
 487 002a 0347650C 		lbu	a4,198(a0)
 488              	.LVL47:
 214:usbd_enum.c   ****                 (USBD_CONFIGURED == udev->dev.cur_status)) {
 489              		.loc 1 214 16
 490 002e 8946     		li	a3,2
 491              	.LVL48:
 492 0030 6388E600 		beq	a3,a4,.L41
 215:usbd_enum.c   **** 
 493              		.loc 1 215 46
 494 0034 0347650C 		lbu	a4,198(a0)
 214:usbd_enum.c   ****                 (USBD_CONFIGURED == udev->dev.cur_status)) {
 495              		.loc 1 214 58
 496 0038 8D46     		li	a3,3
 264:usbd_enum.c   **** }
 497              		.loc 1 264 12
 498 003a 0545     		li	a0,1
 499              	.LVL49:
 214:usbd_enum.c   ****                 (USBD_CONFIGURED == udev->dev.cur_status)) {
 500              		.loc 1 214 58
 501 003c 6394E604 		bne	a3,a4,.L36
 502              	.L41:
 217:usbd_enum.c   ****                     status[0] = USB_STATUS_SELF_POWERED;
 503              		.loc 1 217 17 is_stmt 1
 223:usbd_enum.c   ****                     status[0] |= USB_STATUS_REMOTE_WAKEUP;
 504              		.loc 1 223 33 is_stmt 0
 505 0040 83C62741 		lbu	a3,1042(a5)
 217:usbd_enum.c   ****                     status[0] = USB_STATUS_SELF_POWERED;
 506              		.loc 1 217 33
 507 0044 03C70741 		lbu	a4,1040(a5)
 223:usbd_enum.c   ****                     status[0] |= USB_STATUS_REMOTE_WAKEUP;
 508              		.loc 1 223 17 is_stmt 1
 223:usbd_enum.c   ****                     status[0] |= USB_STATUS_REMOTE_WAKEUP;
 509              		.loc 1 223 20 is_stmt 0
 510 0048 89C6     		beq	a3,zero,.L44
 224:usbd_enum.c   ****                 } else {
 511              		.loc 1 224 21 is_stmt 1
 217:usbd_enum.c   ****                     status[0] = USB_STATUS_SELF_POWERED;
 512              		.loc 1 217 20 is_stmt 0
 513 004a B336E000 		snez	a3,a4
 224:usbd_enum.c   ****                 } else {
 514              		.loc 1 224 31
 515 004e 93E62600 		ori	a3,a3,2
 516              	.LVL50:
 517              	.L44:
 518 0052 37070000 		lui	a4,%hi(.LANCHOR1)
 519 0056 13070700 		addi	a4,a4,%lo(.LANCHOR1)
GAS LISTING C:\Users\Uzair\AppData\Local\Temp\ccy2jRBs.s 			page 22


 520 005a 2300D700 		sb	a3,0(a4)
 521              	.LVL51:
 522 005e 29A8     		j	.L52
 523              	.LVL52:
 524              	.L37:
 525              	.LBE12:
 526              	.LBE11:
 237:usbd_enum.c   ****                 transc->xfer_buf = status;
 527              		.loc 1 237 13 is_stmt 1
 237:usbd_enum.c   ****                 transc->xfer_buf = status;
 528              		.loc 1 237 46 is_stmt 0
 529 0060 8346650C 		lbu	a3,198(a0)
 237:usbd_enum.c   ****                 transc->xfer_buf = status;
 530              		.loc 1 237 16
 531 0064 0D46     		li	a2,3
 532              	.LBB15:
 533              	.LBB13:
 264:usbd_enum.c   **** }
 534              		.loc 1 264 12
 535 0066 0545     		li	a0,1
 536              	.LVL53:
 537              	.LBE13:
 538              	.LBE15:
 237:usbd_enum.c   ****                 transc->xfer_buf = status;
 539              		.loc 1 237 16
 540 0068 631ED600 		bne	a2,a3,.L36
 237:usbd_enum.c   ****                 transc->xfer_buf = status;
 541              		.loc 1 237 59 discriminator 1
 542 006c 636CE500 		bgtu	a4,a0,.L36
 238:usbd_enum.c   ****                 transc->remain_len = 2U;
 543              		.loc 1 238 17 is_stmt 1
 238:usbd_enum.c   ****                 transc->remain_len = 2U;
 544              		.loc 1 238 34 is_stmt 0
 545 0070 37070000 		lui	a4,%hi(.LANCHOR1)
 546              	.LVL54:
 547 0074 13070700 		addi	a4,a4,%lo(.LANCHOR1)
 548              	.LVL55:
 549              	.L52:
 253:usbd_enum.c   ****                 transc->remain_len = 2U;
 550              		.loc 1 253 17 is_stmt 1
 253:usbd_enum.c   ****                 transc->remain_len = 2U;
 551              		.loc 1 253 34 is_stmt 0
 552 0078 23A8E70C 		sw	a4,208(a5)
 254:usbd_enum.c   **** 
 553              		.loc 1 254 17 is_stmt 1
 254:usbd_enum.c   **** 
 554              		.loc 1 254 36 is_stmt 0
 555 007c 0947     		li	a4,2
 556 007e 23AEE70C 		sw	a4,220(a5)
 256:usbd_enum.c   ****             }
 557              		.loc 1 256 17 is_stmt 1
 256:usbd_enum.c   ****             }
 558              		.loc 1 256 24 is_stmt 0
 559 0082 0145     		li	a0,0
 560              	.L36:
 265:usbd_enum.c   **** 
 561              		.loc 1 265 1
GAS LISTING C:\Users\Uzair\AppData\Local\Temp\ccy2jRBs.s 			page 23


 562 0084 8280     		ret
 563              	.LVL56:
 564              	.L39:
 246:usbd_enum.c   ****                 if (0x80U == (recp & 0x80U)) {
 565              		.loc 1 246 13 is_stmt 1
 246:usbd_enum.c   ****                 if (0x80U == (recp & 0x80U)) {
 566              		.loc 1 246 45 is_stmt 0
 567 0086 0346650C 		lbu	a2,198(a0)
 246:usbd_enum.c   ****                 if (0x80U == (recp & 0x80U)) {
 568              		.loc 1 246 16
 569 008a 8D45     		li	a1,3
 570              	.LBB16:
 571              	.LBB14:
 264:usbd_enum.c   **** }
 572              		.loc 1 264 12
 573 008c 0545     		li	a0,1
 574              	.LVL57:
 575              	.LBE14:
 576              	.LBE16:
 246:usbd_enum.c   ****                 if (0x80U == (recp & 0x80U)) {
 577              		.loc 1 246 16
 578 008e E39BC5FE 		bne	a1,a2,.L36
 247:usbd_enum.c   ****                     status[0] = udev->dev.transc_in[EP_ID(recp)].ep_stall;
 579              		.loc 1 247 17 is_stmt 1
 247:usbd_enum.c   ****                     status[0] = udev->dev.transc_in[EP_ID(recp)].ep_stall;
 580              		.loc 1 247 20 is_stmt 0
 581 0092 E206     		slli	a3,a3,24
 582 0094 E186     		srai	a3,a3,24
 583 0096 63DB0600 		bge	a3,zero,.L43
 248:usbd_enum.c   ****                 } else {
 584              		.loc 1 248 21 is_stmt 1
 248:usbd_enum.c   ****                 } else {
 585              		.loc 1 248 65 is_stmt 0
 586 009a F146     		li	a3,28
 248:usbd_enum.c   ****                 } else {
 587              		.loc 1 248 53
 588 009c 1377F707 		andi	a4,a4,127
 589              	.LVL58:
 248:usbd_enum.c   ****                 } else {
 590              		.loc 1 248 65
 591 00a0 3307D702 		mul	a4,a4,a3
 592 00a4 3E97     		add	a4,a5,a4
 593 00a6 8346A70C 		lbu	a3,202(a4)
 594 00aa 65B7     		j	.L44
 595              	.LVL59:
 596              	.L43:
 250:usbd_enum.c   ****                 }
 597              		.loc 1 250 21 is_stmt 1
 250:usbd_enum.c   ****                 }
 598              		.loc 1 250 59 is_stmt 0
 599 00ac F146     		li	a3,28
 600 00ae 3307D702 		mul	a4,a4,a3
 601              	.LVL60:
 602 00b2 3E97     		add	a4,a5,a4
 603 00b4 8346E726 		lbu	a3,622(a4)
 604 00b8 69BF     		j	.L44
 605              		.cfi_endproc
GAS LISTING C:\Users\Uzair\AppData\Local\Temp\ccy2jRBs.s 			page 24


 606              	.LFE11:
 608              		.section	.text._usb_std_getconfiguration,"ax",@progbits
 609              		.align	1
 611              	_usb_std_getconfiguration:
 612              	.LFB17:
 498:usbd_enum.c   ****     usb_transc *transc = &udev->dev.transc_in[0];
 613              		.loc 1 498 1 is_stmt 1
 614              		.cfi_startproc
 615              	.LVL61:
 499:usbd_enum.c   **** 
 616              		.loc 1 499 5
 501:usbd_enum.c   ****     case USBD_ADDRESSED:
 617              		.loc 1 501 5
 501:usbd_enum.c   ****     case USBD_ADDRESSED:
 618              		.loc 1 501 22 is_stmt 0
 619 0000 0347650C 		lbu	a4,198(a0)
 501:usbd_enum.c   ****     case USBD_ADDRESSED:
 620              		.loc 1 501 5
 621 0004 8946     		li	a3,2
 498:usbd_enum.c   ****     usb_transc *transc = &udev->dev.transc_in[0];
 622              		.loc 1 498 1
 623 0006 AA87     		mv	a5,a0
 501:usbd_enum.c   ****     case USBD_ADDRESSED:
 624              		.loc 1 501 22
 625 0008 1377F70F 		andi	a4,a4,0xff
 501:usbd_enum.c   ****     case USBD_ADDRESSED:
 626              		.loc 1 501 5
 627 000c 6307D700 		beq	a4,a3,.L54
 628 0010 8D46     		li	a3,3
 629 0012 6301D702 		beq	a4,a3,.L55
 630              	.L59:
 631              	.LBB19:
 632              	.LBB20:
 524:usbd_enum.c   **** }
 633              		.loc 1 524 12
 634 0016 0545     		li	a0,1
 635              	.LVL62:
 636              	.L53:
 637              	.LBE20:
 638              	.LBE19:
 525:usbd_enum.c   **** 
 639              		.loc 1 525 1
 640 0018 8280     		ret
 641              	.LVL63:
 642              	.L54:
 643              	.LBB22:
 644              	.LBB21:
 503:usbd_enum.c   ****             transc->xfer_buf = &(udev->dev.config);
 645              		.loc 1 503 9 is_stmt 1
 503:usbd_enum.c   ****             transc->xfer_buf = &(udev->dev.config);
 646              		.loc 1 503 12 is_stmt 0
 647 001a 0347450C 		lbu	a4,196(a0)
 524:usbd_enum.c   **** }
 648              		.loc 1 524 12
 649 001e 0545     		li	a0,1
 650              	.LVL64:
 503:usbd_enum.c   ****             transc->xfer_buf = &(udev->dev.config);
GAS LISTING C:\Users\Uzair\AppData\Local\Temp\ccy2jRBs.s 			page 25


 651              		.loc 1 503 12
 652 0020 65FF     		bne	a4,zero,.L53
 653              	.LVL65:
 654              	.L57:
 504:usbd_enum.c   ****             transc->remain_len = 1U;
 655              		.loc 1 504 13 is_stmt 1
 504:usbd_enum.c   ****             transc->remain_len = 1U;
 656              		.loc 1 504 32 is_stmt 0
 657 0022 1387470C 		addi	a4,a5,196
 504:usbd_enum.c   ****             transc->remain_len = 1U;
 658              		.loc 1 504 30
 659 0026 23A8E70C 		sw	a4,208(a5)
 505:usbd_enum.c   **** 
 660              		.loc 1 505 13 is_stmt 1
 505:usbd_enum.c   **** 
 661              		.loc 1 505 32 is_stmt 0
 662 002a 0547     		li	a4,1
 663 002c 23AEE70C 		sw	a4,220(a5)
 507:usbd_enum.c   ****         }
 664              		.loc 1 507 13 is_stmt 1
 507:usbd_enum.c   ****         }
 665              		.loc 1 507 20 is_stmt 0
 666 0030 0145     		li	a0,0
 667 0032 8280     		ret
 668              	.LVL66:
 669              	.L55:
 670              	.LBE21:
 671              	.LBE22:
 512:usbd_enum.c   ****             transc->xfer_buf = &(udev->dev.config);
 672              		.loc 1 512 9 is_stmt 1
 512:usbd_enum.c   ****             transc->xfer_buf = &(udev->dev.config);
 673              		.loc 1 512 12 is_stmt 0
 674 0034 0347450C 		lbu	a4,196(a0)
 675 0038 79DF     		beq	a4,zero,.L59
 676 003a E5B7     		j	.L57
 677              		.cfi_endproc
 678              	.LFE17:
 680              		.section	.text._usb_std_getinterface,"ax",@progbits
 681              		.align	1
 683              	_usb_std_getinterface:
 684              	.LFB19:
 579:usbd_enum.c   **** 
 580:usbd_enum.c   **** /*!
 581:usbd_enum.c   ****     \brief      handle USB Get_Interface request
 582:usbd_enum.c   ****     \param[in]  udev: pointer to USB device instance
 583:usbd_enum.c   ****     \param[in]  req: pointer to USB device request
 584:usbd_enum.c   ****     \param[out] none
 585:usbd_enum.c   ****     \retval     USB device request status
 586:usbd_enum.c   **** */
 587:usbd_enum.c   **** static usb_reqsta _usb_std_getinterface (usb_core_driver *udev, usb_req *req)
 588:usbd_enum.c   **** {
 685              		.loc 1 588 1 is_stmt 1
 686              		.cfi_startproc
 687              	.LVL67:
 589:usbd_enum.c   ****     switch (udev->dev.cur_status) {
 688              		.loc 1 589 5
 689              		.loc 1 589 22 is_stmt 0
GAS LISTING C:\Users\Uzair\AppData\Local\Temp\ccy2jRBs.s 			page 26


 690 0000 8347650C 		lbu	a5,198(a0)
 691              		.loc 1 589 5
 692 0004 0D47     		li	a4,3
 693 0006 6311F702 		bne	a4,a5,.L62
 694              	.LVL68:
 695              	.LBB26:
 696              	.LBB27:
 590:usbd_enum.c   ****     case USBD_DEFAULT:
 591:usbd_enum.c   ****         break;
 592:usbd_enum.c   **** 
 593:usbd_enum.c   ****     case USBD_ADDRESSED:
 594:usbd_enum.c   ****         break;
 595:usbd_enum.c   **** 
 596:usbd_enum.c   ****     case USBD_CONFIGURED:
 597:usbd_enum.c   ****         if (BYTE_LOW(req->wIndex) <= USBD_ITF_MAX_NUM) {
 697              		.loc 1 597 9 is_stmt 1
 698              		.loc 1 597 12 is_stmt 0
 699 000a 03C74500 		lbu	a4,4(a1)
 700              	.LBE27:
 701              	.LBE26:
 598:usbd_enum.c   ****             usb_transc *transc = &udev->dev.transc_in[0];
 599:usbd_enum.c   **** 
 600:usbd_enum.c   ****             transc->xfer_buf = &(udev->dev.class_core->alter_set);
 601:usbd_enum.c   ****             transc->remain_len = 1U;
 602:usbd_enum.c   **** 
 603:usbd_enum.c   ****             return REQ_SUPP;
 604:usbd_enum.c   ****         }
 605:usbd_enum.c   ****         break;
 606:usbd_enum.c   **** 
 607:usbd_enum.c   ****     default:
 608:usbd_enum.c   ****         break;
 609:usbd_enum.c   ****     }
 610:usbd_enum.c   **** 
 611:usbd_enum.c   ****     return REQ_NOTSUPP;
 702              		.loc 1 611 12
 703 000e 8547     		li	a5,1
 704              	.LBB30:
 705              	.LBB29:
 597:usbd_enum.c   ****             usb_transc *transc = &udev->dev.transc_in[0];
 706              		.loc 1 597 12
 707 0010 63EAE700 		bgtu	a4,a5,.L60
 708              	.LBB28:
 598:usbd_enum.c   ****             usb_transc *transc = &udev->dev.transc_in[0];
 709              		.loc 1 598 13 is_stmt 1
 710              	.LVL69:
 600:usbd_enum.c   ****             transc->remain_len = 1U;
 711              		.loc 1 600 13
 600:usbd_enum.c   ****             transc->remain_len = 1U;
 712              		.loc 1 600 32 is_stmt 0
 713 0014 03270543 		lw	a4,1072(a0)
 601:usbd_enum.c   **** 
 714              		.loc 1 601 32
 715 0018 232EF50C 		sw	a5,220(a0)
 603:usbd_enum.c   ****         }
 716              		.loc 1 603 20
 717 001c 8147     		li	a5,0
 600:usbd_enum.c   ****             transc->remain_len = 1U;
GAS LISTING C:\Users\Uzair\AppData\Local\Temp\ccy2jRBs.s 			page 27


 718              		.loc 1 600 32
 719 001e 0507     		addi	a4,a4,1
 600:usbd_enum.c   ****             transc->remain_len = 1U;
 720              		.loc 1 600 30
 721 0020 2328E50C 		sw	a4,208(a0)
 601:usbd_enum.c   **** 
 722              		.loc 1 601 13 is_stmt 1
 603:usbd_enum.c   ****         }
 723              		.loc 1 603 13
 724              	.LVL70:
 725              	.L60:
 726              	.LBE28:
 727              	.LBE29:
 728              	.LBE30:
 612:usbd_enum.c   **** }
 729              		.loc 1 612 1 is_stmt 0
 730 0024 3E85     		mv	a0,a5
 731              	.LVL71:
 732 0026 8280     		ret
 733              	.LVL72:
 734              	.L62:
 611:usbd_enum.c   **** }
 735              		.loc 1 611 12
 736 0028 8547     		li	a5,1
 737 002a EDBF     		j	.L60
 738              		.cfi_endproc
 739              	.LFE19:
 741              		.section	.text._usb_std_setinterface,"ax",@progbits
 742              		.align	1
 744              	_usb_std_setinterface:
 745              	.LFB20:
 613:usbd_enum.c   **** 
 614:usbd_enum.c   **** /*!
 615:usbd_enum.c   ****     \brief      handle USB Set_Interface request
 616:usbd_enum.c   ****     \param[in]  udev: pointer to USB device instance
 617:usbd_enum.c   ****     \param[in]  req: pointer to USB device request
 618:usbd_enum.c   ****     \param[out] none
 619:usbd_enum.c   ****     \retval     USB device request status
 620:usbd_enum.c   **** */
 621:usbd_enum.c   **** static usb_reqsta _usb_std_setinterface (usb_core_driver *udev, usb_req *req)
 622:usbd_enum.c   **** {
 746              		.loc 1 622 1 is_stmt 1
 747              		.cfi_startproc
 748              	.LVL73:
 623:usbd_enum.c   ****     switch (udev->dev.cur_status) {
 749              		.loc 1 623 5
 750              		.loc 1 623 22 is_stmt 0
 751 0000 8347650C 		lbu	a5,198(a0)
 752              		.loc 1 623 5
 753 0004 0D47     		li	a4,3
 754 0006 6310F702 		bne	a4,a5,.L66
 755              	.LVL74:
 756              	.LBB33:
 757              	.LBB34:
 624:usbd_enum.c   ****     case USBD_DEFAULT:
 625:usbd_enum.c   ****         break;
 626:usbd_enum.c   **** 
GAS LISTING C:\Users\Uzair\AppData\Local\Temp\ccy2jRBs.s 			page 28


 627:usbd_enum.c   ****     case USBD_ADDRESSED:
 628:usbd_enum.c   ****         break;
 629:usbd_enum.c   **** 
 630:usbd_enum.c   ****     case USBD_CONFIGURED:
 631:usbd_enum.c   ****         if (BYTE_LOW(req->wIndex) <= USBD_ITF_MAX_NUM) {
 758              		.loc 1 631 9 is_stmt 1
 759              		.loc 1 631 12 is_stmt 0
 760 000a 03C74500 		lbu	a4,4(a1)
 761              	.LBE34:
 762              	.LBE33:
 632:usbd_enum.c   ****             udev->dev.class_core->alter_set = req->wValue;
 633:usbd_enum.c   **** 
 634:usbd_enum.c   ****             return REQ_SUPP;
 635:usbd_enum.c   ****         }
 636:usbd_enum.c   ****         break;
 637:usbd_enum.c   **** 
 638:usbd_enum.c   ****     default:
 639:usbd_enum.c   ****         break;
 640:usbd_enum.c   ****     }
 641:usbd_enum.c   **** 
 642:usbd_enum.c   ****     return REQ_NOTSUPP;
 763              		.loc 1 642 12
 764 000e 8547     		li	a5,1
 765              	.LBB36:
 766              	.LBB35:
 631:usbd_enum.c   ****             udev->dev.class_core->alter_set = req->wValue;
 767              		.loc 1 631 12
 768 0010 63E9E700 		bgtu	a4,a5,.L64
 632:usbd_enum.c   ****             udev->dev.class_core->alter_set = req->wValue;
 769              		.loc 1 632 13 is_stmt 1
 632:usbd_enum.c   ****             udev->dev.class_core->alter_set = req->wValue;
 770              		.loc 1 632 45 is_stmt 0
 771 0014 83270543 		lw	a5,1072(a0)
 632:usbd_enum.c   ****             udev->dev.class_core->alter_set = req->wValue;
 772              		.loc 1 632 50
 773 0018 03C72500 		lbu	a4,2(a1)
 632:usbd_enum.c   ****             udev->dev.class_core->alter_set = req->wValue;
 774              		.loc 1 632 45
 775 001c A380E700 		sb	a4,1(a5)
 634:usbd_enum.c   ****         }
 776              		.loc 1 634 13 is_stmt 1
 634:usbd_enum.c   ****         }
 777              		.loc 1 634 20 is_stmt 0
 778 0020 8147     		li	a5,0
 779              	.LVL75:
 780              	.L64:
 781              	.LBE35:
 782              	.LBE36:
 643:usbd_enum.c   **** }
 783              		.loc 1 643 1
 784 0022 3E85     		mv	a0,a5
 785              	.LVL76:
 786 0024 8280     		ret
 787              	.LVL77:
 788              	.L66:
 642:usbd_enum.c   **** }
 789              		.loc 1 642 12
GAS LISTING C:\Users\Uzair\AppData\Local\Temp\ccy2jRBs.s 			page 29


 790 0026 8547     		li	a5,1
 791 0028 EDBF     		j	.L64
 792              		.cfi_endproc
 793              	.LFE20:
 795              		.section	.text._usb_std_setaddress,"ax",@progbits
 796              		.align	1
 798              	_usb_std_setaddress:
 799              	.LFB14:
 376:usbd_enum.c   ****     if ((0U == req->wIndex) && (0U == req->wLength)) {
 800              		.loc 1 376 1 is_stmt 1
 801              		.cfi_startproc
 802              	.LVL78:
 377:usbd_enum.c   ****         udev->dev.dev_addr = (uint8_t)(req->wValue) & 0x7FU;
 803              		.loc 1 377 5
 377:usbd_enum.c   ****         udev->dev.dev_addr = (uint8_t)(req->wValue) & 0x7FU;
 804              		.loc 1 377 19 is_stmt 0
 805 0000 03C75500 		lbu	a4,5(a1)
 806 0004 83C64500 		lbu	a3,4(a1)
 807 0008 2207     		slli	a4,a4,8
 377:usbd_enum.c   ****         udev->dev.dev_addr = (uint8_t)(req->wValue) & 0x7FU;
 808              		.loc 1 377 8
 809 000a 558F     		or	a4,a4,a3
 810 000c 01CB     		beq	a4,zero,.L69
 811              	.L74:
 393:usbd_enum.c   **** }
 812              		.loc 1 393 12
 813 000e 0545     		li	a0,1
 814              	.LVL79:
 394:usbd_enum.c   **** 
 815              		.loc 1 394 1
 816 0010 8280     		ret
 817              	.LVL80:
 818              	.L71:
 819              	.LCFI6:
 820              		.cfi_def_cfa_offset 16
 821              		.cfi_offset 1, -4
 822              		.cfi_offset 8, -8
 393:usbd_enum.c   **** }
 823              		.loc 1 393 12
 824 0012 0545     		li	a0,1
 825              	.L68:
 394:usbd_enum.c   **** 
 826              		.loc 1 394 1
 827 0014 B240     		lw	ra,12(sp)
 828              		.cfi_restore 1
 829 0016 2244     		lw	s0,8(sp)
 830              		.cfi_restore 8
 831              	.LVL81:
 832 0018 4101     		addi	sp,sp,16
 833              	.LCFI7:
 834              		.cfi_def_cfa_offset 0
 835 001a 8280     		jr	ra
 836              	.LVL82:
 837              	.L69:
 377:usbd_enum.c   ****         udev->dev.dev_addr = (uint8_t)(req->wValue) & 0x7FU;
 838              		.loc 1 377 42 discriminator 1
 839 001c 03C77500 		lbu	a4,7(a1)
GAS LISTING C:\Users\Uzair\AppData\Local\Temp\ccy2jRBs.s 			page 30


 840 0020 83C66500 		lbu	a3,6(a1)
 841 0024 2207     		slli	a4,a4,8
 377:usbd_enum.c   ****         udev->dev.dev_addr = (uint8_t)(req->wValue) & 0x7FU;
 842              		.loc 1 377 29 discriminator 1
 843 0026 558F     		or	a4,a4,a3
 844 0028 7DF3     		bne	a4,zero,.L74
 376:usbd_enum.c   ****     if ((0U == req->wIndex) && (0U == req->wLength)) {
 845              		.loc 1 376 1
 846 002a 4111     		addi	sp,sp,-16
 847              	.LCFI8:
 848              		.cfi_def_cfa_offset 16
 849 002c 22C4     		sw	s0,8(sp)
 850 002e 06C6     		sw	ra,12(sp)
 851              		.cfi_offset 8, -8
 852              		.cfi_offset 1, -4
 853              	.LBB39:
 854              	.LBB40:
 378:usbd_enum.c   **** 
 855              		.loc 1 378 43
 856 0030 83C52500 		lbu	a1,2(a1)
 857              	.LVL83:
 380:usbd_enum.c   ****             usbd_addr_set (udev, udev->dev.dev_addr);
 858              		.loc 1 380 22
 859 0034 0347650C 		lbu	a4,198(a0)
 380:usbd_enum.c   ****             usbd_addr_set (udev, udev->dev.dev_addr);
 860              		.loc 1 380 12
 861 0038 8D46     		li	a3,3
 378:usbd_enum.c   **** 
 862              		.loc 1 378 53
 863 003a 93F5F507 		andi	a1,a1,127
 378:usbd_enum.c   **** 
 864              		.loc 1 378 28
 865 003e A302B50C 		sb	a1,197(a0)
 866 0042 2A84     		mv	s0,a0
 867              	.LVL84:
 378:usbd_enum.c   **** 
 868              		.loc 1 378 9 is_stmt 1
 380:usbd_enum.c   ****             usbd_addr_set (udev, udev->dev.dev_addr);
 869              		.loc 1 380 9
 380:usbd_enum.c   ****             usbd_addr_set (udev, udev->dev.dev_addr);
 870              		.loc 1 380 12 is_stmt 0
 871 0044 E387E6FC 		beq	a3,a4,.L71
 872              	.LVL85:
 381:usbd_enum.c   **** 
 873              		.loc 1 381 13 is_stmt 1
 874 0048 97000000 		call	usbd_addr_set
 874      E7800000 
 875              	.LVL86:
 383:usbd_enum.c   ****                 udev->dev.cur_status = USBD_ADDRESSED;
 876              		.loc 1 383 13
 383:usbd_enum.c   ****                 udev->dev.cur_status = USBD_ADDRESSED;
 877              		.loc 1 383 16 is_stmt 0
 878 0050 8347540C 		lbu	a5,197(s0)
 879 0054 91C7     		beq	a5,zero,.L72
 384:usbd_enum.c   ****             } else {
 880              		.loc 1 384 17 is_stmt 1
 384:usbd_enum.c   ****             } else {
GAS LISTING C:\Users\Uzair\AppData\Local\Temp\ccy2jRBs.s 			page 31


 881              		.loc 1 384 38 is_stmt 0
 882 0056 8947     		li	a5,2
 883              	.L77:
 386:usbd_enum.c   ****             }
 884              		.loc 1 386 38
 885 0058 2303F40C 		sb	a5,198(s0)
 389:usbd_enum.c   ****         }
 886              		.loc 1 389 20
 887 005c 0145     		li	a0,0
 888 005e 5DBF     		j	.L68
 889              	.L72:
 386:usbd_enum.c   ****             }
 890              		.loc 1 386 17 is_stmt 1
 386:usbd_enum.c   ****             }
 891              		.loc 1 386 38 is_stmt 0
 892 0060 8547     		li	a5,1
 893 0062 DDBF     		j	.L77
 894              	.LBE40:
 895              	.LBE39:
 896              		.cfi_endproc
 897              	.LFE14:
 899              		.section	.text._usb_std_setfeature,"ax",@progbits
 900              		.align	1
 902              	_usb_std_setfeature:
 903              	.LFB13:
 327:usbd_enum.c   ****     uint8_t ep = 0;
 904              		.loc 1 327 1 is_stmt 1
 905              		.cfi_startproc
 906              	.LVL87:
 328:usbd_enum.c   **** 
 907              		.loc 1 328 5
 330:usbd_enum.c   ****     {
 908              		.loc 1 330 5
 327:usbd_enum.c   ****     uint8_t ep = 0;
 909              		.loc 1 327 1 is_stmt 0
 910 0000 4111     		addi	sp,sp,-16
 911              	.LCFI9:
 912              		.cfi_def_cfa_offset 16
 913 0002 06C6     		sw	ra,12(sp)
 914 0004 22C4     		sw	s0,8(sp)
 915              		.cfi_offset 1, -4
 916              		.cfi_offset 8, -8
 917 0006 83C70500 		lbu	a5,0(a1)
 327:usbd_enum.c   ****     uint8_t ep = 0;
 918              		.loc 1 327 1
 919 000a 2A87     		mv	a4,a0
 920 000c 8D8B     		andi	a5,a5,3
 330:usbd_enum.c   ****     {
 921              		.loc 1 330 5
 922 000e 8DCF     		beq	a5,zero,.L79
 923 0010 8946     		li	a3,2
 365:usbd_enum.c   **** }
 924              		.loc 1 365 12
 925 0012 0544     		li	s0,1
 330:usbd_enum.c   ****     {
 926              		.loc 1 330 5
 927 0014 6391D706 		bne	a5,a3,.L78
GAS LISTING C:\Users\Uzair\AppData\Local\Temp\ccy2jRBs.s 			page 32


 928              	.LVL88:
 929              	.LBB43:
 930              	.LBB44:
 349:usbd_enum.c   **** 
 931              		.loc 1 349 13 is_stmt 1
 351:usbd_enum.c   ****                 /* set endpoint halt feature */
 932              		.loc 1 351 13
 351:usbd_enum.c   ****                 /* set endpoint halt feature */
 933              		.loc 1 351 45 is_stmt 0
 934 0018 8347650C 		lbu	a5,198(a0)
 351:usbd_enum.c   ****                 /* set endpoint halt feature */
 935              		.loc 1 351 16
 936 001c 0D47     		li	a4,3
 937              	.LBE44:
 938              	.LBE43:
 365:usbd_enum.c   **** }
 939              		.loc 1 365 12
 940 001e 0544     		li	s0,1
 941              	.LBB47:
 942              	.LBB45:
 351:usbd_enum.c   ****                 /* set endpoint halt feature */
 943              		.loc 1 351 16
 944 0020 631BF704 		bne	a4,a5,.L78
 353:usbd_enum.c   ****                     usbd_ep_stall (udev, ep);
 945              		.loc 1 353 17 is_stmt 1
 353:usbd_enum.c   ****                     usbd_ep_stall (udev, ep);
 946              		.loc 1 353 48 is_stmt 0
 947 0024 83C73500 		lbu	a5,3(a1)
 948 0028 03C72500 		lbu	a4,2(a1)
 949              	.LBE45:
 950              	.LBE47:
 340:usbd_enum.c   ****             }
 951              		.loc 1 340 24
 952 002c 0144     		li	s0,0
 953              	.LBB48:
 954              	.LBB46:
 353:usbd_enum.c   ****                     usbd_ep_stall (udev, ep);
 955              		.loc 1 353 48
 956 002e A207     		slli	a5,a5,8
 353:usbd_enum.c   ****                     usbd_ep_stall (udev, ep);
 957              		.loc 1 353 20
 958 0030 D98F     		or	a5,a5,a4
 959 0032 B1E3     		bne	a5,zero,.L78
 349:usbd_enum.c   **** 
 960              		.loc 1 349 16
 961 0034 83C54500 		lbu	a1,4(a1)
 962              	.LVL89:
 353:usbd_enum.c   ****                     usbd_ep_stall (udev, ep);
 963              		.loc 1 353 58
 964 0038 93F7F507 		andi	a5,a1,127
 965 003c 8DCF     		beq	a5,zero,.L78
 354:usbd_enum.c   ****                 }
 966              		.loc 1 354 21 is_stmt 1
 967 003e 97000000 		call	usbd_ep_stall
 967      E7800000 
 968              	.LVL90:
 969 0046 05A8     		j	.L78
GAS LISTING C:\Users\Uzair\AppData\Local\Temp\ccy2jRBs.s 			page 33


 970              	.LVL91:
 971              	.L79:
 972              	.LBE46:
 973              	.LBE48:
 333:usbd_enum.c   ****                 (USBD_CONFIGURED == udev->dev.cur_status)) {
 974              		.loc 1 333 13
 333:usbd_enum.c   ****                 (USBD_CONFIGURED == udev->dev.cur_status)) {
 975              		.loc 1 333 45 is_stmt 0
 976 0048 8347650C 		lbu	a5,198(a0)
 333:usbd_enum.c   ****                 (USBD_CONFIGURED == udev->dev.cur_status)) {
 977              		.loc 1 333 16
 978 004c 8946     		li	a3,2
 979 004e 6388F600 		beq	a3,a5,.L82
 334:usbd_enum.c   ****                 /* set device remote wakeup feature */
 980              		.loc 1 334 46 discriminator 1
 981 0052 8347650C 		lbu	a5,198(a0)
 333:usbd_enum.c   ****                 (USBD_CONFIGURED == udev->dev.cur_status)) {
 982              		.loc 1 333 58 discriminator 1
 983 0056 8D46     		li	a3,3
 365:usbd_enum.c   **** }
 984              		.loc 1 365 12 discriminator 1
 985 0058 0544     		li	s0,1
 333:usbd_enum.c   ****                 (USBD_CONFIGURED == udev->dev.cur_status)) {
 986              		.loc 1 333 58 discriminator 1
 987 005a 639EF600 		bne	a3,a5,.L78
 988              	.L82:
 336:usbd_enum.c   ****                     udev->dev.pm.dev_remote_wakeup = 1U;
 989              		.loc 1 336 17 is_stmt 1
 336:usbd_enum.c   ****                     udev->dev.pm.dev_remote_wakeup = 1U;
 990              		.loc 1 336 53 is_stmt 0
 991 005e 83C73500 		lbu	a5,3(a1)
 992 0062 83C62500 		lbu	a3,2(a1)
 340:usbd_enum.c   ****             }
 993              		.loc 1 340 24
 994 0066 0144     		li	s0,0
 336:usbd_enum.c   ****                     udev->dev.pm.dev_remote_wakeup = 1U;
 995              		.loc 1 336 53
 996 0068 A207     		slli	a5,a5,8
 336:usbd_enum.c   ****                     udev->dev.pm.dev_remote_wakeup = 1U;
 997              		.loc 1 336 20
 998 006a D58F     		or	a5,a5,a3
 999 006c 8546     		li	a3,1
 1000 006e 6394D700 		bne	a5,a3,.L78
 337:usbd_enum.c   ****                 }
 1001              		.loc 1 337 21 is_stmt 1
 337:usbd_enum.c   ****                 }
 1002              		.loc 1 337 52 is_stmt 0
 1003 0072 2309F740 		sb	a5,1042(a4)
 1004              	.LVL92:
 1005              	.L78:
 366:usbd_enum.c   **** 
 1006              		.loc 1 366 1
 1007 0076 2285     		mv	a0,s0
 1008 0078 B240     		lw	ra,12(sp)
 1009              		.cfi_restore 1
 1010 007a 2244     		lw	s0,8(sp)
 1011              		.cfi_restore 8
GAS LISTING C:\Users\Uzair\AppData\Local\Temp\ccy2jRBs.s 			page 34


 1012 007c 4101     		addi	sp,sp,16
 1013              	.LCFI10:
 1014              		.cfi_def_cfa_offset 0
 1015 007e 8280     		jr	ra
 1016              		.cfi_endproc
 1017              	.LFE13:
 1019              		.section	.text._usb_std_clearfeature,"ax",@progbits
 1020              		.align	1
 1022              	_usb_std_clearfeature:
 1023              	.LFB12:
 275:usbd_enum.c   ****     uint8_t ep = 0;
 1024              		.loc 1 275 1 is_stmt 1
 1025              		.cfi_startproc
 1026              	.LVL93:
 276:usbd_enum.c   **** 
 1027              		.loc 1 276 5
 278:usbd_enum.c   ****     {
 1028              		.loc 1 278 5
 275:usbd_enum.c   ****     uint8_t ep = 0;
 1029              		.loc 1 275 1 is_stmt 0
 1030 0000 4111     		addi	sp,sp,-16
 1031              	.LCFI11:
 1032              		.cfi_def_cfa_offset 16
 1033 0002 26C2     		sw	s1,4(sp)
 1034 0004 06C6     		sw	ra,12(sp)
 1035 0006 22C4     		sw	s0,8(sp)
 1036 0008 4AC0     		sw	s2,0(sp)
 1037              		.cfi_offset 9, -12
 1038              		.cfi_offset 1, -4
 1039              		.cfi_offset 8, -8
 1040              		.cfi_offset 18, -16
 1041 000a 03C70500 		lbu	a4,0(a1)
 275:usbd_enum.c   ****     uint8_t ep = 0;
 1042              		.loc 1 275 1
 1043 000e AA84     		mv	s1,a0
 1044 0010 0D8B     		andi	a4,a4,3
 278:usbd_enum.c   ****     {
 1045              		.loc 1 278 5
 1046 0012 29C7     		beq	a4,zero,.L91
 1047 0014 8946     		li	a3,2
 316:usbd_enum.c   **** }
 1048              		.loc 1 316 12
 1049 0016 0549     		li	s2,1
 278:usbd_enum.c   ****     {
 1050              		.loc 1 278 5
 1051 0018 6319D706 		bne	a4,a3,.L90
 1052              	.LVL94:
 1053              	.LBB51:
 1054              	.LBB52:
 298:usbd_enum.c   **** 
 1055              		.loc 1 298 13 is_stmt 1
 300:usbd_enum.c   ****                 /* clear endpoint halt feature */
 1056              		.loc 1 300 13
 300:usbd_enum.c   ****                 /* clear endpoint halt feature */
 1057              		.loc 1 300 45 is_stmt 0
 1058 001c 0347650C 		lbu	a4,198(a0)
 300:usbd_enum.c   ****                 /* clear endpoint halt feature */
GAS LISTING C:\Users\Uzair\AppData\Local\Temp\ccy2jRBs.s 			page 35


 1059              		.loc 1 300 16
 1060 0020 8D46     		li	a3,3
 1061              	.LBE52:
 1062              	.LBE51:
 316:usbd_enum.c   **** }
 1063              		.loc 1 316 12
 1064 0022 0549     		li	s2,1
 1065              	.LBB54:
 1066              	.LBB53:
 300:usbd_enum.c   ****                 /* clear endpoint halt feature */
 1067              		.loc 1 300 16
 1068 0024 6393E606 		bne	a3,a4,.L90
 302:usbd_enum.c   ****                     usbd_ep_stall_clear (udev, ep);
 1069              		.loc 1 302 17 is_stmt 1
 302:usbd_enum.c   ****                     usbd_ep_stall_clear (udev, ep);
 1070              		.loc 1 302 48 is_stmt 0
 1071 0028 03C73500 		lbu	a4,3(a1)
 1072 002c 83C62500 		lbu	a3,2(a1)
 308:usbd_enum.c   ****             }
 1073              		.loc 1 308 24
 1074 0030 0149     		li	s2,0
 302:usbd_enum.c   ****                     usbd_ep_stall_clear (udev, ep);
 1075              		.loc 1 302 48
 1076 0032 2207     		slli	a4,a4,8
 302:usbd_enum.c   ****                     usbd_ep_stall_clear (udev, ep);
 1077              		.loc 1 302 20
 1078 0034 558F     		or	a4,a4,a3
 1079 0036 31EB     		bne	a4,zero,.L90
 298:usbd_enum.c   **** 
 1080              		.loc 1 298 16
 1081 0038 03C74500 		lbu	a4,4(a1)
 302:usbd_enum.c   ****                     usbd_ep_stall_clear (udev, ep);
 1082              		.loc 1 302 58
 1083 003c 9376F707 		andi	a3,a4,127
 1084 0040 A9C6     		beq	a3,zero,.L90
 1085 0042 2E84     		mv	s0,a1
 303:usbd_enum.c   **** 
 1086              		.loc 1 303 21 is_stmt 1
 1087 0044 BA85     		mv	a1,a4
 1088              	.LVL95:
 1089 0046 97000000 		call	usbd_ep_stall_clear
 1089      E7800000 
 1090              	.LVL96:
 305:usbd_enum.c   ****                 }
 1091              		.loc 1 305 21
 305:usbd_enum.c   ****                 }
 1092              		.loc 1 305 41 is_stmt 0
 1093 004e 83A70443 		lw	a5,1072(s1)
 305:usbd_enum.c   ****                 }
 1094              		.loc 1 305 21
 1095 0052 A285     		mv	a1,s0
 1096 0054 2685     		mv	a0,s1
 1097 0056 DC47     		lw	a5,12(a5)
 1098 0058 8297     		jalr	a5
 1099              	.LVL97:
 1100 005a 05A8     		j	.L90
 1101              	.LVL98:
GAS LISTING C:\Users\Uzair\AppData\Local\Temp\ccy2jRBs.s 			page 36


 1102              	.L91:
 1103              	.LBE53:
 1104              	.LBE54:
 281:usbd_enum.c   ****                 (USBD_CONFIGURED == udev->dev.cur_status)) {
 1105              		.loc 1 281 13 is_stmt 1
 281:usbd_enum.c   ****                 (USBD_CONFIGURED == udev->dev.cur_status)) {
 1106              		.loc 1 281 45 is_stmt 0
 1107 005c 0347650C 		lbu	a4,198(a0)
 281:usbd_enum.c   ****                 (USBD_CONFIGURED == udev->dev.cur_status)) {
 1108              		.loc 1 281 16
 1109 0060 8946     		li	a3,2
 1110 0062 6388E600 		beq	a3,a4,.L94
 282:usbd_enum.c   **** 
 1111              		.loc 1 282 46 discriminator 1
 1112 0066 0347650C 		lbu	a4,198(a0)
 281:usbd_enum.c   ****                 (USBD_CONFIGURED == udev->dev.cur_status)) {
 1113              		.loc 1 281 58 discriminator 1
 1114 006a 8D46     		li	a3,3
 316:usbd_enum.c   **** }
 1115              		.loc 1 316 12 discriminator 1
 1116 006c 0549     		li	s2,1
 281:usbd_enum.c   ****                 (USBD_CONFIGURED == udev->dev.cur_status)) {
 1117              		.loc 1 281 58 discriminator 1
 1118 006e 639EE600 		bne	a3,a4,.L90
 1119              	.L94:
 285:usbd_enum.c   ****                     udev->dev.pm.dev_remote_wakeup = 0U;
 1120              		.loc 1 285 17 is_stmt 1
 285:usbd_enum.c   ****                     udev->dev.pm.dev_remote_wakeup = 0U;
 1121              		.loc 1 285 53 is_stmt 0
 1122 0072 03C73500 		lbu	a4,3(a1)
 1123 0076 83C62500 		lbu	a3,2(a1)
 316:usbd_enum.c   **** }
 1124              		.loc 1 316 12
 1125 007a 0549     		li	s2,1
 285:usbd_enum.c   ****                     udev->dev.pm.dev_remote_wakeup = 0U;
 1126              		.loc 1 285 53
 1127 007c 2207     		slli	a4,a4,8
 285:usbd_enum.c   ****                     udev->dev.pm.dev_remote_wakeup = 0U;
 1128              		.loc 1 285 20
 1129 007e 558F     		or	a4,a4,a3
 1130 0080 63152701 		bne	a4,s2,.L90
 286:usbd_enum.c   **** 
 1131              		.loc 1 286 21 is_stmt 1
 286:usbd_enum.c   **** 
 1132              		.loc 1 286 52 is_stmt 0
 1133 0084 23890440 		sb	zero,1042(s1)
 288:usbd_enum.c   ****                 }
 1134              		.loc 1 288 21 is_stmt 1
 288:usbd_enum.c   ****                 }
 1135              		.loc 1 288 28 is_stmt 0
 1136 0088 0149     		li	s2,0
 1137              	.LVL99:
 1138              	.L90:
 317:usbd_enum.c   **** 
 1139              		.loc 1 317 1
 1140 008a B240     		lw	ra,12(sp)
 1141              		.cfi_restore 1
GAS LISTING C:\Users\Uzair\AppData\Local\Temp\ccy2jRBs.s 			page 37


 1142 008c 2244     		lw	s0,8(sp)
 1143              		.cfi_restore 8
 1144 008e 4A85     		mv	a0,s2
 1145 0090 9244     		lw	s1,4(sp)
 1146              		.cfi_restore 9
 1147              	.LVL100:
 1148 0092 0249     		lw	s2,0(sp)
 1149              		.cfi_restore 18
 1150 0094 4101     		addi	sp,sp,16
 1151              	.LCFI12:
 1152              		.cfi_def_cfa_offset 0
 1153 0096 8280     		jr	ra
 1154              		.cfi_endproc
 1155              	.LFE12:
 1157              		.section	.text._usb_std_setdescriptor,"ax",@progbits
 1158              		.align	1
 1160              	_usb_std_setdescriptor:
 1161              	.LFB33:
 1162              		.cfi_startproc
 1163 0000 0145     		li	a0,0
 1164 0002 8280     		ret
 1165              		.cfi_endproc
 1166              	.LFE33:
 1168              		.section	.text._usb_std_synchframe,"ax",@progbits
 1169              		.align	1
 1171              	_usb_std_synchframe:
 1172              	.LFB35:
 1173              		.cfi_startproc
 1174 0000 0145     		li	a0,0
 1175 0002 8280     		ret
 1176              		.cfi_endproc
 1177              	.LFE35:
 1179              		.section	.text.usbd_standard_request,"ax",@progbits
 1180              		.align	1
 1181              		.globl	usbd_standard_request
 1183              	usbd_standard_request:
 1184              	.LFB3:
  88:usbd_enum.c   ****     return (*_std_dev_req[req->bRequest])(udev, req);
 1185              		.loc 1 88 1 is_stmt 1
 1186              		.cfi_startproc
 1187              	.LVL101:
  89:usbd_enum.c   **** }
 1188              		.loc 1 89 5
  89:usbd_enum.c   **** }
 1189              		.loc 1 89 30 is_stmt 0
 1190 0000 83C71500 		lbu	a5,1(a1)
  89:usbd_enum.c   **** }
 1191              		.loc 1 89 13
 1192 0004 13972700 		slli	a4,a5,2
 1193 0008 B7070000 		lui	a5,%hi(.LANCHOR2)
 1194 000c 93870700 		addi	a5,a5,%lo(.LANCHOR2)
 1195 0010 BA97     		add	a5,a5,a4
 1196 0012 03A30700 		lw	t1,0(a5)
 1197 0016 0283     		jr	t1
 1198              	.LVL102:
 1199              		.cfi_endproc
 1200              	.LFE3:
GAS LISTING C:\Users\Uzair\AppData\Local\Temp\ccy2jRBs.s 			page 38


 1202              		.section	.text.usbd_class_request,"ax",@progbits
 1203              		.align	1
 1204              		.globl	usbd_class_request
 1206              	usbd_class_request:
 1207              	.LFB4:
 100:usbd_enum.c   ****     if (USBD_CONFIGURED == udev->dev.cur_status) {
 1208              		.loc 1 100 1 is_stmt 1
 1209              		.cfi_startproc
 1210              	.LVL103:
 101:usbd_enum.c   ****         if (BYTE_LOW(req->wIndex) <= USBD_ITF_MAX_NUM) {
 1211              		.loc 1 101 5
 101:usbd_enum.c   ****         if (BYTE_LOW(req->wIndex) <= USBD_ITF_MAX_NUM) {
 1212              		.loc 1 101 37 is_stmt 0
 1213 0000 8346650C 		lbu	a3,198(a0)
 101:usbd_enum.c   ****         if (BYTE_LOW(req->wIndex) <= USBD_ITF_MAX_NUM) {
 1214              		.loc 1 101 8
 1215 0004 0D46     		li	a2,3
 108:usbd_enum.c   **** }
 1216              		.loc 1 108 12
 1217 0006 8547     		li	a5,1
 101:usbd_enum.c   ****         if (BYTE_LOW(req->wIndex) <= USBD_ITF_MAX_NUM) {
 1218              		.loc 1 101 8
 1219 0008 6310D602 		bne	a2,a3,.L110
 102:usbd_enum.c   ****             /* call device class handle function */
 1220              		.loc 1 102 9 is_stmt 1
 102:usbd_enum.c   ****             /* call device class handle function */
 1221              		.loc 1 102 12 is_stmt 0
 1222 000c 83C64500 		lbu	a3,4(a1)
 108:usbd_enum.c   **** }
 1223              		.loc 1 108 12
 1224 0010 8547     		li	a5,1
 102:usbd_enum.c   ****             /* call device class handle function */
 1225              		.loc 1 102 12
 1226 0012 63EBD700 		bgtu	a3,a5,.L110
 104:usbd_enum.c   ****         }
 1227              		.loc 1 104 13 is_stmt 1
 104:usbd_enum.c   ****         }
 1228              		.loc 1 104 52 is_stmt 0
 1229 0016 83270543 		lw	a5,1072(a0)
 100:usbd_enum.c   ****     if (USBD_CONFIGURED == udev->dev.cur_status) {
 1230              		.loc 1 100 1
 1231 001a 4111     		addi	sp,sp,-16
 1232              	.LCFI13:
 1233              		.cfi_def_cfa_offset 16
 1234 001c 06C6     		sw	ra,12(sp)
 1235              		.cfi_offset 1, -4
 104:usbd_enum.c   ****         }
 1236              		.loc 1 104 32
 1237 001e DC47     		lw	a5,12(a5)
 1238 0020 8297     		jalr	a5
 1239              	.LVL104:
 109:usbd_enum.c   **** 
 1240              		.loc 1 109 1
 1241 0022 B240     		lw	ra,12(sp)
 1242              		.cfi_restore 1
 1243 0024 4101     		addi	sp,sp,16
 1244              	.LCFI14:
GAS LISTING C:\Users\Uzair\AppData\Local\Temp\ccy2jRBs.s 			page 39


 1245              		.cfi_def_cfa_offset 0
 1246 0026 8280     		jr	ra
 1247              	.LVL105:
 1248              	.L110:
 1249 0028 3E85     		mv	a0,a5
 1250              	.LVL106:
 1251 002a 8280     		ret
 1252              		.cfi_endproc
 1253              	.LFE4:
 1255              		.section	.text.usbd_vendor_request,"ax",@progbits
 1256              		.align	1
 1257              		.globl	usbd_vendor_request
 1259              	usbd_vendor_request:
 1260              	.LFB5:
 119:usbd_enum.c   ****     /* added by user... */
 1261              		.loc 1 119 1 is_stmt 1
 1262              		.cfi_startproc
 1263              	.LVL107:
 122:usbd_enum.c   **** }
 1264              		.loc 1 122 5
 123:usbd_enum.c   **** 
 1265              		.loc 1 123 1 is_stmt 0
 1266 0000 0145     		li	a0,0
 1267              	.LVL108:
 1268 0002 8280     		ret
 1269              		.cfi_endproc
 1270              	.LFE5:
 1272              		.section	.text.usbd_enum_error,"ax",@progbits
 1273              		.align	1
 1274              		.globl	usbd_enum_error
 1276              	usbd_enum_error:
 1277              	.LFB22:
 644:usbd_enum.c   **** 
 645:usbd_enum.c   **** /*!
 646:usbd_enum.c   ****     \brief      handle USB SynchFrame request
 647:usbd_enum.c   ****     \param[in]  udev: pointer to USB device instance
 648:usbd_enum.c   ****     \param[in]  req: pointer to USB device request
 649:usbd_enum.c   ****     \param[out] none
 650:usbd_enum.c   ****     \retval     USB device request status
 651:usbd_enum.c   **** */
 652:usbd_enum.c   **** static usb_reqsta _usb_std_synchframe (usb_core_driver *udev, usb_req *req)
 653:usbd_enum.c   **** {
 654:usbd_enum.c   ****     /* no handle... */
 655:usbd_enum.c   ****     return REQ_SUPP;
 656:usbd_enum.c   **** }
 657:usbd_enum.c   **** 
 658:usbd_enum.c   **** /*!
 659:usbd_enum.c   ****     \brief      handle USB enumeration error
 660:usbd_enum.c   ****     \param[in]  udev: pointer to USB device instance
 661:usbd_enum.c   ****     \param[in]  req: pointer to USB device request
 662:usbd_enum.c   ****     \param[out] none
 663:usbd_enum.c   ****     \retval     none
 664:usbd_enum.c   **** */
 665:usbd_enum.c   **** void usbd_enum_error (usb_core_driver *udev, usb_req *req)
 666:usbd_enum.c   **** {
 1278              		.loc 1 666 1 is_stmt 1
 1279              		.cfi_startproc
GAS LISTING C:\Users\Uzair\AppData\Local\Temp\ccy2jRBs.s 			page 40


 1280              	.LVL109:
 667:usbd_enum.c   ****     usbd_ep_stall (udev, 0x80);
 1281              		.loc 1 667 5
 666:usbd_enum.c   ****     usbd_ep_stall (udev, 0x80);
 1282              		.loc 1 666 1 is_stmt 0
 1283 0000 4111     		addi	sp,sp,-16
 1284              	.LCFI15:
 1285              		.cfi_def_cfa_offset 16
 1286              		.loc 1 667 5
 1287 0002 93050008 		li	a1,128
 1288              	.LVL110:
 666:usbd_enum.c   ****     usbd_ep_stall (udev, 0x80);
 1289              		.loc 1 666 1
 1290 0006 06C6     		sw	ra,12(sp)
 1291 0008 22C4     		sw	s0,8(sp)
 1292              		.cfi_offset 1, -4
 1293              		.cfi_offset 8, -8
 666:usbd_enum.c   ****     usbd_ep_stall (udev, 0x80);
 1294              		.loc 1 666 1
 1295 000a 2A84     		mv	s0,a0
 1296              		.loc 1 667 5
 1297 000c 97000000 		call	usbd_ep_stall
 1297      E7800000 
 1298              	.LVL111:
 668:usbd_enum.c   ****     usbd_ep_stall (udev, 0x00);
 1299              		.loc 1 668 5 is_stmt 1
 1300 0014 2285     		mv	a0,s0
 1301 0016 8145     		li	a1,0
 1302 0018 97000000 		call	usbd_ep_stall
 1302      E7800000 
 1303              	.LVL112:
 669:usbd_enum.c   **** 
 670:usbd_enum.c   ****     usb_ctlep_startout(udev);
 1304              		.loc 1 670 5
 1305 0020 2285     		mv	a0,s0
 671:usbd_enum.c   **** }
 1306              		.loc 1 671 1 is_stmt 0
 1307 0022 2244     		lw	s0,8(sp)
 1308              		.cfi_restore 8
 1309              	.LVL113:
 1310 0024 B240     		lw	ra,12(sp)
 1311              		.cfi_restore 1
 1312 0026 4101     		addi	sp,sp,16
 1313              	.LCFI16:
 1314              		.cfi_def_cfa_offset 0
 670:usbd_enum.c   **** }
 1315              		.loc 1 670 5
 1316 0028 17030000 		tail	usb_ctlep_startout
 1316      67000300 
 1317              	.LVL114:
 1318              		.cfi_endproc
 1319              	.LFE22:
 1321              		.section	.text.int_to_unicode,"ax",@progbits
 1322              		.align	1
 1323              		.globl	int_to_unicode
 1325              	int_to_unicode:
 1326              	.LFB23:
GAS LISTING C:\Users\Uzair\AppData\Local\Temp\ccy2jRBs.s 			page 41


 672:usbd_enum.c   **** 
 673:usbd_enum.c   **** /*!
 674:usbd_enum.c   ****     \brief      convert hex 32bits value into unicode char
 675:usbd_enum.c   ****     \param[in]  value: hex 32bits value
 676:usbd_enum.c   ****     \param[in]  pbuf: buffer pointer to store unicode char
 677:usbd_enum.c   ****     \param[in]  len: value length
 678:usbd_enum.c   ****     \param[out] none
 679:usbd_enum.c   ****     \retval     none
 680:usbd_enum.c   **** */
 681:usbd_enum.c   **** void int_to_unicode (uint32_t value, uint8_t *pbuf, uint8_t len)
 682:usbd_enum.c   **** {
 1327              		.loc 1 682 1 is_stmt 1
 1328              		.cfi_startproc
 1329              	.LVL115:
 683:usbd_enum.c   ****     uint8_t index = 0;
 1330              		.loc 1 683 5
 684:usbd_enum.c   **** 
 685:usbd_enum.c   ****     for (index = 0; index < len; index++) {
 1331              		.loc 1 685 5
 1332              		.loc 1 685 16 is_stmt 0
 1333 0000 0147     		li	a4,0
 686:usbd_enum.c   ****         if ((value >> 28) < 0x0A) {
 1334              		.loc 1 686 12
 1335 0002 2548     		li	a6,9
 1336              	.LVL116:
 1337              	.L117:
 685:usbd_enum.c   ****         if ((value >> 28) < 0x0A) {
 1338              		.loc 1 685 5 discriminator 1
 1339 0004 6313C700 		bne	a4,a2,.L120
 687:usbd_enum.c   ****             pbuf[2 * index] = (value >> 28) + '0';
 688:usbd_enum.c   ****         } else {
 689:usbd_enum.c   ****             pbuf[2 * index] = (value >> 28) + 'A' - 10; 
 690:usbd_enum.c   ****         }
 691:usbd_enum.c   **** 
 692:usbd_enum.c   ****         value = value << 4;
 693:usbd_enum.c   **** 
 694:usbd_enum.c   ****         pbuf[2 * index + 1] = 0;
 695:usbd_enum.c   ****     }
 696:usbd_enum.c   **** }
 1340              		.loc 1 696 1
 1341 0008 8280     		ret
 1342              	.L120:
 686:usbd_enum.c   ****             pbuf[2 * index] = (value >> 28) + '0';
 1343              		.loc 1 686 9 is_stmt 1
 686:usbd_enum.c   ****             pbuf[2 * index] = (value >> 28) + '0';
 1344              		.loc 1 686 20 is_stmt 0
 1345 000a 9356C501 		srli	a3,a0,28
 1346 000e 93F7F60F 		andi	a5,a3,0xff
 686:usbd_enum.c   ****             pbuf[2 * index] = (value >> 28) + '0';
 1347              		.loc 1 686 12
 1348 0012 636ED800 		bgtu	a3,a6,.L118
 687:usbd_enum.c   ****             pbuf[2 * index] = (value >> 28) + '0';
 1349              		.loc 1 687 13 is_stmt 1
 687:usbd_enum.c   ****             pbuf[2 * index] = (value >> 28) + '0';
 1350              		.loc 1 687 45 is_stmt 0
 1351 0016 93870703 		addi	a5,a5,48
 1352              	.L121:
GAS LISTING C:\Users\Uzair\AppData\Local\Temp\ccy2jRBs.s 			page 42


 685:usbd_enum.c   ****         if ((value >> 28) < 0x0A) {
 1353              		.loc 1 685 39
 1354 001a 0507     		addi	a4,a4,1
 1355              	.LVL117:
 689:usbd_enum.c   ****         }
 1356              		.loc 1 689 29
 1357 001c 2380F500 		sb	a5,0(a1)
 692:usbd_enum.c   **** 
 1358              		.loc 1 692 9 is_stmt 1
 694:usbd_enum.c   ****     }
 1359              		.loc 1 694 29 is_stmt 0
 1360 0020 A3800500 		sb	zero,1(a1)
 692:usbd_enum.c   **** 
 1361              		.loc 1 692 15
 1362 0024 1205     		slli	a0,a0,4
 1363              	.LVL118:
 694:usbd_enum.c   ****     }
 1364              		.loc 1 694 9 is_stmt 1
 685:usbd_enum.c   ****         if ((value >> 28) < 0x0A) {
 1365              		.loc 1 685 39 is_stmt 0
 1366 0026 1377F70F 		andi	a4,a4,0xff
 1367              	.LVL119:
 1368 002a 8905     		addi	a1,a1,2
 1369 002c E1BF     		j	.L117
 1370              	.L118:
 689:usbd_enum.c   ****         }
 1371              		.loc 1 689 13 is_stmt 1
 689:usbd_enum.c   ****         }
 1372              		.loc 1 689 51 is_stmt 0
 1373 002e 93877703 		addi	a5,a5,55
 1374 0032 E5B7     		j	.L121
 1375              		.cfi_endproc
 1376              	.LFE23:
 1378              		.section	.rodata._std_dev_req,"a"
 1379              		.align	2
 1380              		.set	.LANCHOR2,. + 0
 1383              	_std_dev_req:
 1384 0000 00000000 		.word	_usb_std_getstatus
 1385 0004 00000000 		.word	_usb_std_clearfeature
 1386 0008 00000000 		.word	_usb_std_reserved
 1387 000c 00000000 		.word	_usb_std_setfeature
 1388 0010 00000000 		.word	_usb_std_reserved
 1389 0014 00000000 		.word	_usb_std_setaddress
 1390 0018 00000000 		.word	_usb_std_getdescriptor
 1391 001c 00000000 		.word	_usb_std_setdescriptor
 1392 0020 00000000 		.word	_usb_std_getconfiguration
 1393 0024 00000000 		.word	_usb_std_setconfiguration
 1394 0028 00000000 		.word	_usb_std_getinterface
 1395 002c 00000000 		.word	_usb_std_setinterface
 1396 0030 00000000 		.word	_usb_std_synchframe
 1397              		.section	.sbss.config.4766,"aw",@nobits
 1398              		.set	.LANCHOR0,. + 0
 1401              	config.4766:
 1402 0000 00       		.zero	1
 1403              		.section	.sbss.status.4696,"aw",@nobits
 1404              		.align	2
 1405              		.set	.LANCHOR1,. + 0
GAS LISTING C:\Users\Uzair\AppData\Local\Temp\ccy2jRBs.s 			page 43


 1408              	status.4696:
 1409 0000 0000     		.zero	2
 1410              		.text
 1411              	.Letext0:
 1412              		.file 2 "c:\\kth\\he1043\\toolchain-gd32v-v202-win\\toolchain-gd32v-v202-win\\compiler\\riscv64-un
 1413              		.file 3 "c:\\kth\\he1043\\toolchain-gd32v-v202-win\\toolchain-gd32v-v202-win\\compiler\\riscv64-un
 1414              		.file 4 "drv_usb_regs.h"
 1415              		.file 5 "./../../firmware/GD32VF103_standard_peripheral/system_gd32vf103.h"
 1416              		.file 6 "usb_ch9_std.h"
 1417              		.file 7 "drv_usb_core.h"
 1418              		.file 8 "drv_usb_dev.h"
 1419              		.file 9 "usbd_core.h"
 1420              		.file 10 "c:\\kth\\he1043\\toolchain-gd32v-v202-win\\toolchain-gd32v-v202-win\\compiler\\lib\\gcc\
 1421              		.file 11 "c:\\kth\\he1043\\toolchain-gd32v-v202-win\\toolchain-gd32v-v202-win\\compiler\\riscv64-u
 1422              		.file 12 "c:\\kth\\he1043\\toolchain-gd32v-v202-win\\toolchain-gd32v-v202-win\\compiler\\riscv64-u
 1423              		.file 13 "c:\\kth\\he1043\\toolchain-gd32v-v202-win\\toolchain-gd32v-v202-win\\compiler\\riscv64-u
 1424              		.file 14 "usbd_enum.h"
GAS LISTING C:\Users\Uzair\AppData\Local\Temp\ccy2jRBs.s 			page 44

